(lp1
(iwrapper_utilities.class_data
CppClass
p2
(dp3
S'pointer_return_methods'
p4
NsS'name_replacements'
p5
(dp6
S'std::string'
p7
S'String'
p8
sS'c_vector'
p9
S'CVector'
p10
sS'std::set'
p11
S'Set'
p12
sS'std::pair'
p13
S'Pair'
p14
sS'std::map'
p15
S'Map'
p16
sS'boost::shared_ptr'
p17
S'SharedPtr'
p18
sS'std::vector'
p19
S'Vector'
p20
sS'*'
S'Ptr'
p21
sS'unsigned'
p22
S'Unsigned'
p23
sS'unsigned int'
p24
g23
sS'double'
p25
S'Double'
p26
sS'Unsigned int'
p27
g23
ssS'name'
p28
S'std::string'
p29
sS'include_ptr_self'
p30
I00
sS'include_raw_ptr_self'
p31
I00
sS'declaration_code'
p32
NsS'component'
p33
S'extra'
p34
sS'needs_include_file'
p35
I00
sS'needs_instantiation'
p36
I00
sS'skip_wrapping'
p37
I01
sS'excluded_variables'
p38
NsS'template_args'
p39
NsS'excluded_methods'
p40
NsS'name_override'
p41
NsS'include_vec_ptr_self'
p42
I00
sS'full_path'
p43
NsS'include_file_only'
p44
I00
sba(iwrapper_utilities.class_data
CppClass
p45
(dp46
g4
Nsg5
(dp47
g7
g8
sg9
g10
sg11
g12
sg13
g14
sg15
g16
sg17
g18
sg19
g20
sS'*'
g21
sg22
g23
sg24
g23
sg25
g26
sg27
g23
ssg28
S'std::map'
p48
sg30
I00
sg31
I00
sg32
Nsg33
g34
sg35
I00
sg36
I00
sg37
I01
sg38
Nsg39
(lp49
(lp50
g29
ag29
aasg40
Nsg41
Nsg42
I00
sg43
Nsg44
I00
sba(iwrapper_utilities.class_data
CppClass
p51
(dp52
g4
Nsg5
(dp53
g7
g8
sg9
g10
sg11
g12
sg13
g14
sg15
g16
sg17
g18
sg19
g20
sS'*'
g21
sg22
g23
sg24
g23
sg25
g26
sg27
g23
ssg28
S'std::set'
p54
sg30
I00
sg31
I00
sg32
Nsg33
g34
sg35
I00
sg36
I00
sg37
I01
sg38
Nsg39
(lp55
(lp56
g22
aasg40
Nsg41
Nsg42
I00
sg43
Nsg44
I00
sba(iwrapper_utilities.class_data
CppClass
p57
(dp58
g4
Nsg5
(dp59
g7
g8
sg9
g10
sg11
g12
sg13
g14
sg15
g16
sg17
g18
sg19
g20
sS'*'
g21
sg22
g23
sg24
g23
sg25
g26
sg27
g23
ssg28
S'std::vector'
p60
sg30
I00
sg31
I00
sg32
Nsg33
g34
sg35
I00
sg36
I00
sg37
I01
sg38
Nsg39
(lp61
(lp62
g25
aa(lp63
g22
aa(lp64
S'bool'
p65
aa(lp66
g29
aa(lp67
S'c_vector<double,3>'
p68
aa(lp69
S'c_vector<double,2>'
p70
aa(lp71
S'c_vector<unsigned,5>'
p72
aa(lp73
S'std::set<unsigned int>'
p74
aa(lp75
S'std::vector<unsigned int>'
p76
aasg40
Nsg41
Nsg42
I00
sg43
Nsg44
I00
sba(iwrapper_utilities.class_data
CppClass
p77
(dp78
g4
Nsg5
(dp79
g7
g8
sg9
g10
sg11
g12
sg13
g14
sg15
g16
sg17
g18
sg19
g20
sS'*'
g21
sg22
g23
sg24
g23
sg25
g26
sg27
g23
ssg28
g9
sg30
I00
sg31
I00
sg32
Nsg33
g34
sg35
I00
sg36
I00
sg37
I01
sg38
Nsg39
(lp80
(lp81
g25
aI2
aa(lp82
g25
aI3
aa(lp83
g22
aI5
aasg40
Nsg41
Nsg42
I00
sg43
Nsg44
I00
sba(iwrapper_utilities.class_data
CppClass
p84
(dp85
g4
Nsg5
(dp86
g7
g8
sg9
g10
sg11
g12
sg13
g14
sg15
g16
sg17
g18
sg19
g20
sS'*'
g21
sg22
g23
sg24
g23
sg25
g26
sg27
g23
ssg28
S'BoostFilesystem'
p87
sg30
I00
sg31
I00
sg32
Nsg33
S'core'
p88
sg35
I01
sg36
I01
sg37
I00
sg38
Nsg39
Nsg40
Nsg41
Nsg42
I00
sg43
S'/home/grogan/Chaste/global/src/BoostFilesystem.hpp'
p89
sg44
I01
sba(iwrapper_utilities.class_data
CppClass
p90
(dp91
g4
Nsg5
(dp92
g7
g8
sg9
g10
sg11
g12
sg13
g14
sg15
g16
sg17
g18
sg19
g20
sS'*'
g21
sg22
g23
sg24
g23
sg25
g26
sg27
g23
ssg28
S'RelativeTo'
p93
sg30
I00
sg31
I00
sg32
Nsg33
g88
sg35
I00
sg36
I01
sg37
I00
sg38
Nsg39
Nsg40
Nsg41
Nsg42
I00
sg43
Nsg44
I00
sba(iwrapper_utilities.class_data
CppClass
p94
(dp95
g4
Nsg5
(dp96
g7
g8
sg9
g10
sg11
g12
sg13
g14
sg15
g16
sg17
g18
sg19
g20
sS'*'
g21
sg22
g23
sg24
g23
sg25
g26
sg27
g23
ssg28
S'FileFinder'
p97
sg30
I00
sg31
I00
sg32
Nsg33
g88
sg35
I01
sg36
I01
sg37
I00
sg38
Nsg39
Nsg40
Nsg41
Nsg42
I00
sg43
S'/home/grogan/Chaste/global/src/FileFinder.hpp'
p98
sg44
I00
sba(iwrapper_utilities.class_data
CppClass
p99
(dp100
g4
Nsg5
(dp101
g7
g8
sg9
g10
sg11
g12
sg13
g14
sg15
g16
sg17
g18
sg19
g20
sS'*'
g21
sg22
g23
sg24
g23
sg25
g26
sg27
g23
ssg28
S'OutputFileHandler'
p102
sg30
I00
sg31
I00
sg32
Nsg33
g88
sg35
I01
sg36
I01
sg37
I00
sg38
Nsg39
Nsg40
(lp103
S'OpenOutputFile'
p104
asg41
Nsg42
I00
sg43
S'/home/grogan/Chaste/global/src/OutputFileHandler.hpp'
p105
sg44
I00
sba(iwrapper_utilities.class_data
CppClass
p106
(dp107
g4
Nsg5
(dp108
g7
g8
sg9
g10
sg11
g12
sg13
g14
sg15
g16
sg17
g18
sg19
g20
sS'*'
g21
sg22
g23
sg24
g23
sg25
g26
sg27
g23
ssg28
S'ProgressReporter'
p109
sg30
I00
sg31
I00
sg32
Nsg33
g88
sg35
I01
sg36
I01
sg37
I00
sg38
Nsg39
Nsg40
Nsg41
Nsg42
I00
sg43
S'/home/grogan/Chaste/global/src/ProgressReporter.hpp'
p110
sg44
I00
sba(iwrapper_utilities.class_data
CppClass
p111
(dp112
g4
Nsg5
(dp113
g7
g8
sg9
g10
sg11
g12
sg13
g14
sg15
g16
sg17
g18
sg19
g20
sS'*'
g21
sg22
g23
sg24
g23
sg25
g26
sg27
g23
ssg28
S'RandomNumberGenerator'
p114
sg30
I00
sg31
I00
sg32
Nsg33
g88
sg35
I01
sg36
I01
sg37
I00
sg38
Nsg39
Nsg40
Nsg41
Nsg42
I00
sg43
S'/home/grogan/Chaste/global/src/RandomNumberGenerator.hpp'
p115
sg44
I00
sba(iwrapper_utilities.class_data
CppClass
p116
(dp117
g4
Nsg5
(dp118
g7
g8
sg9
g10
sg11
g12
sg13
g14
sg15
g16
sg17
g18
sg19
g20
sS'*'
g21
sg22
g23
sg24
g23
sg25
g26
sg27
g23
ssg28
S'SmartPointers'
p119
sg30
I00
sg31
I00
sg32
Nsg33
g88
sg35
I01
sg36
I01
sg37
I00
sg38
Nsg39
Nsg40
Nsg41
Nsg42
I00
sg43
S'/home/grogan/Chaste/global/src/SmartPointers.hpp'
p120
sg44
I01
sba(iwrapper_utilities.class_data
CppClass
p121
(dp122
g4
Nsg5
(dp123
g7
g8
sg9
g10
sg11
g12
sg13
g14
sg15
g16
sg17
g18
sg19
g20
sS'*'
g21
sg22
g23
sg24
g23
sg25
g26
sg27
g23
ssg28
S'TimeStepper'
p124
sg30
I00
sg31
I00
sg32
Nsg33
g88
sg35
I01
sg36
I01
sg37
I00
sg38
Nsg39
Nsg40
Nsg41
Nsg42
I00
sg43
S'/home/grogan/Chaste/global/src/TimeStepper.hpp'
p125
sg44
I00
sba(iwrapper_utilities.class_data
CppClass
p126
(dp127
g4
Nsg5
(dp128
g7
g8
sg9
g10
sg11
g12
sg13
g14
sg15
g16
sg17
g18
sg19
g20
sS'*'
g21
sg22
g23
sg24
g23
sg25
g26
sg27
g23
ssg28
S'Version'
p129
sg30
I00
sg31
I00
sg32
Nsg33
g88
sg35
I01
sg36
I01
sg37
I00
sg38
Nsg39
Nsg40
Nsg41
Nsg42
I00
sg43
S'/home/grogan/Chaste/global/src/Version.hpp'
p130
sg44
I01
sba(iwrapper_utilities.class_data
CppClass
p131
(dp132
g4
(lp133
(lp134
S'GetBuildInformation'
p135
aS''
aa(lp136
S'GetBuildTime'
p137
aS''
aa(lp138
S'GetBuilderUnameInfo'
p139
aS''
aa(lp140
S'GetCompilerFlags'
p141
aS''
aa(lp142
S'GetCompilerType'
p143
aS''
aa(lp144
S'GetCompilerVersion'
p145
aS''
aa(lp146
S'GetCurrentTime'
p147
aS''
aa(lp148
S'GetRootDir'
p149
aS''
aa(lp150
S'GetXsdVersion'
p151
aS''
aasg5
(dp152
g7
g8
sg9
g10
sg11
g12
sg13
g14
sg15
g16
sg17
g18
sg19
g20
sS'*'
g21
sg22
g23
sg24
g23
sg25
g26
sg27
g23
ssg28
S'ChasteBuildInfo'
p153
sg30
I00
sg31
I00
sg32
Nsg33
g88
sg35
I00
sg36
I01
sg37
I00
sg38
Nsg39
Nsg40
Nsg41
Nsg42
I00
sg43
Nsg44
I00
sba(iwrapper_utilities.class_data
CppClass
p154
(dp155
g4
Nsg5
(dp156
g7
g8
sg9
g10
sg11
g12
sg13
g14
sg15
g16
sg17
g18
sg19
g20
sS'*'
g21
sg22
g23
sg24
g23
sg25
g26
sg27
g23
ssg28
S'Identifiable'
p157
sg30
I00
sg31
I00
sg32
Nsg33
g88
sg35
I01
sg36
I01
sg37
I00
sg38
Nsg39
Nsg40
Nsg41
Nsg42
I00
sg43
S'/home/grogan/Chaste/global/src/checkpointing/Identifiable.hpp'
p158
sg44
I01
sba(iwrapper_utilities.class_data
CppClass
p159
(dp160
g4
Nsg5
(dp161
g7
g8
sg9
g10
sg11
g12
sg13
g14
sg15
g16
sg17
g18
sg19
g20
sS'*'
g21
sg22
g23
sg24
g23
sg25
g26
sg27
g23
ssg28
S'PetscTools'
p162
sg30
I00
sg31
I00
sg32
Nsg33
g88
sg35
I01
sg36
I01
sg37
I00
sg38
(lp163
S'MASTER_RANK'
p164
asg39
Nsg40
(lp165
S'GetWorld'
p166
asg41
Nsg42
I00
sg43
S'/home/grogan/Chaste/global/src/parallel/PetscTools.hpp'
p167
sg44
I00
sba(iwrapper_utilities.class_data
CppClass
p168
(dp169
g4
Nsg5
(dp170
g7
g8
sg9
g10
sg11
g12
sg13
g14
sg15
g16
sg17
g18
sg19
g20
sS'*'
g21
sg22
g23
sg24
g23
sg25
g26
sg27
g23
ssg28
S'ReplicatableVector'
p171
sg30
I00
sg31
I00
sg32
Nsg33
g88
sg35
I01
sg36
I01
sg37
I00
sg38
Nsg39
Nsg40
Nsg41
Nsg42
I00
sg43
S'/home/grogan/Chaste/global/src/parallel/ReplicatableVector.hpp'
p172
sg44
I00
sba(iwrapper_utilities.class_data
CppClass
p173
(dp174
g4
Nsg5
(dp175
g7
g8
sg9
g10
sg11
g12
sg13
g14
sg15
g16
sg17
g18
sg19
g20
sS'*'
g21
sg22
g23
sg24
g23
sg25
g26
sg27
g23
ssg28
S'Timer'
p176
sg30
I00
sg31
I00
sg32
Nsg33
g88
sg35
I01
sg36
I01
sg37
I00
sg38
Nsg39
Nsg40
Nsg41
Nsg42
I00
sg43
S'/home/grogan/Chaste/global/src/timing/Timer.hpp'
p177
sg44
I00
sba(iwrapper_utilities.class_data
CppClass
p178
(dp179
g4
Nsg5
(dp180
g7
g8
sg9
g10
sg11
g12
sg13
g14
sg15
g16
sg17
g18
sg19
g20
sS'*'
g21
sg22
g23
sg24
g23
sg25
g26
sg27
g23
ssg28
S'UblasIncludes'
p181
sg30
I00
sg31
I00
sg32
Nsg33
g88
sg35
I01
sg36
I01
sg37
I00
sg38
Nsg39
Nsg40
Nsg41
Nsg42
I00
sg43
S'/home/grogan/Chaste/linalg/src/UblasIncludes.hpp'
p182
sg44
I01
sba(iwrapper_utilities.class_data
CppClass
p183
(dp184
g4
Nsg5
(dp185
g7
g8
sg9
g10
sg11
g12
sg13
g14
sg15
g16
sg17
g18
sg19
g20
sS'*'
g21
sg22
g23
sg24
g23
sg25
g26
sg27
g23
ssg28
S'AbstractOdeSystemInformation'
p186
sg30
I00
sg31
I00
sg32
Nsg33
S'ode'
p187
sg35
I01
sg36
I01
sg37
I00
sg38
Nsg39
Nsg40
Nsg41
Nsg42
I00
sg43
S'/home/grogan/Chaste/ode/src/common/AbstractOdeSystemInformation.hpp'
p188
sg44
I00
sba(iwrapper_utilities.class_data
CppClass
p189
(dp190
g4
Nsg5
(dp191
g7
g8
sg9
g10
sg11
g12
sg13
g14
sg15
g16
sg17
g18
sg19
g20
sS'*'
g21
sg22
g23
sg24
g23
sg25
g26
sg27
g23
ssg28
S'AbstractPythonOdeSystemInformation'
p192
sg30
I00
sg31
I00
sg32
Nsg33
g187
sg35
I01
sg36
I01
sg37
I00
sg38
Nsg39
Nsg40
Nsg41
Nsg42
I00
sg43
S'/home/grogan/Chaste/projects/PyChaste/src/ode/AbstractPythonOdeSystemInformation.hpp'
p193
sg44
I00
sba(iwrapper_utilities.class_data
CppClass
p194
(dp195
g4
Nsg5
(dp196
g7
g8
sg9
g10
sg11
g12
sg13
g14
sg15
g16
sg17
g18
sg19
g20
sS'*'
g21
sg22
g23
sg24
g23
sg25
g26
sg27
g23
ssg28
S'AbstractOdeSystem'
p197
sg30
I00
sg31
I00
sg32
Nsg33
g187
sg35
I01
sg36
I01
sg37
I00
sg38
Nsg39
Nsg40
Nsg41
Nsg42
I00
sg43
S'/home/grogan/Chaste/ode/src/common/AbstractOdeSystem.hpp'
p198
sg44
I00
sba(iwrapper_utilities.class_data
CppClass
p199
(dp200
g4
Nsg5
(dp201
g7
g8
sg9
g10
sg11
g12
sg13
g14
sg15
g16
sg17
g18
sg19
g20
sS'*'
g21
sg22
g23
sg24
g23
sg25
g26
sg27
g23
ssg28
S'AbstractLinearPde'
p202
sg30
I00
sg31
I00
sg32
Nsg33
Nsg35
I01
sg36
I01
sg37
I00
sg38
Nsg39
Nsg40
Nsg41
Nsg42
I00
sg43
Nsg44
I00
sba(iwrapper_utilities.class_data
CppClass
p203
(dp204
g4
Nsg5
(dp205
g7
g8
sg9
g10
sg11
g12
sg13
g14
sg15
g16
sg17
g18
sg19
g20
sS'*'
g21
sg22
g23
sg24
g23
sg25
g26
sg27
g23
ssg28
S'AbstractLinearParabolicPde'
p206
sg30
I00
sg31
I00
sg32
Nsg33
Nsg35
I01
sg36
I01
sg37
I00
sg38
Nsg39
Nsg40
Nsg41
Nsg42
I00
sg43
Nsg44
I00
sba(iwrapper_utilities.class_data
CppClass
p207
(dp208
g4
Nsg5
(dp209
g7
g8
sg9
g10
sg11
g12
sg13
g14
sg15
g16
sg17
g18
sg19
g20
sS'*'
g21
sg22
g23
sg24
g23
sg25
g26
sg27
g23
ssg28
S'AbstractLinearEllipticPde'
p210
sg30
I00
sg31
I00
sg32
Nsg33
Nsg35
I01
sg36
I01
sg37
I00
sg38
Nsg39
Nsg40
Nsg41
Nsg42
I00
sg43
Nsg44
I00
sba(iwrapper_utilities.class_data
CppClass
p211
(dp212
g4
Nsg5
(dp213
g7
g8
sg9
g10
sg11
g12
sg13
g14
sg15
g16
sg17
g18
sg19
g20
sS'*'
g21
sg22
g23
sg24
g23
sg25
g26
sg27
g23
ssg28
S'AbstractNonlinearEllipticPde'
p214
sg30
I00
sg31
I00
sg32
Nsg33
S'pde'
p215
sg35
I01
sg36
I01
sg37
I00
sg38
Nsg39
(lp216
(lp217
I2
aa(lp218
I3
aasg40
Nsg41
Nsg42
I00
sg43
S'/home/grogan/Chaste/pde/src/problem/AbstractNonlinearEllipticPde.hpp'
p219
sg44
I00
sba(iwrapper_utilities.class_data
CppClass
p220
(dp221
g4
Nsg5
(dp222
g7
g8
sg9
g10
sg11
g12
sg13
g14
sg15
g16
sg17
g18
sg19
g20
sS'*'
g21
sg22
g23
sg24
g23
sg25
g26
sg27
g23
ssg28
S'AbstractBoundaryCondition'
p223
sg30
I00
sg31
I00
sg32
Nsg33
g215
sg35
I01
sg36
I01
sg37
I00
sg38
Nsg39
g216
sg40
Nsg41
Nsg42
I00
sg43
S'/home/grogan/Chaste/pde/src/common/AbstractBoundaryCondition.hpp'
p224
sg44
I00
sba(iwrapper_utilities.class_data
CppClass
p225
(dp226
g4
Nsg5
(dp227
g7
g8
sg9
g10
sg11
g12
sg13
g14
sg15
g16
sg17
g18
sg19
g20
sS'*'
g21
sg22
g23
sg24
g23
sg25
g26
sg27
g23
ssg28
S'ConstBoundaryCondition'
p228
sg30
I00
sg31
I00
sg32
Nsg33
g215
sg35
I01
sg36
I01
sg37
I00
sg38
Nsg39
g216
sg40
Nsg41
Nsg42
I00
sg43
S'/home/grogan/Chaste/pde/src/common/ConstBoundaryCondition.hpp'
p229
sg44
I00
sba(iwrapper_utilities.class_data
CppClass
p230
(dp231
g4
Nsg5
(dp232
g7
g8
sg9
g10
sg11
g12
sg13
g14
sg15
g16
sg17
g18
sg19
g20
sS'*'
g21
sg22
g23
sg24
g23
sg25
g26
sg27
g23
ssg28
S'PdeSimulationTime'
p233
sg30
I00
sg31
I00
sg32
Nsg33
g215
sg35
I01
sg36
I01
sg37
I00
sg38
Nsg39
Nsg40
Nsg41
Nsg42
I00
sg43
S'/home/grogan/Chaste/pde/src/common/PdeSimulationTime.hpp'
p234
sg44
I00
sba(iwrapper_utilities.class_data
CppClass
p235
(dp236
g4
(lp237
(lp238
S'rGetLocation'
p239
aS'copy_const_reference'
p240
aasg5
(dp241
g7
g8
sg9
g10
sg11
g12
sg13
g14
sg15
g16
sg17
g18
sg19
g20
sS'*'
g21
sg22
g23
sg24
g23
sg25
g26
sg27
g23
ssg28
S'ChastePoint'
p242
sg30
I00
sg31
I00
sg32
Nsg33
S'mesh'
p243
sg35
I01
sg36
I01
sg37
I00
sg38
Nsg39
g216
sg40
Nsg41
Nsg42
I00
sg43
S'/home/grogan/Chaste/mesh/src/common/ChastePoint.hpp'
p244
sg44
I00
sba(iwrapper_utilities.class_data
CppClass
p245
(dp246
g4
Nsg5
(dp247
g7
g8
sg9
g10
sg11
g12
sg13
g14
sg15
g16
sg17
g18
sg19
g20
sS'*'
g21
sg22
g23
sg24
g23
sg25
g26
sg27
g23
ssg28
S'NodeAttributes'
p248
sg30
I00
sg31
I00
sg32
Nsg33
g243
sg35
I01
sg36
I01
sg37
I00
sg38
Nsg39
g216
sg40
Nsg41
Nsg42
I00
sg43
S'/home/grogan/Chaste/mesh/src/common/NodeAttributes.hpp'
p249
sg44
I00
sba(iwrapper_utilities.class_data
CppClass
p250
(dp251
g4
Nsg5
(dp252
g7
g8
sg9
g10
sg11
g12
sg13
g14
sg15
g16
sg17
g18
sg19
g20
sS'*'
g21
sg22
g23
sg24
g23
sg25
g26
sg27
g23
ssg28
S'Node'
p253
sg30
I00
sg31
I00
sg32
Nsg33
g243
sg35
I01
sg36
I01
sg37
I00
sg38
Nsg39
g216
sg40
Nsg41
Nsg42
I01
sg43
S'/home/grogan/Chaste/mesh/src/common/Node.hpp'
p254
sg44
I00
sba(iwrapper_utilities.class_data
CppClass
p255
(dp256
g4
Nsg5
(dp257
g7
g8
sg9
g10
sg11
g12
sg13
g14
sg15
g16
sg17
g18
sg19
g20
sS'*'
g21
sg22
g23
sg24
g23
sg25
g26
sg27
g23
ssg28
S'Element'
p258
sg30
I00
sg31
I00
sg32
Nsg33
g243
sg35
I01
sg36
I01
sg37
I00
sg38
Nsg39
(lp259
(lp260
I2
aI2
aa(lp261
I3
aI3
aasg40
(lp262
S'CalculateCircumsphereVolume'
p263
asg41
Nsg42
I01
sg43
S'/home/grogan/Chaste/mesh/src/common/Element.hpp'
p264
sg44
I00
sba(iwrapper_utilities.class_data
CppClass
p265
(dp266
g4
Nsg5
(dp267
g7
g8
sg9
g10
sg11
g12
sg13
g14
sg15
g16
sg17
g18
sg19
g20
sS'*'
g21
sg22
g23
sg24
g23
sg25
g26
sg27
g23
ssg28
S'NodesOnlyMesh'
p268
sg30
I00
sg31
I00
sg32
Nsg33
g243
sg35
I01
sg36
I01
sg37
I00
sg38
Nsg39
g216
sg40
Nsg41
Nsg42
I00
sg43
S'/home/grogan/Chaste/mesh/src/common/NodesOnlyMesh.hpp'
p269
sg44
I00
sba(iwrapper_utilities.class_data
CppClass
p270
(dp271
g4
Nsg5
(dp272
g7
g8
sg9
g10
sg11
g12
sg13
g14
sg15
g16
sg17
g18
sg19
g20
sS'*'
g21
sg22
g23
sg24
g23
sg25
g26
sg27
g23
ssg28
S'MutableMesh'
p273
sg30
I00
sg31
I00
sg32
Nsg33
g243
sg35
I01
sg36
I01
sg37
I00
sg38
Nsg39
g259
sg40
(lp274
S'SplitLongEdges'
p275
aS'RescaleMeshFromBoundaryNode'
p276
asg41
Nsg42
I00
sg43
S'/home/grogan/Chaste/mesh/src/common/MutableMesh.hpp'
p277
sg44
I00
sba(iwrapper_utilities.class_data
CppClass
p278
(dp279
g4
Nsg5
(dp280
g7
g8
sg9
g10
sg11
g12
sg13
g14
sg15
g16
sg17
g18
sg19
g20
sS'*'
g21
sg22
g23
sg24
g23
sg25
g26
sg27
g23
ssg28
S'PottsMesh'
p281
sg30
I00
sg31
I00
sg32
Nsg33
g243
sg35
I01
sg36
I01
sg37
I00
sg38
Nsg39
g216
sg40
Nsg41
Nsg42
I00
sg43
S'/home/grogan/Chaste/cell_based/src/mesh/PottsMesh.hpp'
p282
sg44
I00
sba(iwrapper_utilities.class_data
CppClass
p283
(dp284
g4
Nsg5
(dp285
g7
g8
sg9
g10
sg11
g12
sg13
g14
sg15
g16
sg17
g18
sg19
g20
sS'*'
g21
sg22
g23
sg24
g23
sg25
g26
sg27
g23
ssg28
S'SharedPottsMeshGenerator'
p286
sg30
I00
sg31
I00
sg32
Nsg33
g243
sg35
I01
sg36
I01
sg37
I00
sg38
Nsg39
g216
sg40
Nsg41
S'PottsMeshGenerator'
p287
sg42
I00
sg43
S'/home/grogan/Chaste/projects/PyChaste/src/mesh/SharedPottsMeshGenerator.hpp'
p288
sg44
I00
sba(iwrapper_utilities.class_data
CppClass
p289
(dp290
g4
Nsg5
(dp291
g7
g8
sg9
g10
sg11
g12
sg13
g14
sg15
g16
sg17
g18
sg19
g20
sS'*'
g21
sg22
g23
sg24
g23
sg25
g26
sg27
g23
ssg28
S'PottsElement'
p292
sg30
I00
sg31
I00
sg32
Nsg33
g243
sg35
I01
sg36
I01
sg37
I00
sg38
Nsg39
g216
sg40
Nsg41
Nsg42
I01
sg43
S'/home/grogan/Chaste/cell_based/src/mesh/PottsElement.hpp'
p293
sg44
I00
sba(iwrapper_utilities.class_data
CppClass
p294
(dp295
g4
Nsg5
(dp296
g7
g8
sg9
g10
sg11
g12
sg13
g14
sg15
g16
sg17
g18
sg19
g20
sS'*'
g21
sg22
g23
sg24
g23
sg25
g26
sg27
g23
ssg28
S'TetrahedralMesh'
p297
sg30
I00
sg31
I00
sg32
Nsg33
g243
sg35
I01
sg36
I01
sg37
I00
sg38
Nsg39
g259
sg40
(lp298
S'FreeTriangulateIo'
p299
aS'InitialiseTriangulateIo'
p300
asg41
Nsg42
I00
sg43
S'/home/grogan/Chaste/mesh/src/common/TetrahedralMesh.hpp'
p301
sg44
I00
sba(iwrapper_utilities.class_data
CppClass
p302
(dp303
g4
Nsg5
(dp304
g7
g8
sg9
g10
sg11
g12
sg13
g14
sg15
g16
sg17
g18
sg19
g20
sS'*'
g21
sg22
g23
sg24
g23
sg25
g26
sg27
g23
ssg28
S'AbstractTetrahedralMesh'
p305
sg30
I00
sg31
I00
sg32
Nsg33
g243
sg35
I01
sg36
I01
sg37
I00
sg38
Nsg39
g259
sg40
Nsg41
Nsg42
I00
sg43
S'/home/grogan/Chaste/mesh/src/common/AbstractTetrahedralMesh.hpp'
p306
sg44
I00
sba(iwrapper_utilities.class_data
CppClass
p307
(dp308
g4
Nsg5
(dp309
g7
g8
sg9
g10
sg11
g12
sg13
g14
sg15
g16
sg17
g18
sg19
g20
sS'*'
g21
sg22
g23
sg24
g23
sg25
g26
sg27
g23
ssg28
S'AbstractMesh'
p310
sg30
I00
sg31
I00
sg32
Nsg33
g243
sg35
I01
sg36
I01
sg37
I00
sg38
Nsg39
g259
sg40
Nsg41
Nsg42
I00
sg43
S'/home/grogan/Chaste/mesh/src/common/AbstractMesh.hpp'
p311
sg44
I00
sba(iwrapper_utilities.class_data
CppClass
p312
(dp313
g4
Nsg5
(dp314
g7
g8
sg9
g10
sg11
g12
sg13
g14
sg15
g16
sg17
g18
sg19
g20
sS'*'
g21
sg22
g23
sg24
g23
sg25
g26
sg27
g23
ssg28
S'VertexMesh'
p315
sg30
I00
sg31
I00
sg32
Nsg33
g243
sg35
I01
sg36
I01
sg37
I00
sg38
Nsg39
g259
sg40
(lp316
S'GetFace'
p317
asg41
Nsg42
I00
sg43
S'/home/grogan/Chaste/mesh/src/vertex/VertexMesh.hpp'
p318
sg44
I00
sba(iwrapper_utilities.class_data
CppClass
p319
(dp320
g4
Nsg5
(dp321
g7
g8
sg9
g10
sg11
g12
sg13
g14
sg15
g16
sg17
g18
sg19
g20
sS'*'
g21
sg22
g23
sg24
g23
sg25
g26
sg27
g23
ssg28
S'MutableVertexMesh'
p322
sg30
I00
sg31
I00
sg32
Nsg33
g243
sg35
I01
sg36
I01
sg37
I00
sg38
Nsg39
g259
sg40
Nsg41
Nsg42
I00
sg43
S'/home/grogan/Chaste/mesh/src/vertex/MutableVertexMesh.hpp'
p323
sg44
I00
sba(iwrapper_utilities.class_data
CppClass
p324
(dp325
g4
Nsg5
(dp326
g7
g8
sg9
g10
sg11
g12
sg13
g14
sg15
g16
sg17
g18
sg19
g20
sS'*'
g21
sg22
g23
sg24
g23
sg25
g26
sg27
g23
ssg28
S'Cylindrical2dVertexMesh'
p327
sg30
I00
sg31
I00
sg32
Nsg33
g243
sg35
I01
sg36
I01
sg37
I00
sg38
Nsg39
Nsg40
Nsg41
Nsg42
I00
sg43
S'/home/grogan/Chaste/mesh/src/vertex/Cylindrical2dVertexMesh.hpp'
p328
sg44
I00
sba(iwrapper_utilities.class_data
CppClass
p329
(dp330
g4
Nsg5
(dp331
g7
g8
sg9
g10
sg11
g12
sg13
g14
sg15
g16
sg17
g18
sg19
g20
sS'*'
g21
sg22
g23
sg24
g23
sg25
g26
sg27
g23
ssg28
S'SharedHoneycombMeshGenerator'
p332
sg30
I00
sg31
I00
sg32
Nsg33
g243
sg35
I01
sg36
I01
sg37
I00
sg38
Nsg39
Nsg40
Nsg41
S'HoneycombMeshGenerator'
p333
sg42
I00
sg43
S'/home/grogan/Chaste/projects/PyChaste/src/mesh/SharedHoneycombMeshGenerator.hpp'
p334
sg44
I00
sba(iwrapper_utilities.class_data
CppClass
p335
(dp336
g4
Nsg5
(dp337
g7
g8
sg9
g10
sg11
g12
sg13
g14
sg15
g16
sg17
g18
sg19
g20
sS'*'
g21
sg22
g23
sg24
g23
sg25
g26
sg27
g23
ssg28
S'SharedHoneycombVertexMeshGenerator'
p338
sg30
I00
sg31
I00
sg32
Nsg33
g243
sg35
I01
sg36
I01
sg37
I00
sg38
Nsg39
Nsg40
Nsg41
S'HoneycombVertexMeshGenerator'
p339
sg42
I00
sg43
S'/home/grogan/Chaste/projects/PyChaste/src/mesh/SharedHoneycombVertexMeshGenerator.hpp'
p340
sg44
I00
sba(iwrapper_utilities.class_data
CppClass
p341
(dp342
g4
Nsg5
(dp343
g7
g8
sg9
g10
sg11
g12
sg13
g14
sg15
g16
sg17
g18
sg19
g20
sS'*'
g21
sg22
g23
sg24
g23
sg25
g26
sg27
g23
ssg28
S'SharedCylindricalHoneycombVertexMeshGenerator'
p344
sg30
I00
sg31
I00
sg32
Nsg33
g243
sg35
I01
sg36
I01
sg37
I00
sg38
Nsg39
Nsg40
Nsg41
S'CylindricalHoneycombVertexMeshGenerator'
p345
sg42
I00
sg43
S'/home/grogan/Chaste/projects/PyChaste/src/mesh/SharedCylindricalHoneycombVertexMeshGenerator.hpp'
p346
sg44
I00
sba(iwrapper_utilities.class_data
CppClass
p347
(dp348
g4
Nsg5
(dp349
g7
g8
sg9
g10
sg11
g12
sg13
g14
sg15
g16
sg17
g18
sg19
g20
sS'*'
g21
sg22
g23
sg24
g23
sg25
g26
sg27
g23
ssg28
S'std::pair'
p350
sg30
I00
sg31
I00
sg32
Nsg33
Nsg35
I00
sg36
I00
sg37
I01
sg38
Nsg39
(lp351
(lp352
S'Node3Ptr, Node3Ptr'
p353
aa(lp354
S'Node2Ptr, Node2Ptr'
p355
aasg40
Nsg41
Nsg42
I00
sg43
Nsg44
I00
sba(iwrapper_utilities.class_data
CppClass
p356
(dp357
g4
Nsg5
(dp358
g7
g8
sg9
g10
sg11
g12
sg13
g14
sg15
g16
sg17
g18
sg19
g20
sS'*'
g21
sg22
g23
sg24
g23
sg25
g26
sg27
g23
ssg28
g60
sg30
I00
sg31
I00
sg32
Nsg33
Nsg35
I00
sg36
I00
sg37
I01
sg38
Nsg39
(lp359
(lp360
S'PairNode3PtrNode3Ptr'
p361
aa(lp362
S'PairNode2PtrNode2Ptr'
p363
aa(lp364
S'VertexElement<1,2>*'
p365
aa(lp366
S'VertexElement<2,2>*'
p367
aa(lp368
S'VertexElement<2,3>*'
p369
aa(lp370
S'VertexElement<3,3>*'
p371
aasg40
Nsg41
Nsg42
I00
sg43
Nsg44
I00
sba(iwrapper_utilities.class_data
CppClass
p372
(dp373
g4
Nsg5
(dp374
g7
g8
sg9
g10
sg11
g12
sg13
g14
sg15
g16
sg17
g18
sg19
g20
sS'*'
g21
sg22
g23
sg24
g23
sg25
g26
sg27
g23
ssg28
g54
sg30
I00
sg31
I00
sg32
Nsg33
S'cell_based'
p375
sg35
I00
sg36
I00
sg37
I01
sg38
Nsg39
(lp376
(lp377
S'CellPtr'
p378
aasg40
Nsg41
Nsg42
I00
sg43
Nsg44
I00
sba(iwrapper_utilities.class_data
CppClass
p379
(dp380
g4
Nsg5
(dp381
g7
g8
sg9
g10
sg11
g12
sg13
g14
sg15
g16
sg17
g18
sg19
g20
sS'*'
g21
sg22
g23
sg24
g23
sg25
g26
sg27
g23
ssg28
g48
sg30
I00
sg31
I00
sg32
Nsg33
g375
sg35
I00
sg36
I00
sg37
I01
sg38
Nsg39
(lp382
(lp383
S'Node2Ptr, c_vector<double, 2> '
p384
aa(lp385
S'Node3Ptr, c_vector<double, 3> '
p386
aa(lp387
S'CellPtr, unsigned'
p388
aasg40
Nsg41
Nsg42
I00
sg43
Nsg44
I00
sba(iwrapper_utilities.class_data
CppClass
p389
(dp390
g4
Nsg5
(dp391
g7
g8
sg9
g10
sg11
g12
sg13
g14
sg15
g16
sg17
g18
sg19
g20
sS'*'
g21
sg22
g23
sg24
g23
sg25
g26
sg27
g23
ssg28
S'AbstractCellBasedSimulation'
p392
sg30
I00
sg31
I00
sg32
Nsg33
g375
sg35
I01
sg36
I01
sg37
I00
sg38
Nsg39
g259
sg40
(lp393
S'GetSimulationModifiers'
p394
asg41
Nsg42
I00
sg43
S'/home/grogan/Chaste/cell_based/src/simulation/AbstractCellBasedSimulation.hpp'
p395
sg44
I00
sba(iwrapper_utilities.class_data
CppClass
p396
(dp397
g4
Nsg5
(dp398
g7
g8
sg9
g10
sg11
g12
sg13
g14
sg15
g16
sg17
g18
sg19
g20
sS'*'
g21
sg22
g23
sg24
g23
sg25
g26
sg27
g23
ssg28
S'SimulationTime'
p399
sg30
I00
sg31
I00
sg32
Nsg33
g375
sg35
I01
sg36
I01
sg37
I00
sg38
Nsg39
Nsg40
Nsg41
Nsg42
I00
sg43
S'/home/grogan/Chaste/cell_based/src/common/SimulationTime.hpp'
p400
sg44
I00
sba(iwrapper_utilities.class_data
CppClass
p401
(dp402
g4
Nsg5
(dp403
g7
g8
sg9
g10
sg11
g12
sg13
g14
sg15
g16
sg17
g18
sg19
g20
sS'*'
g21
sg22
g23
sg24
g23
sg25
g26
sg27
g23
ssg28
S'OnLatticeSimulation'
p404
sg30
I00
sg31
I00
sg32
Nsg33
g375
sg35
I01
sg36
I01
sg37
I00
sg38
Nsg39
g216
sg40
Nsg41
Nsg42
I00
sg43
S'/home/grogan/Chaste/cell_based/src/simulation/OnLatticeSimulation.hpp'
p405
sg44
I00
sba(iwrapper_utilities.class_data
CppClass
p406
(dp407
g4
Nsg5
(dp408
g7
g8
sg9
g10
sg11
g12
sg13
g14
sg15
g16
sg17
g18
sg19
g20
sS'*'
g21
sg22
g23
sg24
g23
sg25
g26
sg27
g23
ssg28
S'OffLatticeSimulation'
p409
sg30
I00
sg31
I00
sg32
Nsg33
g375
sg35
I01
sg36
I01
sg37
I00
sg38
Nsg39
g259
sg40
Nsg41
Nsg42
I00
sg43
S'/home/grogan/Chaste/cell_based/src/simulation/OffLatticeSimulation.hpp'
p410
sg44
I00
sba(iwrapper_utilities.class_data
CppClass
p411
(dp412
g4
Nsg5
(dp413
g7
g8
sg9
g10
sg11
g12
sg13
g14
sg15
g16
sg17
g18
sg19
g20
sS'*'
g21
sg22
g23
sg24
g23
sg25
g26
sg27
g23
ssg28
S'AbstractCellPopulation'
p414
sg30
I00
sg31
I00
sg32
Nsg33
g375
sg35
I01
sg36
I01
sg37
I00
sg38
Nsg39
g259
sg40
(lp415
S'rGetCells'
p416
asg41
Nsg42
I00
sg43
S'/home/grogan/Chaste/cell_based/src/population/AbstractCellPopulation.hpp'
p417
sg44
I00
sba(iwrapper_utilities.class_data
CppClass
p418
(dp419
g4
Nsg5
(dp420
g7
g8
sg9
g10
sg11
g12
sg13
g14
sg15
g16
sg17
g18
sg19
g20
sS'*'
g21
sg22
g23
sg24
g23
sg25
g26
sg27
g23
ssg28
S'AbstractOnLatticeCellPopulation'
p421
sg30
I00
sg31
I00
sg32
Nsg33
g375
sg35
I01
sg36
I01
sg37
I00
sg38
Nsg39
g216
sg40
Nsg41
Nsg42
I00
sg43
S'/home/grogan/Chaste/cell_based/src/population/AbstractOnLatticeCellPopulation.hpp'
p422
sg44
I00
sba(iwrapper_utilities.class_data
CppClass
p423
(dp424
g4
Nsg5
(dp425
g7
g8
sg9
g10
sg11
g12
sg13
g14
sg15
g16
sg17
g18
sg19
g20
sS'*'
g21
sg22
g23
sg24
g23
sg25
g26
sg27
g23
ssg28
S'AbstractCentreBasedCellPopulation'
p426
sg30
I00
sg31
I00
sg32
Nsg33
g375
sg35
I01
sg36
I01
sg37
I00
sg38
Nsg39
g259
sg40
(lp427
S'GetNodeCorrespondingToCell'
p428
asg41
Nsg42
I00
sg43
S'/home/grogan/Chaste/cell_based/src/population/AbstractCentreBasedCellPopulation.hpp'
p429
sg44
I00
sba(iwrapper_utilities.class_data
CppClass
p430
(dp431
g4
Nsg5
(dp432
g7
g8
sg9
g10
sg11
g12
sg13
g14
sg15
g16
sg17
g18
sg19
g20
sS'*'
g21
sg22
g23
sg24
g23
sg25
g26
sg27
g23
ssg28
S'AbstractOffLatticeCellPopulation'
p433
sg30
I00
sg31
I00
sg32
Nsg33
g375
sg35
I01
sg36
I01
sg37
I00
sg38
Nsg39
g259
sg40
Nsg41
Nsg42
I00
sg43
S'/home/grogan/Chaste/cell_based/src/population/AbstractOffLatticeCellPopulation.hpp'
p434
sg44
I00
sba(iwrapper_utilities.class_data
CppClass
p435
(dp436
g4
Nsg5
(dp437
g7
g8
sg9
g10
sg11
g12
sg13
g14
sg15
g16
sg17
g18
sg19
g20
sS'*'
g21
sg22
g23
sg24
g23
sg25
g26
sg27
g23
ssg28
S'CaBasedCellPopulation'
p438
sg30
I00
sg31
I00
sg32
Nsg33
g375
sg35
I01
sg36
I01
sg37
I00
sg38
Nsg39
g216
sg40
(lp439
S'rGetMesh'
p440
aS'GetTetrahedralMeshForPdeModifierGetNodeCorrespondingToCell'
p441
aS'rGetAvailableSpaces'
p442
asg41
Nsg42
I00
sg43
S'/home/grogan/Chaste/cell_based/src/population/CaBasedCellPopulation.hpp'
p443
sg44
I00
sba(iwrapper_utilities.class_data
CppClass
p444
(dp445
g4
Nsg5
(dp446
g7
g8
sg9
g10
sg11
g12
sg13
g14
sg15
g16
sg17
g18
sg19
g20
sS'*'
g21
sg22
g23
sg24
g23
sg25
g26
sg27
g23
ssg28
S'MeshBasedCellPopulation'
p447
sg30
I00
sg31
I00
sg32
Nsg33
g375
sg35
I01
sg36
I01
sg37
I00
sg38
Nsg39
g259
sg40
(lp448
S'GetVoronoiTessellation, rGetNodePairs, GetTetrahedralMeshForPdeModifier'
p449
ag440
asg41
Nsg42
I00
sg43
S'/home/grogan/Chaste/cell_based/src/population/MeshBasedCellPopulation.hpp'
p450
sg44
I00
sba(iwrapper_utilities.class_data
CppClass
p451
(dp452
g4
Nsg5
(dp453
g7
g8
sg9
g10
sg11
g12
sg13
g14
sg15
g16
sg17
g18
sg19
g20
sS'*'
g21
sg22
g23
sg24
g23
sg25
g26
sg27
g23
ssg28
S'MeshBasedCellPopulationWithGhostNodes'
p454
sg30
I00
sg31
I00
sg32
Nsg33
g375
sg35
I01
sg36
I01
sg37
I00
sg38
Nsg39
g216
sg40
Nsg41
Nsg42
I00
sg43
S'/home/grogan/Chaste/cell_based/src/population/MeshBasedCellPopulationWithGhostNodes.hpp'
p455
sg44
I00
sba(iwrapper_utilities.class_data
CppClass
p456
(dp457
g4
Nsg5
(dp458
g7
g8
sg9
g10
sg11
g12
sg13
g14
sg15
g16
sg17
g18
sg19
g20
sS'*'
g21
sg22
g23
sg24
g23
sg25
g26
sg27
g23
ssg28
S'VertexBasedCellPopulation'
p459
sg30
I00
sg31
I00
sg32
Nsg33
g375
sg35
I01
sg36
I01
sg37
I00
sg38
Nsg39
g216
sg40
(lp460
g440
aS'GetTetrahedralMeshForPdeModifier'
p461
aS'GetElement'
p462
aS'GetElementCorrespondingToCell'
p463
asg41
Nsg42
I00
sg43
S'/home/grogan/Chaste/cell_based/src/population/VertexBasedCellPopulation.hpp'
p464
sg44
I00
sba(iwrapper_utilities.class_data
CppClass
p465
(dp466
g4
Nsg5
(dp467
g7
g8
sg9
g10
sg11
g12
sg13
g14
sg15
g16
sg17
g18
sg19
g20
sS'*'
g21
sg22
g23
sg24
g23
sg25
g26
sg27
g23
ssg28
S'PottsBasedCellPopulation'
p468
sg30
I00
sg31
I00
sg32
Nsg33
g375
sg35
I01
sg36
I01
sg37
I00
sg38
Nsg39
g216
sg40
(lp469
g440
ag461
ag462
ag463
aS'GetElementTessellation'
p470
aS'GetMutableMesh'
p471
asg41
Nsg42
I00
sg43
S'/home/grogan/Chaste/cell_based/src/population/PottsBasedCellPopulation.hpp'
p472
sg44
I00
sba(iwrapper_utilities.class_data
CppClass
p473
(dp474
g4
Nsg5
(dp475
g7
g8
sg9
g10
sg11
g12
sg13
g14
sg15
g16
sg17
g18
sg19
g20
sS'*'
g21
sg22
g23
sg24
g23
sg25
g26
sg27
g23
ssg28
S'NodeBasedCellPopulation'
p476
sg30
I00
sg31
I00
sg32
Nsg33
g375
sg35
I01
sg36
I01
sg37
I00
sg38
Nsg39
g216
sg40
(lp477
g440
ag461
aS'rGetNodePairs'
p478
asg41
Nsg42
I00
sg43
S'/home/grogan/Chaste/cell_based/src/population/NodeBasedCellPopulation.hpp'
p479
sg44
I00
sba(iwrapper_utilities.class_data
CppClass
p480
(dp481
g4
Nsg5
(dp482
g7
g8
sg9
g10
sg11
g12
sg13
g14
sg15
g16
sg17
g18
sg19
g20
sS'*'
g21
sg22
g23
sg24
g23
sg25
g26
sg27
g23
ssg28
S'VoronoiDataWriter'
p483
sg30
I00
sg31
I00
sg32
Nsg33
g375
sg35
I01
sg36
I01
sg37
I00
sg38
Nsg39
g259
sg40
Nsg41
Nsg42
I00
sg43
S'/home/grogan/Chaste/cell_based/src/writers/population_writers/VoronoiDataWriter.hpp'
p484
sg44
I00
sba(iwrapper_utilities.class_data
CppClass
p485
(dp486
g4
Nsg5
(dp487
g7
g8
sg9
g10
sg11
g12
sg13
g14
sg15
g16
sg17
g18
sg19
g20
sS'*'
g21
sg22
g23
sg24
g23
sg25
g26
sg27
g23
ssg28
S'CellLabelWriter'
p488
sg30
I00
sg31
I00
sg32
Nsg33
g375
sg35
I01
sg36
I01
sg37
I00
sg38
Nsg39
g259
sg40
Nsg41
Nsg42
I00
sg43
S'/home/grogan/Chaste/cell_based/src/writers/cell_writers/CellLabelWriter.hpp'
p489
sg44
I00
sba(iwrapper_utilities.class_data
CppClass
p490
(dp491
g4
Nsg5
(dp492
g7
g8
sg9
g10
sg11
g12
sg13
g14
sg15
g16
sg17
g18
sg19
g20
sS'*'
g21
sg22
g23
sg24
g23
sg25
g26
sg27
g23
ssg28
S'AbstractCellPopulationBoundaryCondition'
p493
sg30
I00
sg31
I00
sg32
Nsg33
g375
sg35
I01
sg36
I01
sg37
I00
sg38
Nsg39
g259
sg40
Nsg41
Nsg42
I00
sg43
S'/home/grogan/Chaste/cell_based/src/population/boundary_conditions/AbstractCellPopulationBoundaryCondition.hpp'
p494
sg44
I00
sba(iwrapper_utilities.class_data
CppClass
p495
(dp496
g4
Nsg5
(dp497
g7
g8
sg9
g10
sg11
g12
sg13
g14
sg15
g16
sg17
g18
sg19
g20
sS'*'
g21
sg22
g23
sg24
g23
sg25
g26
sg27
g23
ssg28
S'PlaneBoundaryCondition'
p498
sg30
I00
sg31
I00
sg32
Nsg33
g375
sg35
I01
sg36
I01
sg37
I00
sg38
Nsg39
g259
sg40
Nsg41
Nsg42
I00
sg43
S'/home/grogan/Chaste/cell_based/src/population/boundary_conditions/PlaneBoundaryCondition.hpp'
p499
sg44
I00
sba(iwrapper_utilities.class_data
CppClass
p500
(dp501
g4
(lp502
(lp503
S'rGetNormalToPlane'
p504
ag240
aa(lp505
S'rGetPointOnPlane'
p506
ag240
aasg5
(dp507
g7
g8
sg9
g10
sg11
g12
sg13
g14
sg15
g16
sg17
g18
sg19
g20
sS'*'
g21
sg22
g23
sg24
g23
sg25
g26
sg27
g23
ssg28
S'AttractingPlaneBoundaryCondition'
p508
sg30
I00
sg31
I00
sg32
Nsg33
g375
sg35
I01
sg36
I01
sg37
I00
sg38
Nsg39
g259
sg40
Nsg41
Nsg42
I00
sg43
S'/home/grogan/Chaste/projects/PyChaste/src/cell_based/AttractingPlaneBoundaryCondition.hpp'
p509
sg44
I00
sba(iwrapper_utilities.class_data
CppClass
p510
(dp511
g4
Nsg5
(dp512
g7
g8
sg9
g10
sg11
g12
sg13
g14
sg15
g16
sg17
g18
sg19
g20
sS'*'
g21
sg22
g23
sg24
g23
sg25
g26
sg27
g23
ssg28
S'SphereGeometryBoundaryCondition'
p513
sg30
I00
sg31
I00
sg32
Nsg33
g375
sg35
I01
sg36
I01
sg37
I00
sg38
Nsg39
g216
sg40
Nsg41
Nsg42
I00
sg43
S'/home/grogan/Chaste/cell_based/src/population/boundary_conditions/SphereGeometryBoundaryCondition.hpp'
p514
sg44
I00
sba(iwrapper_utilities.class_data
CppClass
p515
(dp516
g4
Nsg5
(dp517
g7
g8
sg9
g10
sg11
g12
sg13
g14
sg15
g16
sg17
g18
sg19
g20
sS'*'
g21
sg22
g23
sg24
g23
sg25
g26
sg27
g23
ssg28
S'AbstractCellKiller'
p518
sg30
I00
sg31
I00
sg32
Nsg33
g375
sg35
I01
sg36
I01
sg37
I00
sg38
Nsg39
g216
sg40
Nsg41
Nsg42
I00
sg43
S'/home/grogan/Chaste/cell_based/src/population/killers/AbstractCellKiller.hpp'
p519
sg44
I00
sba(iwrapper_utilities.class_data
CppClass
p520
(dp521
g4
Nsg5
(dp522
g7
g8
sg9
g10
sg11
g12
sg13
g14
sg15
g16
sg17
g18
sg19
g20
sS'*'
g21
sg22
g23
sg24
g23
sg25
g26
sg27
g23
ssg28
S'PlaneBasedCellKiller'
p523
sg30
I00
sg31
I00
sg32
Nsg33
g375
sg35
I01
sg36
I01
sg37
I00
sg38
Nsg39
g216
sg40
Nsg41
Nsg42
I00
sg43
S'/home/grogan/Chaste/cell_based/src/population/killers/PlaneBasedCellKiller.hpp'
p524
sg44
I00
sba(iwrapper_utilities.class_data
CppClass
p525
(dp526
g4
Nsg5
(dp527
g7
g8
sg9
g10
sg11
g12
sg13
g14
sg15
g16
sg17
g18
sg19
g20
sS'*'
g21
sg22
g23
sg24
g23
sg25
g26
sg27
g23
ssg28
S'ApoptoticCellKiller'
p528
sg30
I00
sg31
I00
sg32
Nsg33
g375
sg35
I01
sg36
I01
sg37
I00
sg38
Nsg39
g216
sg40
Nsg41
Nsg42
I00
sg43
S'/home/grogan/Chaste/cell_based/src/population/killers/ApoptoticCellKiller.hpp'
p529
sg44
I00
sba(iwrapper_utilities.class_data
CppClass
p530
(dp531
g4
Nsg5
(dp532
g7
g8
sg9
g10
sg11
g12
sg13
g14
sg15
g16
sg17
g18
sg19
g20
sS'*'
g21
sg22
g23
sg24
g23
sg25
g26
sg27
g23
ssg28
S'AbstractForce'
p533
sg30
I00
sg31
I00
sg32
Nsg33
g375
sg35
I01
sg36
I01
sg37
I00
sg38
Nsg39
g259
sg40
Nsg41
Nsg42
I01
sg43
S'/home/grogan/Chaste/cell_based/src/population/forces/AbstractForce.hpp'
p534
sg44
I00
sba(iwrapper_utilities.class_data
CppClass
p535
(dp536
g4
Nsg5
(dp537
g7
g8
sg9
g10
sg11
g12
sg13
g14
sg15
g16
sg17
g18
sg19
g20
sS'*'
g21
sg22
g23
sg24
g23
sg25
g26
sg27
g23
ssg28
S'AbstractTwoBodyInteractionForce'
p538
sg30
I00
sg31
I00
sg32
Nsg33
g375
sg35
I01
sg36
I01
sg37
I00
sg38
Nsg39
g259
sg40
Nsg41
Nsg42
I00
sg43
S'/home/grogan/Chaste/cell_based/src/population/forces/AbstractTwoBodyInteractionForce.hpp'
p539
sg44
I00
sba(iwrapper_utilities.class_data
CppClass
p540
(dp541
g4
Nsg5
(dp542
g7
g8
sg9
g10
sg11
g12
sg13
g14
sg15
g16
sg17
g18
sg19
g20
sS'*'
g21
sg22
g23
sg24
g23
sg25
g26
sg27
g23
ssg28
S'GeneralisedLinearSpringForce'
p543
sg30
I00
sg31
I00
sg32
Nsg33
g375
sg35
I01
sg36
I01
sg37
I00
sg38
Nsg39
g259
sg40
Nsg41
Nsg42
I00
sg43
S'/home/grogan/Chaste/cell_based/src/population/forces/GeneralisedLinearSpringForce.hpp'
p544
sg44
I00
sba(iwrapper_utilities.class_data
CppClass
p545
(dp546
g4
Nsg5
(dp547
g7
g8
sg9
g10
sg11
g12
sg13
g14
sg15
g16
sg17
g18
sg19
g20
sS'*'
g21
sg22
g23
sg24
g23
sg25
g26
sg27
g23
ssg28
S'NagaiHondaForce'
p548
sg30
I00
sg31
I00
sg32
Nsg33
g375
sg35
I01
sg36
I01
sg37
I00
sg38
Nsg39
g216
sg40
Nsg41
Nsg42
I00
sg43
S'/home/grogan/Chaste/cell_based/src/population/forces/NagaiHondaForce.hpp'
p549
sg44
I00
sba(iwrapper_utilities.class_data
CppClass
p550
(dp551
g4
Nsg5
(dp552
g7
g8
sg9
g10
sg11
g12
sg13
g14
sg15
g16
sg17
g18
sg19
g20
sS'*'
g21
sg22
g23
sg24
g23
sg25
g26
sg27
g23
ssg28
S'AbstractVertexBasedDivisionRule'
p553
sg30
I00
sg31
I00
sg32
Nsg33
g375
sg35
I01
sg36
I01
sg37
I00
sg38
Nsg39
g216
sg40
Nsg41
Nsg42
I00
sg43
S'/home/grogan/Chaste/cell_based/src/population/division_rules/AbstractVertexBasedDivisionRule.hpp'
p554
sg44
I00
sba(iwrapper_utilities.class_data
CppClass
p555
(dp556
g4
Nsg5
(dp557
g7
g8
sg9
g10
sg11
g12
sg13
g14
sg15
g16
sg17
g18
sg19
g20
sS'*'
g21
sg22
g23
sg24
g23
sg25
g26
sg27
g23
ssg28
S'AbstractCaUpdateRule'
p558
sg30
I00
sg31
I00
sg32
Nsg33
g375
sg35
I01
sg36
I01
sg37
I00
sg38
Nsg39
g216
sg40
Nsg41
Nsg42
I00
sg43
S'/home/grogan/Chaste/cell_based/src/population/update_rules/AbstractCaUpdateRule.hpp'
p559
sg44
I00
sba(iwrapper_utilities.class_data
CppClass
p560
(dp561
g4
Nsg5
(dp562
g7
g8
sg9
g10
sg11
g12
sg13
g14
sg15
g16
sg17
g18
sg19
g20
sS'*'
g21
sg22
g23
sg24
g23
sg25
g26
sg27
g23
ssg28
S'AbstractUpdateRule'
p563
sg30
I00
sg31
I00
sg32
Nsg33
g375
sg35
I01
sg36
I01
sg37
I00
sg38
Nsg39
g216
sg40
Nsg41
Nsg42
I01
sg43
S'/home/grogan/Chaste/cell_based/src/population/update_rules/AbstractUpdateRule.hpp'
p564
sg44
I00
sba(iwrapper_utilities.class_data
CppClass
p565
(dp566
g4
Nsg5
(dp567
g7
g8
sg9
g10
sg11
g12
sg13
g14
sg15
g16
sg17
g18
sg19
g20
sS'*'
g21
sg22
g23
sg24
g23
sg25
g26
sg27
g23
ssg28
S'DiffusionCaUpdateRule'
p568
sg30
I00
sg31
I00
sg32
Nsg33
g375
sg35
I01
sg36
I01
sg37
I00
sg38
Nsg39
g216
sg40
Nsg41
Nsg42
I00
sg43
S'/home/grogan/Chaste/cell_based/src/population/update_rules/DiffusionCaUpdateRule.hpp'
p569
sg44
I00
sba(iwrapper_utilities.class_data
CppClass
p570
(dp571
g4
Nsg5
(dp572
g7
g8
sg9
g10
sg11
g12
sg13
g14
sg15
g16
sg17
g18
sg19
g20
sS'*'
g21
sg22
g23
sg24
g23
sg25
g26
sg27
g23
ssg28
S'AbstractPottsUpdateRule'
p573
sg30
I00
sg31
I00
sg32
Nsg33
g375
sg35
I01
sg36
I01
sg37
I00
sg38
Nsg39
g216
sg40
Nsg41
Nsg42
I00
sg43
S'/home/grogan/Chaste/cell_based/src/population/update_rules/AbstractPottsUpdateRule.hpp'
p574
sg44
I00
sba(iwrapper_utilities.class_data
CppClass
p575
(dp576
g4
Nsg5
(dp577
g7
g8
sg9
g10
sg11
g12
sg13
g14
sg15
g16
sg17
g18
sg19
g20
sS'*'
g21
sg22
g23
sg24
g23
sg25
g26
sg27
g23
ssg28
S'VolumeConstraintPottsUpdateRule'
p578
sg30
I00
sg31
I00
sg32
Nsg33
g375
sg35
I01
sg36
I01
sg37
I00
sg38
Nsg39
g216
sg40
Nsg41
Nsg42
I00
sg43
S'/home/grogan/Chaste/cell_based/src/population/update_rules/VolumeConstraintPottsUpdateRule.hpp'
p579
sg44
I00
sba(iwrapper_utilities.class_data
CppClass
p580
(dp581
g4
Nsg5
(dp582
g7
g8
sg9
g10
sg11
g12
sg13
g14
sg15
g16
sg17
g18
sg19
g20
sS'*'
g21
sg22
g23
sg24
g23
sg25
g26
sg27
g23
ssg28
S'SurfaceAreaConstraintPottsUpdateRule'
p583
sg30
I00
sg31
I00
sg32
Nsg33
g375
sg35
I01
sg36
I01
sg37
I00
sg38
Nsg39
g216
sg40
Nsg41
Nsg42
I00
sg43
S'/home/grogan/Chaste/cell_based/src/population/update_rules/SurfaceAreaConstraintPottsUpdateRule.hpp'
p584
sg44
I00
sba(iwrapper_utilities.class_data
CppClass
p585
(dp586
g4
Nsg5
(dp587
g7
g8
sg9
g10
sg11
g12
sg13
g14
sg15
g16
sg17
g18
sg19
g20
sS'*'
g21
sg22
g23
sg24
g23
sg25
g26
sg27
g23
ssg28
S'DifferentialAdhesionPottsUpdateRule'
p588
sg30
I00
sg31
I00
sg32
Nsg33
g375
sg35
I01
sg36
I01
sg37
I00
sg38
Nsg39
g216
sg40
Nsg41
Nsg42
I00
sg43
S'/home/grogan/Chaste/cell_based/src/population/update_rules/DifferentialAdhesionPottsUpdateRule.hpp'
p589
sg44
I00
sba(iwrapper_utilities.class_data
CppClass
p590
(dp591
g4
Nsg5
(dp592
g7
g8
sg9
g10
sg11
g12
sg13
g14
sg15
g16
sg17
g18
sg19
g20
sS'*'
g21
sg22
g23
sg24
g23
sg25
g26
sg27
g23
ssg28
S'AdhesionPottsUpdateRule'
p593
sg30
I00
sg31
I00
sg32
Nsg33
g375
sg35
I01
sg36
I01
sg37
I00
sg38
Nsg39
g216
sg40
Nsg41
Nsg42
I00
sg43
S'/home/grogan/Chaste/cell_based/src/population/update_rules/AdhesionPottsUpdateRule.hpp'
p594
sg44
I00
sba(iwrapper_utilities.class_data
CppClass
p595
(dp596
g4
Nsg5
(dp597
g7
g8
sg9
g10
sg11
g12
sg13
g14
sg15
g16
sg17
g18
sg19
g20
sS'*'
g21
sg22
g23
sg24
g23
sg25
g26
sg27
g23
ssg28
g202
sg30
I00
sg31
I00
sg32
Nsg33
g375
sg35
I00
sg36
I00
sg37
I00
sg38
Nsg39
g259
sg40
Nsg41
Nsg42
I00
sg43
S'/home/grogan/Chaste/pde/src/problem/AbstractLinearPde.hpp'
p598
sg44
I00
sba(iwrapper_utilities.class_data
CppClass
p599
(dp600
g4
Nsg5
(dp601
g7
g8
sg9
g10
sg11
g12
sg13
g14
sg15
g16
sg17
g18
sg19
g20
sS'*'
g21
sg22
g23
sg24
g23
sg25
g26
sg27
g23
ssg28
g206
sg30
I00
sg31
I00
sg32
Nsg33
g375
sg35
I00
sg36
I00
sg37
I00
sg38
Nsg39
g259
sg40
Nsg41
Nsg42
I00
sg43
S'/home/grogan/Chaste/pde/src/problem/AbstractLinearParabolicPde.hpp'
p602
sg44
I00
sba(iwrapper_utilities.class_data
CppClass
p603
(dp604
g4
Nsg5
(dp605
g7
g8
sg9
g10
sg11
g12
sg13
g14
sg15
g16
sg17
g18
sg19
g20
sS'*'
g21
sg22
g23
sg24
g23
sg25
g26
sg27
g23
ssg28
g210
sg30
I00
sg31
I00
sg32
Nsg33
g375
sg35
I00
sg36
I00
sg37
I00
sg38
Nsg39
g259
sg40
Nsg41
Nsg42
I00
sg43
S'/home/grogan/Chaste/pde/src/problem/AbstractLinearEllipticPde.hpp'
p606
sg44
I00
sba(iwrapper_utilities.class_data
CppClass
p607
(dp608
g4
Nsg5
(dp609
g7
g8
sg9
g10
sg11
g12
sg13
g14
sg15
g16
sg17
g18
sg19
g20
sS'*'
g21
sg22
g23
sg24
g23
sg25
g26
sg27
g23
ssg28
S'CellwiseSourceEllipticPde'
p610
sg30
I00
sg31
I00
sg32
Nsg33
g375
sg35
I01
sg36
I01
sg37
I00
sg38
Nsg39
g216
sg40
Nsg41
Nsg42
I00
sg43
S'/home/grogan/Chaste/cell_based/src/cell_based_pde/pdes/CellwiseSourceEllipticPde.hpp'
p611
sg44
I00
sba(iwrapper_utilities.class_data
CppClass
p612
(dp613
g4
Nsg5
(dp614
g7
g8
sg9
g10
sg11
g12
sg13
g14
sg15
g16
sg17
g18
sg19
g20
sS'*'
g21
sg22
g23
sg24
g23
sg25
g26
sg27
g23
ssg28
S'AveragedSourceEllipticPde'
p615
sg30
I00
sg31
I00
sg32
Nsg33
g375
sg35
I01
sg36
I01
sg37
I00
sg38
Nsg39
g216
sg40
Nsg41
Nsg42
I00
sg43
S'/home/grogan/Chaste/cell_based/src/cell_based_pde/pdes/AveragedSourceEllipticPde.hpp'
p616
sg44
I00
sba(iwrapper_utilities.class_data
CppClass
p617
(dp618
g4
Nsg5
(dp619
g7
g8
sg9
g10
sg11
g12
sg13
g14
sg15
g16
sg17
g18
sg19
g20
sS'*'
g21
sg22
g23
sg24
g23
sg25
g26
sg27
g23
ssg28
S'AveragedSourceParabolicPde'
p620
sg30
I00
sg31
I00
sg32
Nsg33
g375
sg35
I01
sg36
I01
sg37
I00
sg38
Nsg39
g216
sg40
Nsg41
Nsg42
I00
sg43
S'/home/grogan/Chaste/cell_based/src/cell_based_pde/pdes/AveragedSourceParabolicPde.hpp'
p621
sg44
I00
sba(iwrapper_utilities.class_data
CppClass
p622
(dp623
g4
Nsg5
(dp624
g7
g8
sg9
g10
sg11
g12
sg13
g14
sg15
g16
sg17
g18
sg19
g20
sS'*'
g21
sg22
g23
sg24
g23
sg25
g26
sg27
g23
ssg28
S'CellwiseSourceParabolicPde'
p625
sg30
I00
sg31
I00
sg32
Nsg33
g375
sg35
I01
sg36
I01
sg37
I00
sg38
Nsg39
g216
sg40
Nsg41
Nsg42
I00
sg43
S'/home/grogan/Chaste/cell_based/src/cell_based_pde/pdes/CellwiseSourceParabolicPde.hpp'
p626
sg44
I00
sba(iwrapper_utilities.class_data
CppClass
p627
(dp628
g4
Nsg5
(dp629
g7
g8
sg9
g10
sg11
g12
sg13
g14
sg15
g16
sg17
g18
sg19
g20
sS'*'
g21
sg22
g23
sg24
g23
sg25
g26
sg27
g23
ssg28
S'AbstractPdeModifier'
p630
sg30
I00
sg31
I00
sg32
Nsg33
g375
sg35
I01
sg36
I01
sg37
I00
sg38
Nsg39
g216
sg40
(lp631
S'GetSolution, GetFeMesh'
p632
asg41
Nsg42
I00
sg43
S'/home/grogan/Chaste/cell_based/src/cell_based_pde/AbstractPdeModifier.hpp'
p633
sg44
I00
sba(iwrapper_utilities.class_data
CppClass
p634
(dp635
g4
Nsg5
(dp636
g7
g8
sg9
g10
sg11
g12
sg13
g14
sg15
g16
sg17
g18
sg19
g20
sS'*'
g21
sg22
g23
sg24
g23
sg25
g26
sg27
g23
ssg28
S'AbstractGrowingDomainPdeModifier'
p637
sg30
I00
sg31
I00
sg32
Nsg33
g375
sg35
I01
sg36
I01
sg37
I00
sg38
Nsg39
g216
sg40
Nsg41
Nsg42
I00
sg43
S'/home/grogan/Chaste/cell_based/src/cell_based_pde/AbstractGrowingDomainPdeModifier.hpp'
p638
sg44
I00
sba(iwrapper_utilities.class_data
CppClass
p639
(dp640
g4
Nsg5
(dp641
g7
g8
sg9
g10
sg11
g12
sg13
g14
sg15
g16
sg17
g18
sg19
g20
sS'*'
g21
sg22
g23
sg24
g23
sg25
g26
sg27
g23
ssg28
S'EllipticGrowingDomainPdeModifier'
p642
sg30
I00
sg31
I00
sg32
Nsg33
g375
sg35
I01
sg36
I01
sg37
I00
sg38
Nsg39
g216
sg40
(lp643
S'ConstructBoundaryConditionsContainer'
p644
asg41
Nsg42
I00
sg43
S'/home/grogan/Chaste/cell_based/src/cell_based_pde/EllipticGrowingDomainPdeModifier.hpp'
p645
sg44
I00
sba(iwrapper_utilities.class_data
CppClass
p646
(dp647
g4
Nsg5
(dp648
g7
g8
sg9
g10
sg11
g12
sg13
g14
sg15
g16
sg17
g18
sg19
g20
sS'*'
g21
sg22
g23
sg24
g23
sg25
g26
sg27
g23
ssg28
S'Cell'
p649
sg30
I00
sg31
I00
sg32
Nsg33
g375
sg35
I01
sg36
I01
sg37
I00
sg38
Nsg39
Nsg40
(lp650
S'rGetCellPropertyCollection'
p651
aS'GetSrnModel'
p652
asg41
Nsg42
I01
sg43
S'/home/grogan/Chaste/cell_based/src/cell/Cell.hpp'
p653
sg44
I00
sba(iwrapper_utilities.class_data
CppClass
p654
(dp655
g4
Nsg5
(dp656
g7
g8
sg9
g10
sg11
g12
sg13
g14
sg15
g16
sg17
g18
sg19
g20
sS'*'
g21
sg22
g23
sg24
g23
sg25
g26
sg27
g23
ssg28
S'CellsGenerator'
p657
sg30
I00
sg31
I00
sg32
Nsg33
g375
sg35
I01
sg36
I01
sg37
I00
sg38
Nsg39
(lp658
(lp659
S'UniformCellCycleModel'
p660
aI2
aa(lp661
g660
aI3
aa(lp662
S'SimpleOxygenBasedCellCycleModel'
p663
aI2
aa(lp664
g663
aI3
aa(lp665
S'UniformG1GenerationalCellCycleModel'
p666
aI2
aa(lp667
g666
aI3
aa(lp668
S'NoCellCycleModel'
p669
aI2
aa(lp670
g669
aI3
aasg40
Nsg41
Nsg42
I00
sg43
S'/home/grogan/Chaste/cell_based/src/cell/CellsGenerator.hpp'
p671
sg44
I00
sba(iwrapper_utilities.class_data
CppClass
p672
(dp673
g4
Nsg5
(dp674
g7
g8
sg9
g10
sg11
g12
sg13
g14
sg15
g16
sg17
g18
sg19
g20
sS'*'
g21
sg22
g23
sg24
g23
sg25
g26
sg27
g23
ssg28
S'AbstractCellCycleModel'
p675
sg30
I00
sg31
I00
sg32
Nsg33
g375
sg35
I01
sg36
I01
sg37
I00
sg38
Nsg39
Nsg40
Nsg41
Nsg42
I00
sg43
S'/home/grogan/Chaste/cell_based/src/cell/cycle/AbstractCellCycleModel.hpp'
p676
sg44
I00
sba(iwrapper_utilities.class_data
CppClass
p677
(dp678
g4
Nsg5
(dp679
g7
g8
sg9
g10
sg11
g12
sg13
g14
sg15
g16
sg17
g18
sg19
g20
sS'*'
g21
sg22
g23
sg24
g23
sg25
g26
sg27
g23
ssg28
S'AbstractPhaseBasedCellCycleModel'
p680
sg30
I00
sg31
I00
sg32
Nsg33
g375
sg35
I01
sg36
I01
sg37
I00
sg38
Nsg39
Nsg40
Nsg41
Nsg42
I00
sg43
S'/home/grogan/Chaste/cell_based/src/cell/cycle/AbstractPhaseBasedCellCycleModel.hpp'
p681
sg44
I00
sba(iwrapper_utilities.class_data
CppClass
p682
(dp683
g4
Nsg5
(dp684
g7
g8
sg9
g10
sg11
g12
sg13
g14
sg15
g16
sg17
g18
sg19
g20
sS'*'
g21
sg22
g23
sg24
g23
sg25
g26
sg27
g23
ssg28
S'AbstractSimpleCellCycleModel'
p685
sg30
I00
sg31
I00
sg32
Nsg33
g375
sg35
I01
sg36
I01
sg37
I00
sg38
Nsg39
Nsg40
Nsg41
Nsg42
I00
sg43
S'/home/grogan/Chaste/cell_based/src/cell/cycle/AbstractSimpleCellCycleModel.hpp'
p686
sg44
I00
sba(iwrapper_utilities.class_data
CppClass
p687
(dp688
g4
Nsg5
(dp689
g7
g8
sg9
g10
sg11
g12
sg13
g14
sg15
g16
sg17
g18
sg19
g20
sS'*'
g21
sg22
g23
sg24
g23
sg25
g26
sg27
g23
ssg28
S'AbstractSimplePhaseBasedCellCycleModel'
p690
sg30
I00
sg31
I00
sg32
Nsg33
g375
sg35
I01
sg36
I01
sg37
I00
sg38
Nsg39
Nsg40
Nsg41
Nsg42
I00
sg43
S'/home/grogan/Chaste/cell_based/src/cell/cycle/AbstractSimplePhaseBasedCellCycleModel.hpp'
p691
sg44
I00
sba(iwrapper_utilities.class_data
CppClass
p692
(dp693
g4
Nsg5
(dp694
g7
g8
sg9
g10
sg11
g12
sg13
g14
sg15
g16
sg17
g18
sg19
g20
sS'*'
g21
sg22
g23
sg24
g23
sg25
g26
sg27
g23
ssg28
S'AbstractSimpleGenerationalCellCycleModel'
p695
sg30
I00
sg31
I00
sg32
Nsg33
g375
sg35
I01
sg36
I01
sg37
I00
sg38
Nsg39
Nsg40
Nsg41
Nsg42
I00
sg43
S'/home/grogan/Chaste/cell_based/src/cell/cycle/AbstractSimpleGenerationalCellCycleModel.hpp'
p696
sg44
I00
sba(iwrapper_utilities.class_data
CppClass
p697
(dp698
g4
Nsg5
(dp699
g7
g8
sg9
g10
sg11
g12
sg13
g14
sg15
g16
sg17
g18
sg19
g20
sS'*'
g21
sg22
g23
sg24
g23
sg25
g26
sg27
g23
ssg28
g660
sg30
I00
sg31
I00
sg32
Nsg33
g375
sg35
I01
sg36
I01
sg37
I00
sg38
Nsg39
Nsg40
Nsg41
Nsg42
I00
sg43
S'/home/grogan/Chaste/cell_based/src/cell/cycle/UniformCellCycleModel.hpp'
p700
sg44
I00
sba(iwrapper_utilities.class_data
CppClass
p701
(dp702
g4
Nsg5
(dp703
g7
g8
sg9
g10
sg11
g12
sg13
g14
sg15
g16
sg17
g18
sg19
g20
sS'*'
g21
sg22
g23
sg24
g23
sg25
g26
sg27
g23
ssg28
g663
sg30
I00
sg31
I00
sg32
Nsg33
g375
sg35
I01
sg36
I01
sg37
I00
sg38
Nsg39
Nsg40
Nsg41
Nsg42
I00
sg43
S'/home/grogan/Chaste/cell_based/src/cell/cycle/SimpleOxygenBasedCellCycleModel.hpp'
p704
sg44
I00
sba(iwrapper_utilities.class_data
CppClass
p705
(dp706
g4
Nsg5
(dp707
g7
g8
sg9
g10
sg11
g12
sg13
g14
sg15
g16
sg17
g18
sg19
g20
sS'*'
g21
sg22
g23
sg24
g23
sg25
g26
sg27
g23
ssg28
g666
sg30
I00
sg31
I00
sg32
Nsg33
g375
sg35
I01
sg36
I01
sg37
I00
sg38
Nsg39
Nsg40
Nsg41
Nsg42
I00
sg43
S'/home/grogan/Chaste/cell_based/src/cell/cycle/UniformG1GenerationalCellCycleModel.hpp'
p708
sg44
I00
sba(iwrapper_utilities.class_data
CppClass
p709
(dp710
g4
Nsg5
(dp711
g7
g8
sg9
g10
sg11
g12
sg13
g14
sg15
g16
sg17
g18
sg19
g20
sS'*'
g21
sg22
g23
sg24
g23
sg25
g26
sg27
g23
ssg28
g669
sg30
I00
sg31
I00
sg32
Nsg33
g375
sg35
I01
sg36
I01
sg37
I00
sg38
Nsg39
Nsg40
Nsg41
Nsg42
I00
sg43
S'/home/grogan/Chaste/cell_based/src/cell/cycle/NoCellCycleModel.hpp'
p712
sg44
I00
sba(iwrapper_utilities.class_data
CppClass
p713
(dp714
g4
Nsg5
(dp715
g7
g8
sg9
g10
sg11
g12
sg13
g14
sg15
g16
sg17
g18
sg19
g20
sS'*'
g21
sg22
g23
sg24
g23
sg25
g26
sg27
g23
ssg28
S'AbstractCellProperty'
p716
sg30
I00
sg31
I00
sg32
Nsg33
g375
sg35
I01
sg36
I01
sg37
I00
sg38
Nsg39
Nsg40
(lp717
S'IsType'
p718
asg41
Nsg42
I01
sg43
S'/home/grogan/Chaste/cell_based/src/cell/properties/AbstractCellProperty.hpp'
p719
sg44
I00
sba(iwrapper_utilities.class_data
CppClass
p720
(dp721
g4
Nsg5
(dp722
g7
g8
sg9
g10
sg11
g12
sg13
g14
sg15
g16
sg17
g18
sg19
g20
sS'*'
g21
sg22
g23
sg24
g23
sg25
g26
sg27
g23
ssg28
S'CellPropertyCollection'
p723
sg30
I00
sg31
I00
sg32
Nsg33
g375
sg35
I01
sg36
I01
sg37
I00
sg38
Nsg39
Nsg40
(lp724
S'GetCellPropertyRegistry'
p725
asg41
Nsg42
I00
sg43
S'/home/grogan/Chaste/cell_based/src/cell/properties/CellPropertyCollection.hpp'
p726
sg44
I00
sba(iwrapper_utilities.class_data
CppClass
p727
(dp728
g4
Nsg5
(dp729
g7
g8
sg9
g10
sg11
g12
sg13
g14
sg15
g16
sg17
g18
sg19
g20
sS'*'
g21
sg22
g23
sg24
g23
sg25
g26
sg27
g23
ssg28
S'AbstractCellProliferativeType'
p730
sg30
I00
sg31
I00
sg32
Nsg33
g375
sg35
I01
sg36
I01
sg37
I00
sg38
Nsg39
Nsg40
Nsg41
Nsg42
I00
sg43
S'/home/grogan/Chaste/cell_based/src/cell/properties/proliferative_types/AbstractCellProliferativeType.hpp'
p731
sg44
I00
sba(iwrapper_utilities.class_data
CppClass
p732
(dp733
g4
Nsg5
(dp734
g7
g8
sg9
g10
sg11
g12
sg13
g14
sg15
g16
sg17
g18
sg19
g20
sS'*'
g21
sg22
g23
sg24
g23
sg25
g26
sg27
g23
ssg28
S'StemCellProliferativeType'
p735
sg30
I00
sg31
I00
sg32
Nsg33
g375
sg35
I01
sg36
I01
sg37
I00
sg38
Nsg39
Nsg40
Nsg41
Nsg42
I00
sg43
S'/home/grogan/Chaste/cell_based/src/cell/properties/proliferative_types/StemCellProliferativeType.hpp'
p736
sg44
I00
sba(iwrapper_utilities.class_data
CppClass
p737
(dp738
g4
Nsg5
(dp739
g7
g8
sg9
g10
sg11
g12
sg13
g14
sg15
g16
sg17
g18
sg19
g20
sS'*'
g21
sg22
g23
sg24
g23
sg25
g26
sg27
g23
ssg28
S'DefaultCellProliferativeType'
p740
sg30
I00
sg31
I00
sg32
Nsg33
g375
sg35
I01
sg36
I01
sg37
I00
sg38
Nsg39
Nsg40
Nsg41
Nsg42
I00
sg43
S'/home/grogan/Chaste/cell_based/src/cell/properties/proliferative_types/DefaultCellProliferativeType.hpp'
p741
sg44
I00
sba(iwrapper_utilities.class_data
CppClass
p742
(dp743
g4
Nsg5
(dp744
g7
g8
sg9
g10
sg11
g12
sg13
g14
sg15
g16
sg17
g18
sg19
g20
sS'*'
g21
sg22
g23
sg24
g23
sg25
g26
sg27
g23
ssg28
S'TransitCellProliferativeType'
p745
sg30
I00
sg31
I00
sg32
Nsg33
g375
sg35
I01
sg36
I01
sg37
I00
sg38
Nsg39
Nsg40
Nsg41
Nsg42
I00
sg43
S'/home/grogan/Chaste/cell_based/src/cell/properties/proliferative_types/TransitCellProliferativeType.hpp'
p746
sg44
I00
sba(iwrapper_utilities.class_data
CppClass
p747
(dp748
g4
Nsg5
(dp749
g7
g8
sg9
g10
sg11
g12
sg13
g14
sg15
g16
sg17
g18
sg19
g20
sS'*'
g21
sg22
g23
sg24
g23
sg25
g26
sg27
g23
ssg28
S'DifferentiatedCellProliferativeType'
p750
sg30
I00
sg31
I00
sg32
Nsg33
g375
sg35
I01
sg36
I01
sg37
I00
sg38
Nsg39
Nsg40
Nsg41
Nsg42
I00
sg43
S'/home/grogan/Chaste/cell_based/src/cell/properties/proliferative_types/DifferentiatedCellProliferativeType.hpp'
p751
sg44
I00
sba(iwrapper_utilities.class_data
CppClass
p752
(dp753
g4
Nsg5
(dp754
g7
g8
sg9
g10
sg11
g12
sg13
g14
sg15
g16
sg17
g18
sg19
g20
sS'*'
g21
sg22
g23
sg24
g23
sg25
g26
sg27
g23
ssg28
S'AbstractCellMutationState'
p755
sg30
I00
sg31
I00
sg32
Nsg33
g375
sg35
I01
sg36
I01
sg37
I00
sg38
Nsg39
Nsg40
Nsg41
Nsg42
I00
sg43
S'/home/grogan/Chaste/cell_based/src/cell/properties/mutations/AbstractCellMutationState.hpp'
p756
sg44
I00
sba(iwrapper_utilities.class_data
CppClass
p757
(dp758
g4
Nsg5
(dp759
g7
g8
sg9
g10
sg11
g12
sg13
g14
sg15
g16
sg17
g18
sg19
g20
sS'*'
g21
sg22
g23
sg24
g23
sg25
g26
sg27
g23
ssg28
S'ApcOneHitCellMutationState'
p760
sg30
I00
sg31
I00
sg32
Nsg33
g375
sg35
I01
sg36
I01
sg37
I00
sg38
Nsg39
Nsg40
Nsg41
Nsg42
I00
sg43
S'/home/grogan/Chaste/cell_based/src/cell/properties/mutations/ApcOneHitCellMutationState.hpp'
p761
sg44
I00
sba(iwrapper_utilities.class_data
CppClass
p762
(dp763
g4
Nsg5
(dp764
g7
g8
sg9
g10
sg11
g12
sg13
g14
sg15
g16
sg17
g18
sg19
g20
sS'*'
g21
sg22
g23
sg24
g23
sg25
g26
sg27
g23
ssg28
S'ApcTwoHitCellMutationState'
p765
sg30
I00
sg31
I00
sg32
Nsg33
g375
sg35
I01
sg36
I01
sg37
I00
sg38
Nsg39
Nsg40
Nsg41
Nsg42
I00
sg43
S'/home/grogan/Chaste/cell_based/src/cell/properties/mutations/ApcTwoHitCellMutationState.hpp'
p766
sg44
I00
sba(iwrapper_utilities.class_data
CppClass
p767
(dp768
g4
Nsg5
(dp769
g7
g8
sg9
g10
sg11
g12
sg13
g14
sg15
g16
sg17
g18
sg19
g20
sS'*'
g21
sg22
g23
sg24
g23
sg25
g26
sg27
g23
ssg28
S'BetaCateninOneHitCellMutationState'
p770
sg30
I00
sg31
I00
sg32
Nsg33
g375
sg35
I01
sg36
I01
sg37
I00
sg38
Nsg39
Nsg40
Nsg41
Nsg42
I00
sg43
S'/home/grogan/Chaste/cell_based/src/cell/properties/mutations/BetaCateninOneHitCellMutationState.hpp'
p771
sg44
I00
sba(iwrapper_utilities.class_data
CppClass
p772
(dp773
g4
Nsg5
(dp774
g7
g8
sg9
g10
sg11
g12
sg13
g14
sg15
g16
sg17
g18
sg19
g20
sS'*'
g21
sg22
g23
sg24
g23
sg25
g26
sg27
g23
ssg28
S'WildTypeCellMutationState'
p775
sg30
I00
sg31
I00
sg32
Nsg33
g375
sg35
I01
sg36
I01
sg37
I00
sg38
Nsg39
Nsg40
Nsg41
Nsg42
I00
sg43
S'/home/grogan/Chaste/cell_based/src/cell/properties/mutations/WildTypeCellMutationState.hpp'
p776
sg44
I00
sba(iwrapper_utilities.class_data
CppClass
p777
(dp778
g4
Nsg5
(dp779
g7
g8
sg9
g10
sg11
g12
sg13
g14
sg15
g16
sg17
g18
sg19
g20
sS'*'
g21
sg22
g23
sg24
g23
sg25
g26
sg27
g23
ssg28
S'ApoptoticCellProperty'
p780
sg30
I00
sg31
I00
sg32
Nsg33
g375
sg35
I01
sg36
I01
sg37
I00
sg38
Nsg39
Nsg40
Nsg41
Nsg42
I00
sg43
S'/home/grogan/Chaste/cell_based/src/cell/properties/ApoptoticCellProperty.hpp'
p781
sg44
I00
sba(iwrapper_utilities.class_data
CppClass
p782
(dp783
g4
Nsg5
(dp784
g7
g8
sg9
g10
sg11
g12
sg13
g14
sg15
g16
sg17
g18
sg19
g20
sS'*'
g21
sg22
g23
sg24
g23
sg25
g26
sg27
g23
ssg28
S'CellData'
p785
sg30
I00
sg31
I00
sg32
Nsg33
g375
sg35
I01
sg36
I01
sg37
I00
sg38
Nsg39
Nsg40
Nsg41
Nsg42
I00
sg43
S'/home/grogan/Chaste/cell_based/src/cell/properties/CellData.hpp'
p786
sg44
I00
sba(iwrapper_utilities.class_data
CppClass
p787
(dp788
g4
Nsg5
(dp789
g7
g8
sg9
g10
sg11
g12
sg13
g14
sg15
g16
sg17
g18
sg19
g20
sS'*'
g21
sg22
g23
sg24
g23
sg25
g26
sg27
g23
ssg28
S'CellLabel'
p790
sg30
I00
sg31
I00
sg32
Nsg33
g375
sg35
I01
sg36
I01
sg37
I00
sg38
Nsg39
Nsg40
Nsg41
Nsg42
I00
sg43
S'/home/grogan/Chaste/cell_based/src/cell/properties/CellLabel.hpp'
p791
sg44
I00
sba(iwrapper_utilities.class_data
CppClass
p792
(dp793
g4
Nsg5
(dp794
g7
g8
sg9
g10
sg11
g12
sg13
g14
sg15
g16
sg17
g18
sg19
g20
sS'*'
g21
sg22
g23
sg24
g23
sg25
g26
sg27
g23
ssg28
S'CellAncestor'
p795
sg30
I00
sg31
I00
sg32
Nsg33
g375
sg35
I01
sg36
I01
sg37
I00
sg38
Nsg39
Nsg40
Nsg41
Nsg42
I00
sg43
S'/home/grogan/Chaste/cell_based/src/cell/properties/CellAncestor.hpp'
p796
sg44
I00
sba(iwrapper_utilities.class_data
CppClass
p797
(dp798
g4
Nsg5
(dp799
g7
g8
sg9
g10
sg11
g12
sg13
g14
sg15
g16
sg17
g18
sg19
g20
sS'*'
g21
sg22
g23
sg24
g23
sg25
g26
sg27
g23
ssg28
S'CellId'
p800
sg30
I00
sg31
I00
sg32
Nsg33
g375
sg35
I01
sg36
I01
sg37
I00
sg38
Nsg39
Nsg40
Nsg41
Nsg42
I00
sg43
S'/home/grogan/Chaste/cell_based/src/cell/properties/CellId.hpp'
p801
sg44
I00
sba(iwrapper_utilities.class_data
CppClass
p802
(dp803
g4
Nsg5
(dp804
g7
g8
sg9
g10
sg11
g12
sg13
g14
sg15
g16
sg17
g18
sg19
g20
sS'*'
g21
sg22
g23
sg24
g23
sg25
g26
sg27
g23
ssg28
S'CellPropertyRegistry'
p805
sg30
I00
sg31
I00
sg32
Nsg33
g375
sg35
I01
sg36
I01
sg37
I00
sg38
Nsg39
Nsg40
(lp806
S'rGetAllCellProperties'
p807
aS'TakeOwnership'
p808
aS'Get'
p809
asg41
Nsg42
I00
sg43
S'/home/grogan/Chaste/cell_based/src/cell/properties/CellPropertyRegistry.hpp'
p810
sg44
I00
sba(iwrapper_utilities.class_data
CppClass
p811
(dp812
g4
Nsg5
(dp813
g7
g8
sg9
g10
sg11
g12
sg13
g14
sg15
g16
sg17
g18
sg19
g20
sS'*'
g21
sg22
g23
sg24
g23
sg25
g26
sg27
g23
ssg28
S'AbstractSrnModel'
p814
sg30
I00
sg31
I00
sg32
Nsg33
g375
sg35
I01
sg36
I01
sg37
I00
sg38
Nsg39
Nsg40
Nsg41
Nsg42
I00
sg43
S'/home/grogan/Chaste/cell_based/src/cell/srn/AbstractSrnModel.hpp'
p815
sg44
I00
sba(iwrapper_utilities.class_data
CppClass
p816
(dp817
g4
Nsg5
(dp818
g7
g8
sg9
g10
sg11
g12
sg13
g14
sg15
g16
sg17
g18
sg19
g20
sS'*'
g21
sg22
g23
sg24
g23
sg25
g26
sg27
g23
ssg28
S'NullSrnModel'
p819
sg30
I00
sg31
I00
sg32
Nsg33
g375
sg35
I01
sg36
I01
sg37
I00
sg38
Nsg39
Nsg40
Nsg41
Nsg42
I00
sg43
S'/home/grogan/Chaste/cell_based/src/cell/srn/NullSrnModel.hpp'
p820
sg44
I00
sba(iwrapper_utilities.class_data
CppClass
p821
(dp822
g4
Nsg5
(dp823
g7
g8
sg9
g10
sg11
g12
sg13
g14
sg15
g16
sg17
g18
sg19
g20
sS'*'
g21
sg22
g23
sg24
g23
sg25
g26
sg27
g23
ssg28
S'AbstractTargetAreaModifier'
p824
sg30
I00
sg31
I00
sg32
Nsg33
g375
sg35
I01
sg36
I01
sg37
I00
sg38
Nsg39
g216
sg40
Nsg41
Nsg42
I00
sg43
S'/home/grogan/Chaste/cell_based/src/simulation/modifiers/AbstractTargetAreaModifier.hpp'
p825
sg44
I00
sba(iwrapper_utilities.class_data
CppClass
p826
(dp827
g4
Nsg5
(dp828
g7
g8
sg9
g10
sg11
g12
sg13
g14
sg15
g16
sg17
g18
sg19
g20
sS'*'
g21
sg22
g23
sg24
g23
sg25
g26
sg27
g23
ssg28
S'SimpleTargetAreaModifier'
p829
sg30
I00
sg31
I00
sg32
Nsg33
g375
sg35
I01
sg36
I01
sg37
I00
sg38
Nsg39
g216
sg40
Nsg41
Nsg42
I00
sg43
S'/home/grogan/Chaste/cell_based/src/simulation/modifiers/SimpleTargetAreaModifier.hpp'
p830
sg44
I00
sba(iwrapper_utilities.class_data
CppClass
p831
(dp832
g4
Nsg5
(dp833
g7
g8
sg9
g10
sg11
g12
sg13
g14
sg15
g16
sg17
g18
sg19
g20
sS'*'
g21
sg22
g23
sg24
g23
sg25
g26
sg27
g23
ssg28
S'VtkSceneModifier'
p834
sg30
I00
sg31
I00
sg32
Nsg33
g375
sg35
I01
sg36
I01
sg37
I00
sg38
Nsg39
g216
sg40
Nsg41
Nsg42
I00
sg43
S'/home/grogan/Chaste/projects/PyChaste/src/cell_based/VtkSceneModifier.hpp'
p835
sg44
I00
sba(iwrapper_utilities.class_data
CppClass
p836
(dp837
g4
Nsg5
(dp838
g7
g8
sg9
g10
sg11
g12
sg13
g14
sg15
g16
sg17
g18
sg19
g20
sS'*'
g21
sg22
g23
sg24
g23
sg25
g26
sg27
g23
ssg28
S'AbstractCellBasedSimulationModifier'
p839
sg30
I00
sg31
I00
sg32
Nsg33
g375
sg35
I01
sg36
I01
sg37
I00
sg38
Nsg39
g259
sg40
Nsg41
Nsg42
I00
sg43
S'/home/grogan/Chaste/cell_based/src/simulation/modifiers/AbstractCellBasedSimulationModifier.hpp'
p840
sg44
I00
sba(iwrapper_utilities.class_data
CppClass
p841
(dp842
g4
Nsg5
(dp843
g7
g8
sg9
g10
sg11
g12
sg13
g14
sg15
g16
sg17
g18
sg19
g20
sS'*'
g21
sg22
g23
sg24
g23
sg25
g26
sg27
g23
ssg28
S'Hello'
p844
sg30
I00
sg31
I00
sg32
Nsg33
S'tutorial'
p845
sg35
I01
sg36
I01
sg37
I00
sg38
Nsg39
Nsg40
Nsg41
Nsg42
I00
sg43
S'/home/grogan/Chaste/projects/PyChaste/src/tutorial/Hello.hpp'
p846
sg44
I00
sba(iwrapper_utilities.class_data
CppClass
p847
(dp848
g4
Nsg5
(dp849
g7
g8
sg9
g10
sg11
g12
sg13
g14
sg15
g16
sg17
g18
sg19
g20
sS'*'
g21
sg22
g23
sg24
g23
sg25
g26
sg27
g23
ssg28
S'VtkScene'
p850
sg30
I00
sg31
I00
sg32
Nsg33
S'visualization'
p851
sg35
I01
sg36
I01
sg37
I00
sg38
Nsg39
g216
sg40
Nsg41
Nsg42
I00
sg43
S'/home/grogan/Chaste/projects/PyChaste/src/visualization/VtkScene.hpp'
p852
sg44
I00
sba(iwrapper_utilities.class_data
CppClass
p853
(dp854
g4
Nsg5
(dp855
g7
g8
sg9
g10
sg11
g12
sg13
g14
sg15
g16
sg17
g18
sg19
g20
sS'*'
g21
sg22
g23
sg24
g23
sg25
g26
sg27
g23
ssg28
S'AbstractPyChasteActorGenerator'
p856
sg30
I00
sg31
I00
sg32
Nsg33
g851
sg35
I01
sg36
I01
sg37
I00
sg38
Nsg39
g216
sg40
Nsg41
Nsg42
I00
sg43
S'/home/grogan/Chaste/projects/PyChaste/src/visualization/AbstractPyChasteActorGenerator.hpp'
p857
sg44
I00
sba(iwrapper_utilities.class_data
CppClass
p858
(dp859
g4
Nsg5
(dp860
g7
g8
sg9
g10
sg11
g12
sg13
g14
sg15
g16
sg17
g18
sg19
g20
sS'*'
g21
sg22
g23
sg24
g23
sg25
g26
sg27
g23
ssg28
S'CellPopulationPyChasteActorGenerator'
p861
sg30
I00
sg31
I00
sg32
Nsg33
g851
sg35
I01
sg36
I01
sg37
I00
sg38
Nsg39
g216
sg40
Nsg41
Nsg42
I00
sg43
S'/home/grogan/Chaste/projects/PyChaste/src/visualization/CellPopulationPyChasteActorGenerator.hpp'
p862
sg44
I00
sba.