(lp1
(iwrapper_utilities.class_data
CppClass
p2
(dp3
S'pointer_return_methods'
p4
NsS'name_replacements'
p5
(dp6
S'std::string'
p7
S'String'
p8
sS'c_vector'
p9
S'CVector'
p10
sS'std::set'
p11
S'Set'
p12
sS'std::pair'
p13
S'Pair'
p14
sS'std::map'
p15
S'Map'
p16
sS'boost::shared_ptr'
p17
S'SharedPtr'
p18
sS'std::vector'
p19
S'Vector'
p20
sS'*'
S'Ptr'
p21
sS'unsigned'
p22
S'Unsigned'
p23
sS'unsigned int'
p24
g23
sS'double'
p25
S'Double'
p26
sS'Unsigned int'
p27
g23
ssS'name'
p28
S'std::string'
p29
sS'include_ptr_self'
p30
I00
sS'include_raw_ptr_self'
p31
I00
sS'declaration_code'
p32
NsS'component'
p33
S'extra'
p34
sS'needs_include_file'
p35
I00
sS'needs_instantiation'
p36
I00
sS'skip_wrapping'
p37
I01
sS'excluded_variables'
p38
NsS'template_args'
p39
NsS'excluded_methods'
p40
NsS'name_override'
p41
NsS'include_vec_ptr_self'
p42
I00
sS'full_path'
p43
NsS'include_file_only'
p44
I00
sba(iwrapper_utilities.class_data
CppClass
p45
(dp46
g4
Nsg5
(dp47
g7
g8
sg9
g10
sg11
g12
sg13
g14
sg15
g16
sg17
g18
sg19
g20
sS'*'
g21
sg22
g23
sg24
g23
sg25
g26
sg27
g23
ssg28
S'std::map'
p48
sg30
I00
sg31
I00
sg32
Nsg33
g34
sg35
I00
sg36
I00
sg37
I01
sg38
Nsg39
(lp49
(lp50
g29
ag29
aasg40
Nsg41
Nsg42
I00
sg43
Nsg44
I00
sba(iwrapper_utilities.class_data
CppClass
p51
(dp52
g4
Nsg5
(dp53
g7
g8
sg9
g10
sg11
g12
sg13
g14
sg15
g16
sg17
g18
sg19
g20
sS'*'
g21
sg22
g23
sg24
g23
sg25
g26
sg27
g23
ssg28
S'std::set'
p54
sg30
I00
sg31
I00
sg32
Nsg33
g34
sg35
I00
sg36
I00
sg37
I01
sg38
Nsg39
(lp55
(lp56
g22
aasg40
Nsg41
Nsg42
I00
sg43
Nsg44
I00
sba(iwrapper_utilities.class_data
CppClass
p57
(dp58
g4
Nsg5
(dp59
g7
g8
sg9
g10
sg11
g12
sg13
g14
sg15
g16
sg17
g18
sg19
g20
sS'*'
g21
sg22
g23
sg24
g23
sg25
g26
sg27
g23
ssg28
S'std::vector'
p60
sg30
I00
sg31
I00
sg32
Nsg33
g34
sg35
I00
sg36
I00
sg37
I01
sg38
Nsg39
(lp61
(lp62
g25
aa(lp63
g22
aa(lp64
S'bool'
p65
aa(lp66
g29
aa(lp67
S'c_vector<double,3>'
p68
aa(lp69
S'c_vector<double,2>'
p70
aa(lp71
S'c_vector<unsigned,5>'
p72
aa(lp73
S'std::set<unsigned int>'
p74
aa(lp75
S'std::vector<unsigned int>'
p76
aasg40
Nsg41
Nsg42
I00
sg43
Nsg44
I00
sba(iwrapper_utilities.class_data
CppClass
p77
(dp78
g4
Nsg5
(dp79
g7
g8
sg9
g10
sg11
g12
sg13
g14
sg15
g16
sg17
g18
sg19
g20
sS'*'
g21
sg22
g23
sg24
g23
sg25
g26
sg27
g23
ssg28
g9
sg30
I00
sg31
I00
sg32
Nsg33
g34
sg35
I00
sg36
I00
sg37
I01
sg38
Nsg39
(lp80
(lp81
g25
aI2
aa(lp82
g25
aI3
aa(lp83
g22
aI5
aasg40
Nsg41
Nsg42
I00
sg43
Nsg44
I00
sba(iwrapper_utilities.class_data
CppClass
p84
(dp85
g4
Nsg5
(dp86
g7
g8
sg9
g10
sg11
g12
sg13
g14
sg15
g16
sg17
g18
sg19
g20
sS'*'
g21
sg22
g23
sg24
g23
sg25
g26
sg27
g23
ssg28
S'BoostFilesystem'
p87
sg30
I00
sg31
I00
sg32
Nsg33
S'core'
p88
sg35
I01
sg36
I01
sg37
I00
sg38
Nsg39
Nsg40
Nsg41
Nsg42
I00
sg43
S'/home/grogan/Software/Chaste/global/src/BoostFilesystem.hpp'
p89
sg44
I01
sba(iwrapper_utilities.class_data
CppClass
p90
(dp91
g4
Nsg5
(dp92
g7
g8
sg9
g10
sg11
g12
sg13
g14
sg15
g16
sg17
g18
sg19
g20
sS'*'
g21
sg22
g23
sg24
g23
sg25
g26
sg27
g23
ssg28
S'RelativeTo'
p93
sg30
I00
sg31
I00
sg32
Nsg33
g88
sg35
I00
sg36
I01
sg37
I00
sg38
Nsg39
Nsg40
Nsg41
Nsg42
I00
sg43
Nsg44
I00
sba(iwrapper_utilities.class_data
CppClass
p94
(dp95
g4
Nsg5
(dp96
g7
g8
sg9
g10
sg11
g12
sg13
g14
sg15
g16
sg17
g18
sg19
g20
sS'*'
g21
sg22
g23
sg24
g23
sg25
g26
sg27
g23
ssg28
S'FileFinder'
p97
sg30
I00
sg31
I00
sg32
Nsg33
g88
sg35
I01
sg36
I01
sg37
I00
sg38
Nsg39
Nsg40
Nsg41
Nsg42
I00
sg43
S'/home/grogan/Software/Chaste/global/src/FileFinder.hpp'
p98
sg44
I00
sba(iwrapper_utilities.class_data
CppClass
p99
(dp100
g4
Nsg5
(dp101
g7
g8
sg9
g10
sg11
g12
sg13
g14
sg15
g16
sg17
g18
sg19
g20
sS'*'
g21
sg22
g23
sg24
g23
sg25
g26
sg27
g23
ssg28
S'OutputFileHandler'
p102
sg30
I00
sg31
I00
sg32
Nsg33
g88
sg35
I01
sg36
I01
sg37
I00
sg38
Nsg39
Nsg40
(lp103
S'OpenOutputFile'
p104
asg41
Nsg42
I00
sg43
S'/home/grogan/Software/Chaste/global/src/OutputFileHandler.hpp'
p105
sg44
I00
sba(iwrapper_utilities.class_data
CppClass
p106
(dp107
g4
Nsg5
(dp108
g7
g8
sg9
g10
sg11
g12
sg13
g14
sg15
g16
sg17
g18
sg19
g20
sS'*'
g21
sg22
g23
sg24
g23
sg25
g26
sg27
g23
ssg28
S'ProgressReporter'
p109
sg30
I00
sg31
I00
sg32
Nsg33
g88
sg35
I01
sg36
I01
sg37
I00
sg38
Nsg39
Nsg40
Nsg41
Nsg42
I00
sg43
S'/home/grogan/Software/Chaste/global/src/ProgressReporter.hpp'
p110
sg44
I00
sba(iwrapper_utilities.class_data
CppClass
p111
(dp112
g4
Nsg5
(dp113
g7
g8
sg9
g10
sg11
g12
sg13
g14
sg15
g16
sg17
g18
sg19
g20
sS'*'
g21
sg22
g23
sg24
g23
sg25
g26
sg27
g23
ssg28
S'RandomNumberGenerator'
p114
sg30
I00
sg31
I00
sg32
Nsg33
g88
sg35
I01
sg36
I01
sg37
I00
sg38
Nsg39
Nsg40
Nsg41
Nsg42
I00
sg43
S'/home/grogan/Software/Chaste/global/src/RandomNumberGenerator.hpp'
p115
sg44
I00
sba(iwrapper_utilities.class_data
CppClass
p116
(dp117
g4
Nsg5
(dp118
g7
g8
sg9
g10
sg11
g12
sg13
g14
sg15
g16
sg17
g18
sg19
g20
sS'*'
g21
sg22
g23
sg24
g23
sg25
g26
sg27
g23
ssg28
S'SmartPointers'
p119
sg30
I00
sg31
I00
sg32
Nsg33
g88
sg35
I01
sg36
I01
sg37
I00
sg38
Nsg39
Nsg40
Nsg41
Nsg42
I00
sg43
S'/home/grogan/Software/Chaste/global/src/SmartPointers.hpp'
p120
sg44
I01
sba(iwrapper_utilities.class_data
CppClass
p121
(dp122
g4
Nsg5
(dp123
g7
g8
sg9
g10
sg11
g12
sg13
g14
sg15
g16
sg17
g18
sg19
g20
sS'*'
g21
sg22
g23
sg24
g23
sg25
g26
sg27
g23
ssg28
S'TimeStepper'
p124
sg30
I00
sg31
I00
sg32
Nsg33
g88
sg35
I01
sg36
I01
sg37
I00
sg38
Nsg39
Nsg40
Nsg41
Nsg42
I00
sg43
S'/home/grogan/Software/Chaste/global/src/TimeStepper.hpp'
p125
sg44
I00
sba(iwrapper_utilities.class_data
CppClass
p126
(dp127
g4
Nsg5
(dp128
g7
g8
sg9
g10
sg11
g12
sg13
g14
sg15
g16
sg17
g18
sg19
g20
sS'*'
g21
sg22
g23
sg24
g23
sg25
g26
sg27
g23
ssg28
S'Version'
p129
sg30
I00
sg31
I00
sg32
Nsg33
g88
sg35
I01
sg36
I01
sg37
I00
sg38
Nsg39
Nsg40
Nsg41
Nsg42
I00
sg43
S'/home/grogan/Software/Chaste/global/src/Version.hpp'
p130
sg44
I01
sba(iwrapper_utilities.class_data
CppClass
p131
(dp132
g4
Nsg5
(dp133
g7
g8
sg9
g10
sg11
g12
sg13
g14
sg15
g16
sg17
g18
sg19
g20
sS'*'
g21
sg22
g23
sg24
g23
sg25
g26
sg27
g23
ssg28
S'ChasteBuildInfo'
p134
sg30
I00
sg31
I00
sg32
Nsg33
g88
sg35
I00
sg36
I01
sg37
I00
sg38
Nsg39
Nsg40
Nsg41
Nsg42
I00
sg43
Nsg44
I00
sba(iwrapper_utilities.class_data
CppClass
p135
(dp136
g4
Nsg5
(dp137
g7
g8
sg9
g10
sg11
g12
sg13
g14
sg15
g16
sg17
g18
sg19
g20
sS'*'
g21
sg22
g23
sg24
g23
sg25
g26
sg27
g23
ssg28
S'Identifiable'
p138
sg30
I00
sg31
I00
sg32
Nsg33
g88
sg35
I01
sg36
I01
sg37
I00
sg38
Nsg39
Nsg40
Nsg41
Nsg42
I00
sg43
S'/home/grogan/Software/Chaste/global/src/checkpointing/Identifiable.hpp'
p139
sg44
I01
sba(iwrapper_utilities.class_data
CppClass
p140
(dp141
g4
Nsg5
(dp142
g7
g8
sg9
g10
sg11
g12
sg13
g14
sg15
g16
sg17
g18
sg19
g20
sS'*'
g21
sg22
g23
sg24
g23
sg25
g26
sg27
g23
ssg28
S'PetscTools'
p143
sg30
I00
sg31
I00
sg32
Nsg33
g88
sg35
I01
sg36
I01
sg37
I00
sg38
(lp144
S'MASTER_RANK'
p145
asg39
Nsg40
(lp146
S'GetWorld'
p147
asg41
Nsg42
I00
sg43
S'/home/grogan/Software/Chaste/global/src/parallel/PetscTools.hpp'
p148
sg44
I00
sba(iwrapper_utilities.class_data
CppClass
p149
(dp150
g4
Nsg5
(dp151
g7
g8
sg9
g10
sg11
g12
sg13
g14
sg15
g16
sg17
g18
sg19
g20
sS'*'
g21
sg22
g23
sg24
g23
sg25
g26
sg27
g23
ssg28
S'ReplicatableVector'
p152
sg30
I00
sg31
I00
sg32
Nsg33
g88
sg35
I01
sg36
I01
sg37
I00
sg38
Nsg39
Nsg40
Nsg41
Nsg42
I00
sg43
S'/home/grogan/Software/Chaste/global/src/parallel/ReplicatableVector.hpp'
p153
sg44
I00
sba(iwrapper_utilities.class_data
CppClass
p154
(dp155
g4
Nsg5
(dp156
g7
g8
sg9
g10
sg11
g12
sg13
g14
sg15
g16
sg17
g18
sg19
g20
sS'*'
g21
sg22
g23
sg24
g23
sg25
g26
sg27
g23
ssg28
S'Timer'
p157
sg30
I00
sg31
I00
sg32
Nsg33
g88
sg35
I01
sg36
I01
sg37
I00
sg38
Nsg39
Nsg40
Nsg41
Nsg42
I00
sg43
S'/home/grogan/Software/Chaste/global/src/timing/Timer.hpp'
p158
sg44
I00
sba(iwrapper_utilities.class_data
CppClass
p159
(dp160
g4
Nsg5
(dp161
g7
g8
sg9
g10
sg11
g12
sg13
g14
sg15
g16
sg17
g18
sg19
g20
sS'*'
g21
sg22
g23
sg24
g23
sg25
g26
sg27
g23
ssg28
S'UblasIncludes'
p162
sg30
I00
sg31
I00
sg32
Nsg33
g88
sg35
I01
sg36
I01
sg37
I00
sg38
Nsg39
Nsg40
Nsg41
Nsg42
I00
sg43
S'/home/grogan/Software/Chaste/linalg/src/UblasIncludes.hpp'
p163
sg44
I01
sba(iwrapper_utilities.class_data
CppClass
p164
(dp165
g4
Nsg5
(dp166
g7
g8
sg9
g10
sg11
g12
sg13
g14
sg15
g16
sg17
g18
sg19
g20
sS'*'
g21
sg22
g23
sg24
g23
sg25
g26
sg27
g23
ssg28
S'AbstractOdeSystemInformation'
p167
sg30
I00
sg31
I00
sg32
Nsg33
S'ode'
p168
sg35
I01
sg36
I01
sg37
I00
sg38
Nsg39
Nsg40
Nsg41
Nsg42
I00
sg43
S'/home/grogan/Software/Chaste/ode/src/common/AbstractOdeSystemInformation.hpp'
p169
sg44
I00
sba(iwrapper_utilities.class_data
CppClass
p170
(dp171
g4
Nsg5
(dp172
g7
g8
sg9
g10
sg11
g12
sg13
g14
sg15
g16
sg17
g18
sg19
g20
sS'*'
g21
sg22
g23
sg24
g23
sg25
g26
sg27
g23
ssg28
S'AbstractPythonOdeSystemInformation'
p173
sg30
I00
sg31
I00
sg32
Nsg33
g168
sg35
I01
sg36
I01
sg37
I00
sg38
Nsg39
Nsg40
Nsg41
Nsg42
I00
sg43
S'/home/grogan/Software/Chaste/projects/PyChaste/src/ode/AbstractPythonOdeSystemInformation.hpp'
p174
sg44
I00
sba(iwrapper_utilities.class_data
CppClass
p175
(dp176
g4
Nsg5
(dp177
g7
g8
sg9
g10
sg11
g12
sg13
g14
sg15
g16
sg17
g18
sg19
g20
sS'*'
g21
sg22
g23
sg24
g23
sg25
g26
sg27
g23
ssg28
S'AbstractOdeSystem'
p178
sg30
I00
sg31
I00
sg32
Nsg33
g168
sg35
I01
sg36
I01
sg37
I00
sg38
Nsg39
Nsg40
Nsg41
Nsg42
I00
sg43
S'/home/grogan/Software/Chaste/ode/src/common/AbstractOdeSystem.hpp'
p179
sg44
I00
sba(iwrapper_utilities.class_data
CppClass
p180
(dp181
g4
Nsg5
(dp182
g7
g8
sg9
g10
sg11
g12
sg13
g14
sg15
g16
sg17
g18
sg19
g20
sS'*'
g21
sg22
g23
sg24
g23
sg25
g26
sg27
g23
ssg28
S'AbstractLinearPde'
p183
sg30
I00
sg31
I00
sg32
Nsg33
S'pde'
p184
sg35
I01
sg36
I01
sg37
I00
sg38
Nsg39
(lp185
(lp186
I2
aI2
aa(lp187
I3
aI3
aasg40
Nsg41
Nsg42
I00
sg43
S'/home/grogan/Software/Chaste/pde/src/problem/AbstractLinearPde.hpp'
p188
sg44
I00
sba(iwrapper_utilities.class_data
CppClass
p189
(dp190
g4
Nsg5
(dp191
g7
g8
sg9
g10
sg11
g12
sg13
g14
sg15
g16
sg17
g18
sg19
g20
sS'*'
g21
sg22
g23
sg24
g23
sg25
g26
sg27
g23
ssg28
S'AbstractLinearParabolicPde'
p192
sg30
I00
sg31
I00
sg32
Nsg33
g184
sg35
I01
sg36
I01
sg37
I00
sg38
Nsg39
g185
sg40
Nsg41
Nsg42
I00
sg43
S'/home/grogan/Software/Chaste/pde/src/problem/AbstractLinearParabolicPde.hpp'
p193
sg44
I00
sba(iwrapper_utilities.class_data
CppClass
p194
(dp195
g4
Nsg5
(dp196
g7
g8
sg9
g10
sg11
g12
sg13
g14
sg15
g16
sg17
g18
sg19
g20
sS'*'
g21
sg22
g23
sg24
g23
sg25
g26
sg27
g23
ssg28
S'AbstractLinearEllipticPde'
p197
sg30
I00
sg31
I00
sg32
Nsg33
g184
sg35
I01
sg36
I01
sg37
I00
sg38
Nsg39
g185
sg40
Nsg41
Nsg42
I00
sg43
S'/home/grogan/Software/Chaste/pde/src/problem/AbstractLinearEllipticPde.hpp'
p198
sg44
I00
sba(iwrapper_utilities.class_data
CppClass
p199
(dp200
g4
Nsg5
(dp201
g7
g8
sg9
g10
sg11
g12
sg13
g14
sg15
g16
sg17
g18
sg19
g20
sS'*'
g21
sg22
g23
sg24
g23
sg25
g26
sg27
g23
ssg28
S'AbstractNonlinearEllipticPde'
p202
sg30
I00
sg31
I00
sg32
Nsg33
g184
sg35
I01
sg36
I01
sg37
I00
sg38
Nsg39
(lp203
(lp204
I2
aa(lp205
I3
aasg40
Nsg41
Nsg42
I00
sg43
S'/home/grogan/Software/Chaste/pde/src/problem/AbstractNonlinearEllipticPde.hpp'
p206
sg44
I00
sba(iwrapper_utilities.class_data
CppClass
p207
(dp208
g4
Nsg5
(dp209
g7
g8
sg9
g10
sg11
g12
sg13
g14
sg15
g16
sg17
g18
sg19
g20
sS'*'
g21
sg22
g23
sg24
g23
sg25
g26
sg27
g23
ssg28
S'AbstractBoundaryCondition'
p210
sg30
I00
sg31
I00
sg32
Nsg33
g184
sg35
I01
sg36
I01
sg37
I00
sg38
Nsg39
g203
sg40
Nsg41
Nsg42
I00
sg43
S'/home/grogan/Software/Chaste/pde/src/common/AbstractBoundaryCondition.hpp'
p211
sg44
I00
sba(iwrapper_utilities.class_data
CppClass
p212
(dp213
g4
Nsg5
(dp214
g7
g8
sg9
g10
sg11
g12
sg13
g14
sg15
g16
sg17
g18
sg19
g20
sS'*'
g21
sg22
g23
sg24
g23
sg25
g26
sg27
g23
ssg28
S'ConstBoundaryCondition'
p215
sg30
I00
sg31
I00
sg32
Nsg33
g184
sg35
I01
sg36
I01
sg37
I00
sg38
Nsg39
g203
sg40
Nsg41
Nsg42
I00
sg43
S'/home/grogan/Software/Chaste/pde/src/common/ConstBoundaryCondition.hpp'
p216
sg44
I00
sba(iwrapper_utilities.class_data
CppClass
p217
(dp218
g4
Nsg5
(dp219
g7
g8
sg9
g10
sg11
g12
sg13
g14
sg15
g16
sg17
g18
sg19
g20
sS'*'
g21
sg22
g23
sg24
g23
sg25
g26
sg27
g23
ssg28
S'PdeSimulationTime'
p220
sg30
I00
sg31
I00
sg32
Nsg33
g184
sg35
I01
sg36
I01
sg37
I00
sg38
Nsg39
Nsg40
Nsg41
Nsg42
I00
sg43
S'/home/grogan/Software/Chaste/pde/src/common/PdeSimulationTime.hpp'
p221
sg44
I00
sba(iwrapper_utilities.class_data
CppClass
p222
(dp223
g4
Nsg5
(dp224
g7
g8
sg9
g10
sg11
g12
sg13
g14
sg15
g16
sg17
g18
sg19
g20
sS'*'
g21
sg22
g23
sg24
g23
sg25
g26
sg27
g23
ssg28
S'ChastePoint'
p225
sg30
I00
sg31
I00
sg32
Nsg33
S'mesh'
p226
sg35
I01
sg36
I01
sg37
I00
sg38
Nsg39
g203
sg40
Nsg41
Nsg42
I00
sg43
S'/home/grogan/Software/Chaste/mesh/src/common/ChastePoint.hpp'
p227
sg44
I00
sba(iwrapper_utilities.class_data
CppClass
p228
(dp229
g4
Nsg5
(dp230
g7
g8
sg9
g10
sg11
g12
sg13
g14
sg15
g16
sg17
g18
sg19
g20
sS'*'
g21
sg22
g23
sg24
g23
sg25
g26
sg27
g23
ssg28
S'NodeAttributes'
p231
sg30
I00
sg31
I00
sg32
Nsg33
g226
sg35
I01
sg36
I01
sg37
I00
sg38
Nsg39
g203
sg40
Nsg41
Nsg42
I00
sg43
S'/home/grogan/Software/Chaste/mesh/src/common/NodeAttributes.hpp'
p232
sg44
I00
sba(iwrapper_utilities.class_data
CppClass
p233
(dp234
g4
Nsg5
(dp235
g7
g8
sg9
g10
sg11
g12
sg13
g14
sg15
g16
sg17
g18
sg19
g20
sS'*'
g21
sg22
g23
sg24
g23
sg25
g26
sg27
g23
ssg28
S'Node'
p236
sg30
I00
sg31
I00
sg32
Nsg33
g226
sg35
I01
sg36
I01
sg37
I00
sg38
Nsg39
g203
sg40
Nsg41
Nsg42
I01
sg43
S'/home/grogan/Software/Chaste/mesh/src/common/Node.hpp'
p237
sg44
I00
sba(iwrapper_utilities.class_data
CppClass
p238
(dp239
g4
Nsg5
(dp240
g7
g8
sg9
g10
sg11
g12
sg13
g14
sg15
g16
sg17
g18
sg19
g20
sS'*'
g21
sg22
g23
sg24
g23
sg25
g26
sg27
g23
ssg28
S'Element'
p241
sg30
I00
sg31
I00
sg32
Nsg33
g226
sg35
I01
sg36
I01
sg37
I00
sg38
Nsg39
g185
sg40
(lp242
S'CalculateCircumsphereVolume'
p243
asg41
Nsg42
I01
sg43
S'/home/grogan/Software/Chaste/mesh/src/common/Element.hpp'
p244
sg44
I00
sba(iwrapper_utilities.class_data
CppClass
p245
(dp246
g4
Nsg5
(dp247
g7
g8
sg9
g10
sg11
g12
sg13
g14
sg15
g16
sg17
g18
sg19
g20
sS'*'
g21
sg22
g23
sg24
g23
sg25
g26
sg27
g23
ssg28
S'NodesOnlyMesh'
p248
sg30
I00
sg31
I00
sg32
Nsg33
g226
sg35
I01
sg36
I01
sg37
I00
sg38
Nsg39
g203
sg40
Nsg41
Nsg42
I00
sg43
S'/home/grogan/Software/Chaste/mesh/src/common/NodesOnlyMesh.hpp'
p249
sg44
I00
sba(iwrapper_utilities.class_data
CppClass
p250
(dp251
g4
Nsg5
(dp252
g7
g8
sg9
g10
sg11
g12
sg13
g14
sg15
g16
sg17
g18
sg19
g20
sS'*'
g21
sg22
g23
sg24
g23
sg25
g26
sg27
g23
ssg28
S'MutableMesh'
p253
sg30
I00
sg31
I00
sg32
Nsg33
g226
sg35
I01
sg36
I01
sg37
I00
sg38
Nsg39
g185
sg40
(lp254
S'SplitLongEdges'
p255
aS'RescaleMeshFromBoundaryNode'
p256
asg41
Nsg42
I00
sg43
S'/home/grogan/Software/Chaste/mesh/src/common/MutableMesh.hpp'
p257
sg44
I00
sba(iwrapper_utilities.class_data
CppClass
p258
(dp259
g4
Nsg5
(dp260
g7
g8
sg9
g10
sg11
g12
sg13
g14
sg15
g16
sg17
g18
sg19
g20
sS'*'
g21
sg22
g23
sg24
g23
sg25
g26
sg27
g23
ssg28
S'PottsMesh'
p261
sg30
I00
sg31
I00
sg32
Nsg33
g226
sg35
I01
sg36
I01
sg37
I00
sg38
Nsg39
g203
sg40
Nsg41
Nsg42
I00
sg43
S'/home/grogan/Software/Chaste/cell_based/src/mesh/PottsMesh.hpp'
p262
sg44
I00
sba(iwrapper_utilities.class_data
CppClass
p263
(dp264
g4
Nsg5
(dp265
g7
g8
sg9
g10
sg11
g12
sg13
g14
sg15
g16
sg17
g18
sg19
g20
sS'*'
g21
sg22
g23
sg24
g23
sg25
g26
sg27
g23
ssg28
S'SharedPottsMeshGenerator'
p266
sg30
I00
sg31
I00
sg32
Nsg33
g226
sg35
I01
sg36
I01
sg37
I00
sg38
Nsg39
g203
sg40
Nsg41
S'PottsMeshGenerator'
p267
sg42
I00
sg43
S'/home/grogan/Software/Chaste/projects/PyChaste/src/mesh/SharedPottsMeshGenerator.hpp'
p268
sg44
I00
sba(iwrapper_utilities.class_data
CppClass
p269
(dp270
g4
Nsg5
(dp271
g7
g8
sg9
g10
sg11
g12
sg13
g14
sg15
g16
sg17
g18
sg19
g20
sS'*'
g21
sg22
g23
sg24
g23
sg25
g26
sg27
g23
ssg28
S'PottsElement'
p272
sg30
I00
sg31
I00
sg32
Nsg33
g226
sg35
I01
sg36
I01
sg37
I00
sg38
Nsg39
g203
sg40
Nsg41
Nsg42
I01
sg43
S'/home/grogan/Software/Chaste/cell_based/src/mesh/PottsElement.hpp'
p273
sg44
I00
sba(iwrapper_utilities.class_data
CppClass
p274
(dp275
g4
Nsg5
(dp276
g7
g8
sg9
g10
sg11
g12
sg13
g14
sg15
g16
sg17
g18
sg19
g20
sS'*'
g21
sg22
g23
sg24
g23
sg25
g26
sg27
g23
ssg28
S'TetrahedralMesh'
p277
sg30
I00
sg31
I00
sg32
Nsg33
g226
sg35
I01
sg36
I01
sg37
I00
sg38
Nsg39
g185
sg40
(lp278
S'FreeTriangulateIo'
p279
aS'InitialiseTriangulateIo'
p280
asg41
Nsg42
I00
sg43
S'/home/grogan/Software/Chaste/mesh/src/common/TetrahedralMesh.hpp'
p281
sg44
I00
sba(iwrapper_utilities.class_data
CppClass
p282
(dp283
g4
Nsg5
(dp284
g7
g8
sg9
g10
sg11
g12
sg13
g14
sg15
g16
sg17
g18
sg19
g20
sS'*'
g21
sg22
g23
sg24
g23
sg25
g26
sg27
g23
ssg28
S'AbstractTetrahedralMesh'
p285
sg30
I00
sg31
I00
sg32
Nsg33
g226
sg35
I01
sg36
I01
sg37
I00
sg38
Nsg39
g185
sg40
Nsg41
Nsg42
I00
sg43
S'/home/grogan/Software/Chaste/mesh/src/common/AbstractTetrahedralMesh.hpp'
p286
sg44
I00
sba(iwrapper_utilities.class_data
CppClass
p287
(dp288
g4
Nsg5
(dp289
g7
g8
sg9
g10
sg11
g12
sg13
g14
sg15
g16
sg17
g18
sg19
g20
sS'*'
g21
sg22
g23
sg24
g23
sg25
g26
sg27
g23
ssg28
S'AbstractMesh'
p290
sg30
I00
sg31
I00
sg32
Nsg33
g226
sg35
I01
sg36
I01
sg37
I00
sg38
Nsg39
g185
sg40
Nsg41
Nsg42
I00
sg43
S'/home/grogan/Software/Chaste/mesh/src/common/AbstractMesh.hpp'
p291
sg44
I00
sba(iwrapper_utilities.class_data
CppClass
p292
(dp293
g4
Nsg5
(dp294
g7
g8
sg9
g10
sg11
g12
sg13
g14
sg15
g16
sg17
g18
sg19
g20
sS'*'
g21
sg22
g23
sg24
g23
sg25
g26
sg27
g23
ssg28
S'VertexMesh'
p295
sg30
I00
sg31
I00
sg32
Nsg33
g226
sg35
I01
sg36
I01
sg37
I00
sg38
Nsg39
g185
sg40
(lp296
S'GetFace'
p297
asg41
Nsg42
I00
sg43
S'/home/grogan/Software/Chaste/mesh/src/vertex/VertexMesh.hpp'
p298
sg44
I00
sba(iwrapper_utilities.class_data
CppClass
p299
(dp300
g4
Nsg5
(dp301
g7
g8
sg9
g10
sg11
g12
sg13
g14
sg15
g16
sg17
g18
sg19
g20
sS'*'
g21
sg22
g23
sg24
g23
sg25
g26
sg27
g23
ssg28
S'MutableVertexMesh'
p302
sg30
I00
sg31
I00
sg32
Nsg33
g226
sg35
I01
sg36
I01
sg37
I00
sg38
Nsg39
g185
sg40
Nsg41
Nsg42
I00
sg43
S'/home/grogan/Software/Chaste/mesh/src/vertex/MutableVertexMesh.hpp'
p303
sg44
I00
sba(iwrapper_utilities.class_data
CppClass
p304
(dp305
g4
Nsg5
(dp306
g7
g8
sg9
g10
sg11
g12
sg13
g14
sg15
g16
sg17
g18
sg19
g20
sS'*'
g21
sg22
g23
sg24
g23
sg25
g26
sg27
g23
ssg28
S'Cylindrical2dVertexMesh'
p307
sg30
I00
sg31
I00
sg32
Nsg33
g226
sg35
I01
sg36
I01
sg37
I00
sg38
Nsg39
Nsg40
Nsg41
Nsg42
I00
sg43
S'/home/grogan/Software/Chaste/mesh/src/vertex/Cylindrical2dVertexMesh.hpp'
p308
sg44
I00
sba(iwrapper_utilities.class_data
CppClass
p309
(dp310
g4
Nsg5
(dp311
g7
g8
sg9
g10
sg11
g12
sg13
g14
sg15
g16
sg17
g18
sg19
g20
sS'*'
g21
sg22
g23
sg24
g23
sg25
g26
sg27
g23
ssg28
S'SharedHoneycombMeshGenerator'
p312
sg30
I00
sg31
I00
sg32
Nsg33
g226
sg35
I01
sg36
I01
sg37
I00
sg38
Nsg39
Nsg40
Nsg41
S'HoneycombMeshGenerator'
p313
sg42
I00
sg43
S'/home/grogan/Software/Chaste/projects/PyChaste/src/mesh/SharedHoneycombMeshGenerator.hpp'
p314
sg44
I00
sba(iwrapper_utilities.class_data
CppClass
p315
(dp316
g4
Nsg5
(dp317
g7
g8
sg9
g10
sg11
g12
sg13
g14
sg15
g16
sg17
g18
sg19
g20
sS'*'
g21
sg22
g23
sg24
g23
sg25
g26
sg27
g23
ssg28
S'SharedHoneycombVertexMeshGenerator'
p318
sg30
I00
sg31
I00
sg32
Nsg33
g226
sg35
I01
sg36
I01
sg37
I00
sg38
Nsg39
Nsg40
Nsg41
S'HoneycombVertexMeshGenerator'
p319
sg42
I00
sg43
S'/home/grogan/Software/Chaste/projects/PyChaste/src/mesh/SharedHoneycombVertexMeshGenerator.hpp'
p320
sg44
I00
sba(iwrapper_utilities.class_data
CppClass
p321
(dp322
g4
Nsg5
(dp323
g7
g8
sg9
g10
sg11
g12
sg13
g14
sg15
g16
sg17
g18
sg19
g20
sS'*'
g21
sg22
g23
sg24
g23
sg25
g26
sg27
g23
ssg28
S'SharedCylindricalHoneycombVertexMeshGenerator'
p324
sg30
I00
sg31
I00
sg32
Nsg33
g226
sg35
I01
sg36
I01
sg37
I00
sg38
Nsg39
Nsg40
Nsg41
S'CylindricalHoneycombVertexMeshGenerator'
p325
sg42
I00
sg43
S'/home/grogan/Software/Chaste/projects/PyChaste/src/mesh/SharedCylindricalHoneycombVertexMeshGenerator.hpp'
p326
sg44
I00
sba(iwrapper_utilities.class_data
CppClass
p327
(dp328
g4
Nsg5
(dp329
g7
g8
sg9
g10
sg11
g12
sg13
g14
sg15
g16
sg17
g18
sg19
g20
sS'*'
g21
sg22
g23
sg24
g23
sg25
g26
sg27
g23
ssg28
S'std::pair'
p330
sg30
I00
sg31
I00
sg32
Nsg33
Nsg35
I00
sg36
I00
sg37
I01
sg38
Nsg39
(lp331
(lp332
S'Node3Ptr, Node3Ptr'
p333
aa(lp334
S'Node2Ptr, Node2Ptr'
p335
aasg40
Nsg41
Nsg42
I00
sg43
Nsg44
I00
sba(iwrapper_utilities.class_data
CppClass
p336
(dp337
g4
Nsg5
(dp338
g7
g8
sg9
g10
sg11
g12
sg13
g14
sg15
g16
sg17
g18
sg19
g20
sS'*'
g21
sg22
g23
sg24
g23
sg25
g26
sg27
g23
ssg28
g60
sg30
I00
sg31
I00
sg32
Nsg33
Nsg35
I00
sg36
I00
sg37
I01
sg38
Nsg39
(lp339
(lp340
S'PairNode3PtrNode3Ptr'
p341
aa(lp342
S'PairNode2PtrNode2Ptr'
p343
aa(lp344
S'VertexElement<1,2>*'
p345
aa(lp346
S'VertexElement<2,2>*'
p347
aa(lp348
S'VertexElement<2,3>*'
p349
aa(lp350
S'VertexElement<3,3>*'
p351
aasg40
Nsg41
Nsg42
I00
sg43
Nsg44
I00
sba(iwrapper_utilities.class_data
CppClass
p352
(dp353
g4
Nsg5
(dp354
g7
g8
sg9
g10
sg11
g12
sg13
g14
sg15
g16
sg17
g18
sg19
g20
sS'*'
g21
sg22
g23
sg24
g23
sg25
g26
sg27
g23
ssg28
g54
sg30
I00
sg31
I00
sg32
Nsg33
S'cell_based'
p355
sg35
I00
sg36
I00
sg37
I01
sg38
Nsg39
(lp356
(lp357
S'CellPtr'
p358
aasg40
Nsg41
Nsg42
I00
sg43
Nsg44
I00
sba(iwrapper_utilities.class_data
CppClass
p359
(dp360
g4
Nsg5
(dp361
g7
g8
sg9
g10
sg11
g12
sg13
g14
sg15
g16
sg17
g18
sg19
g20
sS'*'
g21
sg22
g23
sg24
g23
sg25
g26
sg27
g23
ssg28
g48
sg30
I00
sg31
I00
sg32
Nsg33
g355
sg35
I00
sg36
I00
sg37
I01
sg38
Nsg39
(lp362
(lp363
S'Node2Ptr, c_vector<double, 2> '
p364
aa(lp365
S'Node3Ptr, c_vector<double, 3> '
p366
aa(lp367
S'CellPtr, unsigned'
p368
aasg40
Nsg41
Nsg42
I00
sg43
Nsg44
I00
sba(iwrapper_utilities.class_data
CppClass
p369
(dp370
g4
Nsg5
(dp371
g7
g8
sg9
g10
sg11
g12
sg13
g14
sg15
g16
sg17
g18
sg19
g20
sS'*'
g21
sg22
g23
sg24
g23
sg25
g26
sg27
g23
ssg28
S'AbstractCellBasedSimulation'
p372
sg30
I00
sg31
I00
sg32
Nsg33
g355
sg35
I01
sg36
I01
sg37
I00
sg38
Nsg39
g185
sg40
(lp373
S'GetSimulationModifiers'
p374
asg41
Nsg42
I00
sg43
S'/home/grogan/Software/Chaste/cell_based/src/simulation/AbstractCellBasedSimulation.hpp'
p375
sg44
I00
sba(iwrapper_utilities.class_data
CppClass
p376
(dp377
g4
Nsg5
(dp378
g7
g8
sg9
g10
sg11
g12
sg13
g14
sg15
g16
sg17
g18
sg19
g20
sS'*'
g21
sg22
g23
sg24
g23
sg25
g26
sg27
g23
ssg28
S'SimulationTime'
p379
sg30
I00
sg31
I00
sg32
Nsg33
g355
sg35
I01
sg36
I01
sg37
I00
sg38
Nsg39
Nsg40
Nsg41
Nsg42
I00
sg43
S'/home/grogan/Software/Chaste/cell_based/src/common/SimulationTime.hpp'
p380
sg44
I00
sba(iwrapper_utilities.class_data
CppClass
p381
(dp382
g4
Nsg5
(dp383
g7
g8
sg9
g10
sg11
g12
sg13
g14
sg15
g16
sg17
g18
sg19
g20
sS'*'
g21
sg22
g23
sg24
g23
sg25
g26
sg27
g23
ssg28
S'OnLatticeSimulation'
p384
sg30
I00
sg31
I00
sg32
Nsg33
g355
sg35
I01
sg36
I01
sg37
I00
sg38
Nsg39
g203
sg40
Nsg41
Nsg42
I00
sg43
S'/home/grogan/Software/Chaste/cell_based/src/simulation/OnLatticeSimulation.hpp'
p385
sg44
I00
sba(iwrapper_utilities.class_data
CppClass
p386
(dp387
g4
Nsg5
(dp388
g7
g8
sg9
g10
sg11
g12
sg13
g14
sg15
g16
sg17
g18
sg19
g20
sS'*'
g21
sg22
g23
sg24
g23
sg25
g26
sg27
g23
ssg28
S'OffLatticeSimulation'
p389
sg30
I00
sg31
I00
sg32
Nsg33
g355
sg35
I01
sg36
I01
sg37
I00
sg38
Nsg39
g185
sg40
Nsg41
Nsg42
I00
sg43
S'/home/grogan/Software/Chaste/cell_based/src/simulation/OffLatticeSimulation.hpp'
p390
sg44
I00
sba(iwrapper_utilities.class_data
CppClass
p391
(dp392
g4
Nsg5
(dp393
g7
g8
sg9
g10
sg11
g12
sg13
g14
sg15
g16
sg17
g18
sg19
g20
sS'*'
g21
sg22
g23
sg24
g23
sg25
g26
sg27
g23
ssg28
S'AbstractCellPopulation'
p394
sg30
I00
sg31
I00
sg32
Nsg33
g355
sg35
I01
sg36
I01
sg37
I00
sg38
Nsg39
g185
sg40
(lp395
S'rGetCells'
p396
asg41
Nsg42
I00
sg43
S'/home/grogan/Software/Chaste/cell_based/src/population/AbstractCellPopulation.hpp'
p397
sg44
I00
sba(iwrapper_utilities.class_data
CppClass
p398
(dp399
g4
Nsg5
(dp400
g7
g8
sg9
g10
sg11
g12
sg13
g14
sg15
g16
sg17
g18
sg19
g20
sS'*'
g21
sg22
g23
sg24
g23
sg25
g26
sg27
g23
ssg28
S'AbstractOnLatticeCellPopulation'
p401
sg30
I00
sg31
I00
sg32
Nsg33
g355
sg35
I01
sg36
I01
sg37
I00
sg38
Nsg39
g203
sg40
Nsg41
Nsg42
I00
sg43
S'/home/grogan/Software/Chaste/cell_based/src/population/AbstractOnLatticeCellPopulation.hpp'
p402
sg44
I00
sba(iwrapper_utilities.class_data
CppClass
p403
(dp404
g4
Nsg5
(dp405
g7
g8
sg9
g10
sg11
g12
sg13
g14
sg15
g16
sg17
g18
sg19
g20
sS'*'
g21
sg22
g23
sg24
g23
sg25
g26
sg27
g23
ssg28
S'AbstractCentreBasedCellPopulation'
p406
sg30
I00
sg31
I00
sg32
Nsg33
g355
sg35
I01
sg36
I01
sg37
I00
sg38
Nsg39
g185
sg40
(lp407
S'GetNodeCorrespondingToCell'
p408
asg41
Nsg42
I00
sg43
S'/home/grogan/Software/Chaste/cell_based/src/population/AbstractCentreBasedCellPopulation.hpp'
p409
sg44
I00
sba(iwrapper_utilities.class_data
CppClass
p410
(dp411
g4
Nsg5
(dp412
g7
g8
sg9
g10
sg11
g12
sg13
g14
sg15
g16
sg17
g18
sg19
g20
sS'*'
g21
sg22
g23
sg24
g23
sg25
g26
sg27
g23
ssg28
S'AbstractOffLatticeCellPopulation'
p413
sg30
I00
sg31
I00
sg32
Nsg33
g355
sg35
I01
sg36
I01
sg37
I00
sg38
Nsg39
g185
sg40
Nsg41
Nsg42
I00
sg43
S'/home/grogan/Software/Chaste/cell_based/src/population/AbstractOffLatticeCellPopulation.hpp'
p414
sg44
I00
sba(iwrapper_utilities.class_data
CppClass
p415
(dp416
g4
Nsg5
(dp417
g7
g8
sg9
g10
sg11
g12
sg13
g14
sg15
g16
sg17
g18
sg19
g20
sS'*'
g21
sg22
g23
sg24
g23
sg25
g26
sg27
g23
ssg28
S'CaBasedCellPopulation'
p418
sg30
I00
sg31
I00
sg32
Nsg33
g355
sg35
I01
sg36
I01
sg37
I00
sg38
Nsg39
g203
sg40
(lp419
S'rGetMesh'
p420
aS'GetTetrahedralMeshForPdeModifierGetNodeCorrespondingToCell'
p421
aS'rGetAvailableSpaces'
p422
asg41
Nsg42
I00
sg43
S'/home/grogan/Software/Chaste/cell_based/src/population/CaBasedCellPopulation.hpp'
p423
sg44
I00
sba(iwrapper_utilities.class_data
CppClass
p424
(dp425
g4
Nsg5
(dp426
g7
g8
sg9
g10
sg11
g12
sg13
g14
sg15
g16
sg17
g18
sg19
g20
sS'*'
g21
sg22
g23
sg24
g23
sg25
g26
sg27
g23
ssg28
S'MeshBasedCellPopulation'
p427
sg30
I00
sg31
I00
sg32
Nsg33
g355
sg35
I01
sg36
I01
sg37
I00
sg38
Nsg39
g185
sg40
(lp428
S'GetVoronoiTessellation, rGetNodePairs, GetTetrahedralMeshForPdeModifier'
p429
ag420
asg41
Nsg42
I00
sg43
S'/home/grogan/Software/Chaste/cell_based/src/population/MeshBasedCellPopulation.hpp'
p430
sg44
I00
sba(iwrapper_utilities.class_data
CppClass
p431
(dp432
g4
Nsg5
(dp433
g7
g8
sg9
g10
sg11
g12
sg13
g14
sg15
g16
sg17
g18
sg19
g20
sS'*'
g21
sg22
g23
sg24
g23
sg25
g26
sg27
g23
ssg28
S'MeshBasedCellPopulationWithGhostNodes'
p434
sg30
I00
sg31
I00
sg32
Nsg33
g355
sg35
I01
sg36
I01
sg37
I00
sg38
Nsg39
g203
sg40
Nsg41
Nsg42
I00
sg43
S'/home/grogan/Software/Chaste/cell_based/src/population/MeshBasedCellPopulationWithGhostNodes.hpp'
p435
sg44
I00
sba(iwrapper_utilities.class_data
CppClass
p436
(dp437
g4
Nsg5
(dp438
g7
g8
sg9
g10
sg11
g12
sg13
g14
sg15
g16
sg17
g18
sg19
g20
sS'*'
g21
sg22
g23
sg24
g23
sg25
g26
sg27
g23
ssg28
S'VertexBasedCellPopulation'
p439
sg30
I00
sg31
I00
sg32
Nsg33
g355
sg35
I01
sg36
I01
sg37
I00
sg38
Nsg39
g203
sg40
(lp440
g420
aS'GetTetrahedralMeshForPdeModifier'
p441
aS'GetElement'
p442
aS'GetElementCorrespondingToCell'
p443
asg41
Nsg42
I00
sg43
S'/home/grogan/Software/Chaste/cell_based/src/population/VertexBasedCellPopulation.hpp'
p444
sg44
I00
sba(iwrapper_utilities.class_data
CppClass
p445
(dp446
g4
Nsg5
(dp447
g7
g8
sg9
g10
sg11
g12
sg13
g14
sg15
g16
sg17
g18
sg19
g20
sS'*'
g21
sg22
g23
sg24
g23
sg25
g26
sg27
g23
ssg28
S'PottsBasedCellPopulation'
p448
sg30
I00
sg31
I00
sg32
Nsg33
g355
sg35
I01
sg36
I01
sg37
I00
sg38
Nsg39
g203
sg40
(lp449
g420
ag441
ag442
ag443
aS'GetElementTessellation'
p450
aS'GetMutableMesh'
p451
asg41
Nsg42
I00
sg43
S'/home/grogan/Software/Chaste/cell_based/src/population/PottsBasedCellPopulation.hpp'
p452
sg44
I00
sba(iwrapper_utilities.class_data
CppClass
p453
(dp454
g4
Nsg5
(dp455
g7
g8
sg9
g10
sg11
g12
sg13
g14
sg15
g16
sg17
g18
sg19
g20
sS'*'
g21
sg22
g23
sg24
g23
sg25
g26
sg27
g23
ssg28
S'NodeBasedCellPopulation'
p456
sg30
I00
sg31
I00
sg32
Nsg33
g355
sg35
I01
sg36
I01
sg37
I00
sg38
Nsg39
g203
sg40
(lp457
g420
ag441
aS'rGetNodePairs'
p458
asg41
Nsg42
I00
sg43
S'/home/grogan/Software/Chaste/cell_based/src/population/NodeBasedCellPopulation.hpp'
p459
sg44
I00
sba(iwrapper_utilities.class_data
CppClass
p460
(dp461
g4
Nsg5
(dp462
g7
g8
sg9
g10
sg11
g12
sg13
g14
sg15
g16
sg17
g18
sg19
g20
sS'*'
g21
sg22
g23
sg24
g23
sg25
g26
sg27
g23
ssg28
S'VoronoiDataWriter'
p463
sg30
I00
sg31
I00
sg32
Nsg33
g355
sg35
I01
sg36
I01
sg37
I00
sg38
Nsg39
g185
sg40
Nsg41
Nsg42
I00
sg43
S'/home/grogan/Software/Chaste/cell_based/src/writers/population_writers/VoronoiDataWriter.hpp'
p464
sg44
I00
sba(iwrapper_utilities.class_data
CppClass
p465
(dp466
g4
Nsg5
(dp467
g7
g8
sg9
g10
sg11
g12
sg13
g14
sg15
g16
sg17
g18
sg19
g20
sS'*'
g21
sg22
g23
sg24
g23
sg25
g26
sg27
g23
ssg28
S'CellLabelWriter'
p468
sg30
I00
sg31
I00
sg32
Nsg33
g355
sg35
I01
sg36
I01
sg37
I00
sg38
Nsg39
g185
sg40
Nsg41
Nsg42
I00
sg43
S'/home/grogan/Software/Chaste/cell_based/src/writers/cell_writers/CellLabelWriter.hpp'
p469
sg44
I00
sba(iwrapper_utilities.class_data
CppClass
p470
(dp471
g4
Nsg5
(dp472
g7
g8
sg9
g10
sg11
g12
sg13
g14
sg15
g16
sg17
g18
sg19
g20
sS'*'
g21
sg22
g23
sg24
g23
sg25
g26
sg27
g23
ssg28
S'AbstractCellPopulationBoundaryCondition'
p473
sg30
I00
sg31
I00
sg32
Nsg33
g355
sg35
I01
sg36
I01
sg37
I00
sg38
Nsg39
g185
sg40
Nsg41
Nsg42
I00
sg43
S'/home/grogan/Software/Chaste/cell_based/src/population/boundary_conditions/AbstractCellPopulationBoundaryCondition.hpp'
p474
sg44
I00
sba(iwrapper_utilities.class_data
CppClass
p475
(dp476
g4
Nsg5
(dp477
g7
g8
sg9
g10
sg11
g12
sg13
g14
sg15
g16
sg17
g18
sg19
g20
sS'*'
g21
sg22
g23
sg24
g23
sg25
g26
sg27
g23
ssg28
S'PlaneBoundaryCondition'
p478
sg30
I00
sg31
I00
sg32
Nsg33
g355
sg35
I01
sg36
I01
sg37
I00
sg38
Nsg39
g185
sg40
Nsg41
Nsg42
I00
sg43
S'/home/grogan/Software/Chaste/cell_based/src/population/boundary_conditions/PlaneBoundaryCondition.hpp'
p479
sg44
I00
sba(iwrapper_utilities.class_data
CppClass
p480
(dp481
g4
Nsg5
(dp482
g7
g8
sg9
g10
sg11
g12
sg13
g14
sg15
g16
sg17
g18
sg19
g20
sS'*'
g21
sg22
g23
sg24
g23
sg25
g26
sg27
g23
ssg28
S'AttractingPlaneBoundaryCondition'
p483
sg30
I00
sg31
I00
sg32
Nsg33
g355
sg35
I01
sg36
I01
sg37
I00
sg38
Nsg39
g185
sg40
Nsg41
Nsg42
I00
sg43
S'/home/grogan/Software/Chaste/projects/PyChaste/src/cell_based/AttractingPlaneBoundaryCondition.hpp'
p484
sg44
I00
sba(iwrapper_utilities.class_data
CppClass
p485
(dp486
g4
Nsg5
(dp487
g7
g8
sg9
g10
sg11
g12
sg13
g14
sg15
g16
sg17
g18
sg19
g20
sS'*'
g21
sg22
g23
sg24
g23
sg25
g26
sg27
g23
ssg28
S'SphereGeometryBoundaryCondition'
p488
sg30
I00
sg31
I00
sg32
Nsg33
g355
sg35
I01
sg36
I01
sg37
I00
sg38
Nsg39
g203
sg40
Nsg41
Nsg42
I00
sg43
S'/home/grogan/Software/Chaste/cell_based/src/population/boundary_conditions/SphereGeometryBoundaryCondition.hpp'
p489
sg44
I00
sba(iwrapper_utilities.class_data
CppClass
p490
(dp491
g4
Nsg5
(dp492
g7
g8
sg9
g10
sg11
g12
sg13
g14
sg15
g16
sg17
g18
sg19
g20
sS'*'
g21
sg22
g23
sg24
g23
sg25
g26
sg27
g23
ssg28
S'AbstractCellKiller'
p493
sg30
I00
sg31
I00
sg32
Nsg33
g355
sg35
I01
sg36
I01
sg37
I00
sg38
Nsg39
g203
sg40
Nsg41
Nsg42
I00
sg43
S'/home/grogan/Software/Chaste/cell_based/src/population/killers/AbstractCellKiller.hpp'
p494
sg44
I00
sba(iwrapper_utilities.class_data
CppClass
p495
(dp496
g4
Nsg5
(dp497
g7
g8
sg9
g10
sg11
g12
sg13
g14
sg15
g16
sg17
g18
sg19
g20
sS'*'
g21
sg22
g23
sg24
g23
sg25
g26
sg27
g23
ssg28
S'PlaneBasedCellKiller'
p498
sg30
I00
sg31
I00
sg32
Nsg33
g355
sg35
I01
sg36
I01
sg37
I00
sg38
Nsg39
g203
sg40
Nsg41
Nsg42
I00
sg43
S'/home/grogan/Software/Chaste/cell_based/src/population/killers/PlaneBasedCellKiller.hpp'
p499
sg44
I00
sba(iwrapper_utilities.class_data
CppClass
p500
(dp501
g4
Nsg5
(dp502
g7
g8
sg9
g10
sg11
g12
sg13
g14
sg15
g16
sg17
g18
sg19
g20
sS'*'
g21
sg22
g23
sg24
g23
sg25
g26
sg27
g23
ssg28
S'ApoptoticCellKiller'
p503
sg30
I00
sg31
I00
sg32
Nsg33
g355
sg35
I01
sg36
I01
sg37
I00
sg38
Nsg39
g203
sg40
Nsg41
Nsg42
I00
sg43
S'/home/grogan/Software/Chaste/cell_based/src/population/killers/ApoptoticCellKiller.hpp'
p504
sg44
I00
sba(iwrapper_utilities.class_data
CppClass
p505
(dp506
g4
Nsg5
(dp507
g7
g8
sg9
g10
sg11
g12
sg13
g14
sg15
g16
sg17
g18
sg19
g20
sS'*'
g21
sg22
g23
sg24
g23
sg25
g26
sg27
g23
ssg28
S'AbstractForce'
p508
sg30
I00
sg31
I00
sg32
Nsg33
g355
sg35
I01
sg36
I01
sg37
I00
sg38
Nsg39
g185
sg40
Nsg41
Nsg42
I01
sg43
S'/home/grogan/Software/Chaste/cell_based/src/population/forces/AbstractForce.hpp'
p509
sg44
I00
sba(iwrapper_utilities.class_data
CppClass
p510
(dp511
g4
Nsg5
(dp512
g7
g8
sg9
g10
sg11
g12
sg13
g14
sg15
g16
sg17
g18
sg19
g20
sS'*'
g21
sg22
g23
sg24
g23
sg25
g26
sg27
g23
ssg28
S'AbstractTwoBodyInteractionForce'
p513
sg30
I00
sg31
I00
sg32
Nsg33
g355
sg35
I01
sg36
I01
sg37
I00
sg38
Nsg39
g185
sg40
Nsg41
Nsg42
I00
sg43
S'/home/grogan/Software/Chaste/cell_based/src/population/forces/AbstractTwoBodyInteractionForce.hpp'
p514
sg44
I00
sba(iwrapper_utilities.class_data
CppClass
p515
(dp516
g4
Nsg5
(dp517
g7
g8
sg9
g10
sg11
g12
sg13
g14
sg15
g16
sg17
g18
sg19
g20
sS'*'
g21
sg22
g23
sg24
g23
sg25
g26
sg27
g23
ssg28
S'GeneralisedLinearSpringForce'
p518
sg30
I00
sg31
I00
sg32
Nsg33
g355
sg35
I01
sg36
I01
sg37
I00
sg38
Nsg39
g185
sg40
Nsg41
Nsg42
I00
sg43
S'/home/grogan/Software/Chaste/cell_based/src/population/forces/GeneralisedLinearSpringForce.hpp'
p519
sg44
I00
sba(iwrapper_utilities.class_data
CppClass
p520
(dp521
g4
Nsg5
(dp522
g7
g8
sg9
g10
sg11
g12
sg13
g14
sg15
g16
sg17
g18
sg19
g20
sS'*'
g21
sg22
g23
sg24
g23
sg25
g26
sg27
g23
ssg28
S'NagaiHondaForce'
p523
sg30
I00
sg31
I00
sg32
Nsg33
g355
sg35
I01
sg36
I01
sg37
I00
sg38
Nsg39
g203
sg40
Nsg41
Nsg42
I00
sg43
S'/home/grogan/Software/Chaste/cell_based/src/population/forces/NagaiHondaForce.hpp'
p524
sg44
I00
sba(iwrapper_utilities.class_data
CppClass
p525
(dp526
g4
Nsg5
(dp527
g7
g8
sg9
g10
sg11
g12
sg13
g14
sg15
g16
sg17
g18
sg19
g20
sS'*'
g21
sg22
g23
sg24
g23
sg25
g26
sg27
g23
ssg28
S'AbstractVertexBasedDivisionRule'
p528
sg30
I00
sg31
I00
sg32
Nsg33
g355
sg35
I01
sg36
I01
sg37
I00
sg38
Nsg39
g203
sg40
Nsg41
Nsg42
I00
sg43
S'/home/grogan/Software/Chaste/cell_based/src/population/division_rules/AbstractVertexBasedDivisionRule.hpp'
p529
sg44
I00
sba(iwrapper_utilities.class_data
CppClass
p530
(dp531
g4
Nsg5
(dp532
g7
g8
sg9
g10
sg11
g12
sg13
g14
sg15
g16
sg17
g18
sg19
g20
sS'*'
g21
sg22
g23
sg24
g23
sg25
g26
sg27
g23
ssg28
S'AbstractCaUpdateRule'
p533
sg30
I00
sg31
I00
sg32
Nsg33
g355
sg35
I01
sg36
I01
sg37
I00
sg38
Nsg39
g203
sg40
Nsg41
Nsg42
I00
sg43
S'/home/grogan/Software/Chaste/cell_based/src/population/update_rules/AbstractCaUpdateRule.hpp'
p534
sg44
I00
sba(iwrapper_utilities.class_data
CppClass
p535
(dp536
g4
Nsg5
(dp537
g7
g8
sg9
g10
sg11
g12
sg13
g14
sg15
g16
sg17
g18
sg19
g20
sS'*'
g21
sg22
g23
sg24
g23
sg25
g26
sg27
g23
ssg28
S'AbstractUpdateRule'
p538
sg30
I00
sg31
I00
sg32
Nsg33
g355
sg35
I01
sg36
I01
sg37
I00
sg38
Nsg39
g203
sg40
Nsg41
Nsg42
I01
sg43
S'/home/grogan/Software/Chaste/cell_based/src/population/update_rules/AbstractUpdateRule.hpp'
p539
sg44
I00
sba(iwrapper_utilities.class_data
CppClass
p540
(dp541
g4
Nsg5
(dp542
g7
g8
sg9
g10
sg11
g12
sg13
g14
sg15
g16
sg17
g18
sg19
g20
sS'*'
g21
sg22
g23
sg24
g23
sg25
g26
sg27
g23
ssg28
S'DiffusionCaUpdateRule'
p543
sg30
I00
sg31
I00
sg32
Nsg33
g355
sg35
I01
sg36
I01
sg37
I00
sg38
Nsg39
g203
sg40
Nsg41
Nsg42
I00
sg43
S'/home/grogan/Software/Chaste/cell_based/src/population/update_rules/DiffusionCaUpdateRule.hpp'
p544
sg44
I00
sba(iwrapper_utilities.class_data
CppClass
p545
(dp546
g4
Nsg5
(dp547
g7
g8
sg9
g10
sg11
g12
sg13
g14
sg15
g16
sg17
g18
sg19
g20
sS'*'
g21
sg22
g23
sg24
g23
sg25
g26
sg27
g23
ssg28
S'AbstractPottsUpdateRule'
p548
sg30
I00
sg31
I00
sg32
Nsg33
g355
sg35
I01
sg36
I01
sg37
I00
sg38
Nsg39
g203
sg40
Nsg41
Nsg42
I00
sg43
S'/home/grogan/Software/Chaste/cell_based/src/population/update_rules/AbstractPottsUpdateRule.hpp'
p549
sg44
I00
sba(iwrapper_utilities.class_data
CppClass
p550
(dp551
g4
Nsg5
(dp552
g7
g8
sg9
g10
sg11
g12
sg13
g14
sg15
g16
sg17
g18
sg19
g20
sS'*'
g21
sg22
g23
sg24
g23
sg25
g26
sg27
g23
ssg28
S'VolumeConstraintPottsUpdateRule'
p553
sg30
I00
sg31
I00
sg32
Nsg33
g355
sg35
I01
sg36
I01
sg37
I00
sg38
Nsg39
g203
sg40
Nsg41
Nsg42
I00
sg43
S'/home/grogan/Software/Chaste/cell_based/src/population/update_rules/VolumeConstraintPottsUpdateRule.hpp'
p554
sg44
I00
sba(iwrapper_utilities.class_data
CppClass
p555
(dp556
g4
Nsg5
(dp557
g7
g8
sg9
g10
sg11
g12
sg13
g14
sg15
g16
sg17
g18
sg19
g20
sS'*'
g21
sg22
g23
sg24
g23
sg25
g26
sg27
g23
ssg28
S'SurfaceAreaConstraintPottsUpdateRule'
p558
sg30
I00
sg31
I00
sg32
Nsg33
g355
sg35
I01
sg36
I01
sg37
I00
sg38
Nsg39
g203
sg40
Nsg41
Nsg42
I00
sg43
S'/home/grogan/Software/Chaste/cell_based/src/population/update_rules/SurfaceAreaConstraintPottsUpdateRule.hpp'
p559
sg44
I00
sba(iwrapper_utilities.class_data
CppClass
p560
(dp561
g4
Nsg5
(dp562
g7
g8
sg9
g10
sg11
g12
sg13
g14
sg15
g16
sg17
g18
sg19
g20
sS'*'
g21
sg22
g23
sg24
g23
sg25
g26
sg27
g23
ssg28
S'DifferentialAdhesionPottsUpdateRule'
p563
sg30
I00
sg31
I00
sg32
Nsg33
g355
sg35
I01
sg36
I01
sg37
I00
sg38
Nsg39
g203
sg40
Nsg41
Nsg42
I00
sg43
S'/home/grogan/Software/Chaste/cell_based/src/population/update_rules/DifferentialAdhesionPottsUpdateRule.hpp'
p564
sg44
I00
sba(iwrapper_utilities.class_data
CppClass
p565
(dp566
g4
Nsg5
(dp567
g7
g8
sg9
g10
sg11
g12
sg13
g14
sg15
g16
sg17
g18
sg19
g20
sS'*'
g21
sg22
g23
sg24
g23
sg25
g26
sg27
g23
ssg28
S'AdhesionPottsUpdateRule'
p568
sg30
I00
sg31
I00
sg32
Nsg33
g355
sg35
I01
sg36
I01
sg37
I00
sg38
Nsg39
g203
sg40
Nsg41
Nsg42
I00
sg43
S'/home/grogan/Software/Chaste/cell_based/src/population/update_rules/AdhesionPottsUpdateRule.hpp'
p569
sg44
I00
sba(iwrapper_utilities.class_data
CppClass
p570
(dp571
g4
Nsg5
(dp572
g7
g8
sg9
g10
sg11
g12
sg13
g14
sg15
g16
sg17
g18
sg19
g20
sS'*'
g21
sg22
g23
sg24
g23
sg25
g26
sg27
g23
ssg28
S'CellwiseSourceEllipticPde'
p573
sg30
I00
sg31
I00
sg32
Nsg33
g355
sg35
I01
sg36
I01
sg37
I00
sg38
Nsg39
g203
sg40
Nsg41
Nsg42
I00
sg43
S'/home/grogan/Software/Chaste/cell_based/src/cell_based_pde/pdes/CellwiseSourceEllipticPde.hpp'
p574
sg44
I00
sba(iwrapper_utilities.class_data
CppClass
p575
(dp576
g4
Nsg5
(dp577
g7
g8
sg9
g10
sg11
g12
sg13
g14
sg15
g16
sg17
g18
sg19
g20
sS'*'
g21
sg22
g23
sg24
g23
sg25
g26
sg27
g23
ssg28
S'AveragedSourceEllipticPde'
p578
sg30
I00
sg31
I00
sg32
Nsg33
g355
sg35
I01
sg36
I01
sg37
I00
sg38
Nsg39
g203
sg40
Nsg41
Nsg42
I00
sg43
S'/home/grogan/Software/Chaste/cell_based/src/cell_based_pde/pdes/AveragedSourceEllipticPde.hpp'
p579
sg44
I00
sba(iwrapper_utilities.class_data
CppClass
p580
(dp581
g4
Nsg5
(dp582
g7
g8
sg9
g10
sg11
g12
sg13
g14
sg15
g16
sg17
g18
sg19
g20
sS'*'
g21
sg22
g23
sg24
g23
sg25
g26
sg27
g23
ssg28
S'AveragedSourceParabolicPde'
p583
sg30
I00
sg31
I00
sg32
Nsg33
g355
sg35
I01
sg36
I01
sg37
I00
sg38
Nsg39
g203
sg40
Nsg41
Nsg42
I00
sg43
S'/home/grogan/Software/Chaste/cell_based/src/cell_based_pde/pdes/AveragedSourceParabolicPde.hpp'
p584
sg44
I00
sba(iwrapper_utilities.class_data
CppClass
p585
(dp586
g4
Nsg5
(dp587
g7
g8
sg9
g10
sg11
g12
sg13
g14
sg15
g16
sg17
g18
sg19
g20
sS'*'
g21
sg22
g23
sg24
g23
sg25
g26
sg27
g23
ssg28
S'CellwiseSourceParabolicPde'
p588
sg30
I00
sg31
I00
sg32
Nsg33
g355
sg35
I01
sg36
I01
sg37
I00
sg38
Nsg39
g203
sg40
Nsg41
Nsg42
I00
sg43
S'/home/grogan/Software/Chaste/cell_based/src/cell_based_pde/pdes/CellwiseSourceParabolicPde.hpp'
p589
sg44
I00
sba(iwrapper_utilities.class_data
CppClass
p590
(dp591
g4
Nsg5
(dp592
g7
g8
sg9
g10
sg11
g12
sg13
g14
sg15
g16
sg17
g18
sg19
g20
sS'*'
g21
sg22
g23
sg24
g23
sg25
g26
sg27
g23
ssg28
S'AbstractPdeModifier'
p593
sg30
I00
sg31
I00
sg32
Nsg33
g355
sg35
I01
sg36
I01
sg37
I00
sg38
Nsg39
g203
sg40
(lp594
S'GetSolution, GetFeMesh'
p595
asg41
Nsg42
I00
sg43
S'/home/grogan/Software/Chaste/cell_based/src/cell_based_pde/AbstractPdeModifier.hpp'
p596
sg44
I00
sba(iwrapper_utilities.class_data
CppClass
p597
(dp598
g4
Nsg5
(dp599
g7
g8
sg9
g10
sg11
g12
sg13
g14
sg15
g16
sg17
g18
sg19
g20
sS'*'
g21
sg22
g23
sg24
g23
sg25
g26
sg27
g23
ssg28
S'AbstractGrowingDomainPdeModifier'
p600
sg30
I00
sg31
I00
sg32
Nsg33
g355
sg35
I01
sg36
I01
sg37
I00
sg38
Nsg39
g203
sg40
Nsg41
Nsg42
I00
sg43
S'/home/grogan/Software/Chaste/cell_based/src/cell_based_pde/AbstractGrowingDomainPdeModifier.hpp'
p601
sg44
I00
sba(iwrapper_utilities.class_data
CppClass
p602
(dp603
g4
Nsg5
(dp604
g7
g8
sg9
g10
sg11
g12
sg13
g14
sg15
g16
sg17
g18
sg19
g20
sS'*'
g21
sg22
g23
sg24
g23
sg25
g26
sg27
g23
ssg28
S'EllipticGrowingDomainPdeModifier'
p605
sg30
I00
sg31
I00
sg32
Nsg33
g355
sg35
I01
sg36
I01
sg37
I00
sg38
Nsg39
g203
sg40
(lp606
S'ConstructBoundaryConditionsContainer'
p607
asg41
Nsg42
I00
sg43
S'/home/grogan/Software/Chaste/cell_based/src/cell_based_pde/EllipticGrowingDomainPdeModifier.hpp'
p608
sg44
I00
sba(iwrapper_utilities.class_data
CppClass
p609
(dp610
g4
Nsg5
(dp611
g7
g8
sg9
g10
sg11
g12
sg13
g14
sg15
g16
sg17
g18
sg19
g20
sS'*'
g21
sg22
g23
sg24
g23
sg25
g26
sg27
g23
ssg28
S'Cell'
p612
sg30
I00
sg31
I00
sg32
Nsg33
g355
sg35
I01
sg36
I01
sg37
I00
sg38
Nsg39
Nsg40
(lp613
S'rGetCellPropertyCollection'
p614
aS'GetSrnModel'
p615
asg41
Nsg42
I01
sg43
S'/home/grogan/Software/Chaste/cell_based/src/cell/Cell.hpp'
p616
sg44
I00
sba(iwrapper_utilities.class_data
CppClass
p617
(dp618
g4
Nsg5
(dp619
g7
g8
sg9
g10
sg11
g12
sg13
g14
sg15
g16
sg17
g18
sg19
g20
sS'*'
g21
sg22
g23
sg24
g23
sg25
g26
sg27
g23
ssg28
S'CellsGenerator'
p620
sg30
I00
sg31
I00
sg32
Nsg33
g355
sg35
I01
sg36
I01
sg37
I00
sg38
Nsg39
(lp621
(lp622
S'UniformCellCycleModel'
p623
aI2
aa(lp624
g623
aI3
aa(lp625
S'SimpleOxygenBasedCellCycleModel'
p626
aI2
aa(lp627
g626
aI3
aa(lp628
S'UniformG1GenerationalCellCycleModel'
p629
aI2
aa(lp630
g629
aI3
aa(lp631
S'NoCellCycleModel'
p632
aI2
aa(lp633
g632
aI3
aasg40
Nsg41
Nsg42
I00
sg43
S'/home/grogan/Software/Chaste/cell_based/src/cell/CellsGenerator.hpp'
p634
sg44
I00
sba(iwrapper_utilities.class_data
CppClass
p635
(dp636
g4
Nsg5
(dp637
g7
g8
sg9
g10
sg11
g12
sg13
g14
sg15
g16
sg17
g18
sg19
g20
sS'*'
g21
sg22
g23
sg24
g23
sg25
g26
sg27
g23
ssg28
S'AbstractCellCycleModel'
p638
sg30
I00
sg31
I00
sg32
Nsg33
g355
sg35
I01
sg36
I01
sg37
I00
sg38
Nsg39
Nsg40
Nsg41
Nsg42
I00
sg43
S'/home/grogan/Software/Chaste/cell_based/src/cell/cycle/AbstractCellCycleModel.hpp'
p639
sg44
I00
sba(iwrapper_utilities.class_data
CppClass
p640
(dp641
g4
Nsg5
(dp642
g7
g8
sg9
g10
sg11
g12
sg13
g14
sg15
g16
sg17
g18
sg19
g20
sS'*'
g21
sg22
g23
sg24
g23
sg25
g26
sg27
g23
ssg28
S'AbstractPhaseBasedCellCycleModel'
p643
sg30
I00
sg31
I00
sg32
Nsg33
g355
sg35
I01
sg36
I01
sg37
I00
sg38
Nsg39
Nsg40
Nsg41
Nsg42
I00
sg43
S'/home/grogan/Software/Chaste/cell_based/src/cell/cycle/AbstractPhaseBasedCellCycleModel.hpp'
p644
sg44
I00
sba(iwrapper_utilities.class_data
CppClass
p645
(dp646
g4
Nsg5
(dp647
g7
g8
sg9
g10
sg11
g12
sg13
g14
sg15
g16
sg17
g18
sg19
g20
sS'*'
g21
sg22
g23
sg24
g23
sg25
g26
sg27
g23
ssg28
S'AbstractSimpleCellCycleModel'
p648
sg30
I00
sg31
I00
sg32
Nsg33
g355
sg35
I01
sg36
I01
sg37
I00
sg38
Nsg39
Nsg40
Nsg41
Nsg42
I00
sg43
S'/home/grogan/Software/Chaste/cell_based/src/cell/cycle/AbstractSimpleCellCycleModel.hpp'
p649
sg44
I00
sba(iwrapper_utilities.class_data
CppClass
p650
(dp651
g4
Nsg5
(dp652
g7
g8
sg9
g10
sg11
g12
sg13
g14
sg15
g16
sg17
g18
sg19
g20
sS'*'
g21
sg22
g23
sg24
g23
sg25
g26
sg27
g23
ssg28
S'AbstractSimplePhaseBasedCellCycleModel'
p653
sg30
I00
sg31
I00
sg32
Nsg33
g355
sg35
I01
sg36
I01
sg37
I00
sg38
Nsg39
Nsg40
Nsg41
Nsg42
I00
sg43
S'/home/grogan/Software/Chaste/cell_based/src/cell/cycle/AbstractSimplePhaseBasedCellCycleModel.hpp'
p654
sg44
I00
sba(iwrapper_utilities.class_data
CppClass
p655
(dp656
g4
Nsg5
(dp657
g7
g8
sg9
g10
sg11
g12
sg13
g14
sg15
g16
sg17
g18
sg19
g20
sS'*'
g21
sg22
g23
sg24
g23
sg25
g26
sg27
g23
ssg28
S'AbstractSimpleGenerationalCellCycleModel'
p658
sg30
I00
sg31
I00
sg32
Nsg33
g355
sg35
I01
sg36
I01
sg37
I00
sg38
Nsg39
Nsg40
Nsg41
Nsg42
I00
sg43
S'/home/grogan/Software/Chaste/cell_based/src/cell/cycle/AbstractSimpleGenerationalCellCycleModel.hpp'
p659
sg44
I00
sba(iwrapper_utilities.class_data
CppClass
p660
(dp661
g4
Nsg5
(dp662
g7
g8
sg9
g10
sg11
g12
sg13
g14
sg15
g16
sg17
g18
sg19
g20
sS'*'
g21
sg22
g23
sg24
g23
sg25
g26
sg27
g23
ssg28
g623
sg30
I00
sg31
I00
sg32
Nsg33
g355
sg35
I01
sg36
I01
sg37
I00
sg38
Nsg39
Nsg40
Nsg41
Nsg42
I00
sg43
S'/home/grogan/Software/Chaste/cell_based/src/cell/cycle/UniformCellCycleModel.hpp'
p663
sg44
I00
sba(iwrapper_utilities.class_data
CppClass
p664
(dp665
g4
Nsg5
(dp666
g7
g8
sg9
g10
sg11
g12
sg13
g14
sg15
g16
sg17
g18
sg19
g20
sS'*'
g21
sg22
g23
sg24
g23
sg25
g26
sg27
g23
ssg28
g626
sg30
I00
sg31
I00
sg32
Nsg33
g355
sg35
I01
sg36
I01
sg37
I00
sg38
Nsg39
Nsg40
Nsg41
Nsg42
I00
sg43
S'/home/grogan/Software/Chaste/cell_based/src/cell/cycle/SimpleOxygenBasedCellCycleModel.hpp'
p667
sg44
I00
sba(iwrapper_utilities.class_data
CppClass
p668
(dp669
g4
Nsg5
(dp670
g7
g8
sg9
g10
sg11
g12
sg13
g14
sg15
g16
sg17
g18
sg19
g20
sS'*'
g21
sg22
g23
sg24
g23
sg25
g26
sg27
g23
ssg28
g629
sg30
I00
sg31
I00
sg32
Nsg33
g355
sg35
I01
sg36
I01
sg37
I00
sg38
Nsg39
Nsg40
Nsg41
Nsg42
I00
sg43
S'/home/grogan/Software/Chaste/cell_based/src/cell/cycle/UniformG1GenerationalCellCycleModel.hpp'
p671
sg44
I00
sba(iwrapper_utilities.class_data
CppClass
p672
(dp673
g4
Nsg5
(dp674
g7
g8
sg9
g10
sg11
g12
sg13
g14
sg15
g16
sg17
g18
sg19
g20
sS'*'
g21
sg22
g23
sg24
g23
sg25
g26
sg27
g23
ssg28
g632
sg30
I00
sg31
I00
sg32
Nsg33
g355
sg35
I01
sg36
I01
sg37
I00
sg38
Nsg39
Nsg40
Nsg41
Nsg42
I00
sg43
S'/home/grogan/Software/Chaste/cell_based/src/cell/cycle/NoCellCycleModel.hpp'
p675
sg44
I00
sba(iwrapper_utilities.class_data
CppClass
p676
(dp677
g4
Nsg5
(dp678
g7
g8
sg9
g10
sg11
g12
sg13
g14
sg15
g16
sg17
g18
sg19
g20
sS'*'
g21
sg22
g23
sg24
g23
sg25
g26
sg27
g23
ssg28
S'AbstractCellProperty'
p679
sg30
I00
sg31
I00
sg32
Nsg33
g355
sg35
I01
sg36
I01
sg37
I00
sg38
Nsg39
Nsg40
(lp680
S'IsType'
p681
asg41
Nsg42
I01
sg43
S'/home/grogan/Software/Chaste/cell_based/src/cell/properties/AbstractCellProperty.hpp'
p682
sg44
I00
sba(iwrapper_utilities.class_data
CppClass
p683
(dp684
g4
Nsg5
(dp685
g7
g8
sg9
g10
sg11
g12
sg13
g14
sg15
g16
sg17
g18
sg19
g20
sS'*'
g21
sg22
g23
sg24
g23
sg25
g26
sg27
g23
ssg28
S'CellPropertyCollection'
p686
sg30
I00
sg31
I00
sg32
Nsg33
g355
sg35
I01
sg36
I01
sg37
I00
sg38
Nsg39
Nsg40
(lp687
S'GetCellPropertyRegistry'
p688
asg41
Nsg42
I00
sg43
S'/home/grogan/Software/Chaste/cell_based/src/cell/properties/CellPropertyCollection.hpp'
p689
sg44
I00
sba(iwrapper_utilities.class_data
CppClass
p690
(dp691
g4
Nsg5
(dp692
g7
g8
sg9
g10
sg11
g12
sg13
g14
sg15
g16
sg17
g18
sg19
g20
sS'*'
g21
sg22
g23
sg24
g23
sg25
g26
sg27
g23
ssg28
S'AbstractCellProliferativeType'
p693
sg30
I00
sg31
I00
sg32
Nsg33
g355
sg35
I01
sg36
I01
sg37
I00
sg38
Nsg39
Nsg40
Nsg41
Nsg42
I00
sg43
S'/home/grogan/Software/Chaste/cell_based/src/cell/properties/proliferative_types/AbstractCellProliferativeType.hpp'
p694
sg44
I00
sba(iwrapper_utilities.class_data
CppClass
p695
(dp696
g4
Nsg5
(dp697
g7
g8
sg9
g10
sg11
g12
sg13
g14
sg15
g16
sg17
g18
sg19
g20
sS'*'
g21
sg22
g23
sg24
g23
sg25
g26
sg27
g23
ssg28
S'StemCellProliferativeType'
p698
sg30
I00
sg31
I00
sg32
Nsg33
g355
sg35
I01
sg36
I01
sg37
I00
sg38
Nsg39
Nsg40
Nsg41
Nsg42
I00
sg43
S'/home/grogan/Software/Chaste/cell_based/src/cell/properties/proliferative_types/StemCellProliferativeType.hpp'
p699
sg44
I00
sba(iwrapper_utilities.class_data
CppClass
p700
(dp701
g4
Nsg5
(dp702
g7
g8
sg9
g10
sg11
g12
sg13
g14
sg15
g16
sg17
g18
sg19
g20
sS'*'
g21
sg22
g23
sg24
g23
sg25
g26
sg27
g23
ssg28
S'DefaultCellProliferativeType'
p703
sg30
I00
sg31
I00
sg32
Nsg33
g355
sg35
I01
sg36
I01
sg37
I00
sg38
Nsg39
Nsg40
Nsg41
Nsg42
I00
sg43
S'/home/grogan/Software/Chaste/cell_based/src/cell/properties/proliferative_types/DefaultCellProliferativeType.hpp'
p704
sg44
I00
sba(iwrapper_utilities.class_data
CppClass
p705
(dp706
g4
Nsg5
(dp707
g7
g8
sg9
g10
sg11
g12
sg13
g14
sg15
g16
sg17
g18
sg19
g20
sS'*'
g21
sg22
g23
sg24
g23
sg25
g26
sg27
g23
ssg28
S'TransitCellProliferativeType'
p708
sg30
I00
sg31
I00
sg32
Nsg33
g355
sg35
I01
sg36
I01
sg37
I00
sg38
Nsg39
Nsg40
Nsg41
Nsg42
I00
sg43
S'/home/grogan/Software/Chaste/cell_based/src/cell/properties/proliferative_types/TransitCellProliferativeType.hpp'
p709
sg44
I00
sba(iwrapper_utilities.class_data
CppClass
p710
(dp711
g4
Nsg5
(dp712
g7
g8
sg9
g10
sg11
g12
sg13
g14
sg15
g16
sg17
g18
sg19
g20
sS'*'
g21
sg22
g23
sg24
g23
sg25
g26
sg27
g23
ssg28
S'DifferentiatedCellProliferativeType'
p713
sg30
I00
sg31
I00
sg32
Nsg33
g355
sg35
I01
sg36
I01
sg37
I00
sg38
Nsg39
Nsg40
Nsg41
Nsg42
I00
sg43
S'/home/grogan/Software/Chaste/cell_based/src/cell/properties/proliferative_types/DifferentiatedCellProliferativeType.hpp'
p714
sg44
I00
sba(iwrapper_utilities.class_data
CppClass
p715
(dp716
g4
Nsg5
(dp717
g7
g8
sg9
g10
sg11
g12
sg13
g14
sg15
g16
sg17
g18
sg19
g20
sS'*'
g21
sg22
g23
sg24
g23
sg25
g26
sg27
g23
ssg28
S'AbstractCellMutationState'
p718
sg30
I00
sg31
I00
sg32
Nsg33
g355
sg35
I01
sg36
I01
sg37
I00
sg38
Nsg39
Nsg40
Nsg41
Nsg42
I00
sg43
S'/home/grogan/Software/Chaste/cell_based/src/cell/properties/mutations/AbstractCellMutationState.hpp'
p719
sg44
I00
sba(iwrapper_utilities.class_data
CppClass
p720
(dp721
g4
Nsg5
(dp722
g7
g8
sg9
g10
sg11
g12
sg13
g14
sg15
g16
sg17
g18
sg19
g20
sS'*'
g21
sg22
g23
sg24
g23
sg25
g26
sg27
g23
ssg28
S'ApcOneHitCellMutationState'
p723
sg30
I00
sg31
I00
sg32
Nsg33
g355
sg35
I01
sg36
I01
sg37
I00
sg38
Nsg39
Nsg40
Nsg41
Nsg42
I00
sg43
S'/home/grogan/Software/Chaste/cell_based/src/cell/properties/mutations/ApcOneHitCellMutationState.hpp'
p724
sg44
I00
sba(iwrapper_utilities.class_data
CppClass
p725
(dp726
g4
Nsg5
(dp727
g7
g8
sg9
g10
sg11
g12
sg13
g14
sg15
g16
sg17
g18
sg19
g20
sS'*'
g21
sg22
g23
sg24
g23
sg25
g26
sg27
g23
ssg28
S'ApcTwoHitCellMutationState'
p728
sg30
I00
sg31
I00
sg32
Nsg33
g355
sg35
I01
sg36
I01
sg37
I00
sg38
Nsg39
Nsg40
Nsg41
Nsg42
I00
sg43
S'/home/grogan/Software/Chaste/cell_based/src/cell/properties/mutations/ApcTwoHitCellMutationState.hpp'
p729
sg44
I00
sba(iwrapper_utilities.class_data
CppClass
p730
(dp731
g4
Nsg5
(dp732
g7
g8
sg9
g10
sg11
g12
sg13
g14
sg15
g16
sg17
g18
sg19
g20
sS'*'
g21
sg22
g23
sg24
g23
sg25
g26
sg27
g23
ssg28
S'BetaCateninOneHitCellMutationState'
p733
sg30
I00
sg31
I00
sg32
Nsg33
g355
sg35
I01
sg36
I01
sg37
I00
sg38
Nsg39
Nsg40
Nsg41
Nsg42
I00
sg43
S'/home/grogan/Software/Chaste/cell_based/src/cell/properties/mutations/BetaCateninOneHitCellMutationState.hpp'
p734
sg44
I00
sba(iwrapper_utilities.class_data
CppClass
p735
(dp736
g4
Nsg5
(dp737
g7
g8
sg9
g10
sg11
g12
sg13
g14
sg15
g16
sg17
g18
sg19
g20
sS'*'
g21
sg22
g23
sg24
g23
sg25
g26
sg27
g23
ssg28
S'WildTypeCellMutationState'
p738
sg30
I00
sg31
I00
sg32
Nsg33
g355
sg35
I01
sg36
I01
sg37
I00
sg38
Nsg39
Nsg40
Nsg41
Nsg42
I00
sg43
S'/home/grogan/Software/Chaste/cell_based/src/cell/properties/mutations/WildTypeCellMutationState.hpp'
p739
sg44
I00
sba(iwrapper_utilities.class_data
CppClass
p740
(dp741
g4
Nsg5
(dp742
g7
g8
sg9
g10
sg11
g12
sg13
g14
sg15
g16
sg17
g18
sg19
g20
sS'*'
g21
sg22
g23
sg24
g23
sg25
g26
sg27
g23
ssg28
S'ApoptoticCellProperty'
p743
sg30
I00
sg31
I00
sg32
Nsg33
g355
sg35
I01
sg36
I01
sg37
I00
sg38
Nsg39
Nsg40
Nsg41
Nsg42
I00
sg43
S'/home/grogan/Software/Chaste/cell_based/src/cell/properties/ApoptoticCellProperty.hpp'
p744
sg44
I00
sba(iwrapper_utilities.class_data
CppClass
p745
(dp746
g4
Nsg5
(dp747
g7
g8
sg9
g10
sg11
g12
sg13
g14
sg15
g16
sg17
g18
sg19
g20
sS'*'
g21
sg22
g23
sg24
g23
sg25
g26
sg27
g23
ssg28
S'CellData'
p748
sg30
I00
sg31
I00
sg32
Nsg33
g355
sg35
I01
sg36
I01
sg37
I00
sg38
Nsg39
Nsg40
Nsg41
Nsg42
I00
sg43
S'/home/grogan/Software/Chaste/cell_based/src/cell/properties/CellData.hpp'
p749
sg44
I00
sba(iwrapper_utilities.class_data
CppClass
p750
(dp751
g4
Nsg5
(dp752
g7
g8
sg9
g10
sg11
g12
sg13
g14
sg15
g16
sg17
g18
sg19
g20
sS'*'
g21
sg22
g23
sg24
g23
sg25
g26
sg27
g23
ssg28
S'CellLabel'
p753
sg30
I00
sg31
I00
sg32
Nsg33
g355
sg35
I01
sg36
I01
sg37
I00
sg38
Nsg39
Nsg40
Nsg41
Nsg42
I00
sg43
S'/home/grogan/Software/Chaste/cell_based/src/cell/properties/CellLabel.hpp'
p754
sg44
I00
sba(iwrapper_utilities.class_data
CppClass
p755
(dp756
g4
Nsg5
(dp757
g7
g8
sg9
g10
sg11
g12
sg13
g14
sg15
g16
sg17
g18
sg19
g20
sS'*'
g21
sg22
g23
sg24
g23
sg25
g26
sg27
g23
ssg28
S'CellAncestor'
p758
sg30
I00
sg31
I00
sg32
Nsg33
g355
sg35
I01
sg36
I01
sg37
I00
sg38
Nsg39
Nsg40
Nsg41
Nsg42
I00
sg43
S'/home/grogan/Software/Chaste/cell_based/src/cell/properties/CellAncestor.hpp'
p759
sg44
I00
sba(iwrapper_utilities.class_data
CppClass
p760
(dp761
g4
Nsg5
(dp762
g7
g8
sg9
g10
sg11
g12
sg13
g14
sg15
g16
sg17
g18
sg19
g20
sS'*'
g21
sg22
g23
sg24
g23
sg25
g26
sg27
g23
ssg28
S'CellId'
p763
sg30
I00
sg31
I00
sg32
Nsg33
g355
sg35
I01
sg36
I01
sg37
I00
sg38
Nsg39
Nsg40
Nsg41
Nsg42
I00
sg43
S'/home/grogan/Software/Chaste/cell_based/src/cell/properties/CellId.hpp'
p764
sg44
I00
sba(iwrapper_utilities.class_data
CppClass
p765
(dp766
g4
Nsg5
(dp767
g7
g8
sg9
g10
sg11
g12
sg13
g14
sg15
g16
sg17
g18
sg19
g20
sS'*'
g21
sg22
g23
sg24
g23
sg25
g26
sg27
g23
ssg28
S'CellPropertyRegistry'
p768
sg30
I00
sg31
I00
sg32
Nsg33
g355
sg35
I01
sg36
I01
sg37
I00
sg38
Nsg39
Nsg40
(lp769
S'rGetAllCellProperties'
p770
aS'TakeOwnership'
p771
aS'Get'
p772
asg41
Nsg42
I00
sg43
S'/home/grogan/Software/Chaste/cell_based/src/cell/properties/CellPropertyRegistry.hpp'
p773
sg44
I00
sba(iwrapper_utilities.class_data
CppClass
p774
(dp775
g4
Nsg5
(dp776
g7
g8
sg9
g10
sg11
g12
sg13
g14
sg15
g16
sg17
g18
sg19
g20
sS'*'
g21
sg22
g23
sg24
g23
sg25
g26
sg27
g23
ssg28
S'AbstractSrnModel'
p777
sg30
I00
sg31
I00
sg32
Nsg33
g355
sg35
I01
sg36
I01
sg37
I00
sg38
Nsg39
Nsg40
Nsg41
Nsg42
I00
sg43
S'/home/grogan/Software/Chaste/cell_based/src/cell/srn/AbstractSrnModel.hpp'
p778
sg44
I00
sba(iwrapper_utilities.class_data
CppClass
p779
(dp780
g4
Nsg5
(dp781
g7
g8
sg9
g10
sg11
g12
sg13
g14
sg15
g16
sg17
g18
sg19
g20
sS'*'
g21
sg22
g23
sg24
g23
sg25
g26
sg27
g23
ssg28
S'NullSrnModel'
p782
sg30
I00
sg31
I00
sg32
Nsg33
g355
sg35
I01
sg36
I01
sg37
I00
sg38
Nsg39
Nsg40
Nsg41
Nsg42
I00
sg43
S'/home/grogan/Software/Chaste/cell_based/src/cell/srn/NullSrnModel.hpp'
p783
sg44
I00
sba(iwrapper_utilities.class_data
CppClass
p784
(dp785
g4
Nsg5
(dp786
g7
g8
sg9
g10
sg11
g12
sg13
g14
sg15
g16
sg17
g18
sg19
g20
sS'*'
g21
sg22
g23
sg24
g23
sg25
g26
sg27
g23
ssg28
S'AbstractTargetAreaModifier'
p787
sg30
I00
sg31
I00
sg32
Nsg33
g355
sg35
I01
sg36
I01
sg37
I00
sg38
Nsg39
g203
sg40
Nsg41
Nsg42
I00
sg43
S'/home/grogan/Software/Chaste/cell_based/src/simulation/modifiers/AbstractTargetAreaModifier.hpp'
p788
sg44
I00
sba(iwrapper_utilities.class_data
CppClass
p789
(dp790
g4
Nsg5
(dp791
g7
g8
sg9
g10
sg11
g12
sg13
g14
sg15
g16
sg17
g18
sg19
g20
sS'*'
g21
sg22
g23
sg24
g23
sg25
g26
sg27
g23
ssg28
S'SimpleTargetAreaModifier'
p792
sg30
I00
sg31
I00
sg32
Nsg33
g355
sg35
I01
sg36
I01
sg37
I00
sg38
Nsg39
g203
sg40
Nsg41
Nsg42
I00
sg43
S'/home/grogan/Software/Chaste/cell_based/src/simulation/modifiers/SimpleTargetAreaModifier.hpp'
p793
sg44
I00
sba(iwrapper_utilities.class_data
CppClass
p794
(dp795
g4
Nsg5
(dp796
g7
g8
sg9
g10
sg11
g12
sg13
g14
sg15
g16
sg17
g18
sg19
g20
sS'*'
g21
sg22
g23
sg24
g23
sg25
g26
sg27
g23
ssg28
S'VtkSceneModifier'
p797
sg30
I00
sg31
I00
sg32
Nsg33
g355
sg35
I01
sg36
I01
sg37
I00
sg38
Nsg39
g203
sg40
Nsg41
Nsg42
I00
sg43
S'/home/grogan/Software/Chaste/projects/PyChaste/src/cell_based/VtkSceneModifier.hpp'
p798
sg44
I00
sba(iwrapper_utilities.class_data
CppClass
p799
(dp800
g4
Nsg5
(dp801
g7
g8
sg9
g10
sg11
g12
sg13
g14
sg15
g16
sg17
g18
sg19
g20
sS'*'
g21
sg22
g23
sg24
g23
sg25
g26
sg27
g23
ssg28
S'AbstractCellBasedSimulationModifier'
p802
sg30
I00
sg31
I00
sg32
Nsg33
g355
sg35
I01
sg36
I01
sg37
I00
sg38
Nsg39
g185
sg40
Nsg41
Nsg42
I00
sg43
S'/home/grogan/Software/Chaste/cell_based/src/simulation/modifiers/AbstractCellBasedSimulationModifier.hpp'
p803
sg44
I00
sba(iwrapper_utilities.class_data
CppClass
p804
(dp805
g4
Nsg5
(dp806
g7
g8
sg9
g10
sg11
g12
sg13
g14
sg15
g16
sg17
g18
sg19
g20
sS'*'
g21
sg22
g23
sg24
g23
sg25
g26
sg27
g23
ssg28
S'Hello'
p807
sg30
I00
sg31
I00
sg32
Nsg33
S'tutorial'
p808
sg35
I01
sg36
I01
sg37
I00
sg38
Nsg39
Nsg40
Nsg41
Nsg42
I00
sg43
S'/home/grogan/Software/Chaste/projects/PyChaste/src/tutorial/Hello.hpp'
p809
sg44
I00
sba(iwrapper_utilities.class_data
CppClass
p810
(dp811
g4
Nsg5
(dp812
g7
g8
sg9
g10
sg11
g12
sg13
g14
sg15
g16
sg17
g18
sg19
g20
sS'*'
g21
sg22
g23
sg24
g23
sg25
g26
sg27
g23
ssg28
S'VtkScene'
p813
sg30
I00
sg31
I00
sg32
Nsg33
S'visualization'
p814
sg35
I01
sg36
I01
sg37
I00
sg38
Nsg39
g203
sg40
Nsg41
Nsg42
I00
sg43
S'/home/grogan/Software/Chaste/projects/PyChaste/src/visualization/VtkScene.hpp'
p815
sg44
I00
sba(iwrapper_utilities.class_data
CppClass
p816
(dp817
g4
Nsg5
(dp818
g7
g8
sg9
g10
sg11
g12
sg13
g14
sg15
g16
sg17
g18
sg19
g20
sS'*'
g21
sg22
g23
sg24
g23
sg25
g26
sg27
g23
ssg28
S'AbstractPyChasteActorGenerator'
p819
sg30
I00
sg31
I00
sg32
Nsg33
g814
sg35
I01
sg36
I01
sg37
I00
sg38
Nsg39
g203
sg40
Nsg41
Nsg42
I00
sg43
S'/home/grogan/Software/Chaste/projects/PyChaste/src/visualization/AbstractPyChasteActorGenerator.hpp'
p820
sg44
I00
sba(iwrapper_utilities.class_data
CppClass
p821
(dp822
g4
Nsg5
(dp823
g7
g8
sg9
g10
sg11
g12
sg13
g14
sg15
g16
sg17
g18
sg19
g20
sS'*'
g21
sg22
g23
sg24
g23
sg25
g26
sg27
g23
ssg28
S'CellPopulationPyChasteActorGenerator'
p824
sg30
I00
sg31
I00
sg32
Nsg33
g814
sg35
I01
sg36
I01
sg37
I00
sg38
Nsg39
g203
sg40
Nsg41
Nsg42
I00
sg43
S'/home/grogan/Software/Chaste/projects/PyChaste/src/visualization/CellPopulationPyChasteActorGenerator.hpp'
p825
sg44
I00
sba.