(lp1
(iwrapper_utilities.class_data
CppClass
p2
(dp3
S'pointer_return_methods'
p4
NsS'name'
p5
S'BoostFilesystem'
p6
sS'declaration_code'
p7
NsS'component'
p8
S'core'
p9
sS'needs_include_file'
p10
I01
sS'needs_instantiation'
p11
I01
sS'skip_wrapping'
p12
I00
sS'excluded_variables'
p13
NsS'template_args'
p14
NsS'excluded_methods'
p15
NsS'name_override'
p16
NsS'full_path'
p17
S'/home/grogan/Chaste/global/src/BoostFilesystem.hpp'
p18
sS'include_file_only'
p19
I01
sba(iwrapper_utilities.class_data
CppClass
p20
(dp21
g4
Nsg5
S'RelativeTo'
p22
sg7
Nsg8
g9
sg10
I00
sg11
I01
sg12
I00
sg13
Nsg14
Nsg15
Nsg16
Nsg17
Nsg19
I00
sba(iwrapper_utilities.class_data
CppClass
p23
(dp24
g4
Nsg5
S'FileFinder'
p25
sg7
Nsg8
g9
sg10
I01
sg11
I01
sg12
I00
sg13
Nsg14
Nsg15
Nsg16
Nsg17
S'/home/grogan/Chaste/global/src/FileFinder.hpp'
p26
sg19
I00
sba(iwrapper_utilities.class_data
CppClass
p27
(dp28
g4
Nsg5
S'OutputFileHandler'
p29
sg7
Nsg8
g9
sg10
I01
sg11
I01
sg12
I00
sg13
Nsg14
Nsg15
(lp30
S'OpenOutputFile'
p31
asg16
Nsg17
S'/home/grogan/Chaste/global/src/OutputFileHandler.hpp'
p32
sg19
I00
sba(iwrapper_utilities.class_data
CppClass
p33
(dp34
g4
Nsg5
S'ProgressReporter'
p35
sg7
Nsg8
g9
sg10
I01
sg11
I01
sg12
I00
sg13
Nsg14
Nsg15
Nsg16
Nsg17
S'/home/grogan/Chaste/global/src/ProgressReporter.hpp'
p36
sg19
I00
sba(iwrapper_utilities.class_data
CppClass
p37
(dp38
g4
Nsg5
S'RandomNumberGenerator'
p39
sg7
Nsg8
g9
sg10
I01
sg11
I01
sg12
I00
sg13
Nsg14
Nsg15
Nsg16
Nsg17
S'/home/grogan/Chaste/global/src/RandomNumberGenerator.hpp'
p40
sg19
I00
sba(iwrapper_utilities.class_data
CppClass
p41
(dp42
g4
Nsg5
S'SmartPointers'
p43
sg7
Nsg8
g9
sg10
I01
sg11
I01
sg12
I00
sg13
Nsg14
Nsg15
Nsg16
Nsg17
S'/home/grogan/Chaste/global/src/SmartPointers.hpp'
p44
sg19
I01
sba(iwrapper_utilities.class_data
CppClass
p45
(dp46
g4
Nsg5
S'TimeStepper'
p47
sg7
Nsg8
g9
sg10
I01
sg11
I01
sg12
I00
sg13
Nsg14
Nsg15
Nsg16
Nsg17
S'/home/grogan/Chaste/global/src/TimeStepper.hpp'
p48
sg19
I00
sba(iwrapper_utilities.class_data
CppClass
p49
(dp50
g4
Nsg5
S'Version'
p51
sg7
Nsg8
g9
sg10
I01
sg11
I01
sg12
I00
sg13
Nsg14
Nsg15
Nsg16
Nsg17
S'/home/grogan/Chaste/global/src/Version.hpp'
p52
sg19
I01
sba(iwrapper_utilities.class_data
CppClass
p53
(dp54
g4
Nsg5
S'Identifiable'
p55
sg7
Nsg8
g9
sg10
I01
sg11
I01
sg12
I00
sg13
Nsg14
Nsg15
Nsg16
Nsg17
S'/home/grogan/Chaste/global/src/checkpointing/Identifiable.hpp'
p56
sg19
I01
sba(iwrapper_utilities.class_data
CppClass
p57
(dp58
g4
Nsg5
S'PetscTools'
p59
sg7
Nsg8
g9
sg10
I01
sg11
I01
sg12
I00
sg13
(lp60
S'MASTER_RANK'
p61
asg14
Nsg15
(lp62
S'GetWorld'
p63
asg16
Nsg17
S'/home/grogan/Chaste/global/src/parallel/PetscTools.hpp'
p64
sg19
I00
sba(iwrapper_utilities.class_data
CppClass
p65
(dp66
g4
Nsg5
S'ReplicatableVector'
p67
sg7
Nsg8
g9
sg10
I01
sg11
I01
sg12
I00
sg13
Nsg14
Nsg15
Nsg16
Nsg17
S'/home/grogan/Chaste/global/src/parallel/ReplicatableVector.hpp'
p68
sg19
I00
sba(iwrapper_utilities.class_data
CppClass
p69
(dp70
g4
Nsg5
S'Timer'
p71
sg7
Nsg8
g9
sg10
I01
sg11
I01
sg12
I00
sg13
Nsg14
Nsg15
Nsg16
Nsg17
S'/home/grogan/Chaste/global/src/timing/Timer.hpp'
p72
sg19
I00
sba(iwrapper_utilities.class_data
CppClass
p73
(dp74
g4
Nsg5
S'UblasIncludes'
p75
sg7
Nsg8
g9
sg10
I01
sg11
I01
sg12
I00
sg13
Nsg14
Nsg15
Nsg16
Nsg17
S'/home/grogan/Chaste/linalg/src/UblasIncludes.hpp'
p76
sg19
I01
sba(iwrapper_utilities.class_data
CppClass
p77
(dp78
g4
Nsg5
S'AbstractOdeSystemInformation'
p79
sg7
Nsg8
S'ode'
p80
sg10
I01
sg11
I01
sg12
I00
sg13
Nsg14
Nsg15
Nsg16
Nsg17
S'/home/grogan/Chaste/ode/src/common/AbstractOdeSystemInformation.hpp'
p81
sg19
I00
sba(iwrapper_utilities.class_data
CppClass
p82
(dp83
g4
Nsg5
S'AbstractPythonOdeSystemInformation'
p84
sg7
Nsg8
g80
sg10
I01
sg11
I01
sg12
I00
sg13
Nsg14
Nsg15
Nsg16
Nsg17
S'/home/grogan/Chaste/projects/PyChaste/src/ode/AbstractPythonOdeSystemInformation.hpp'
p85
sg19
I00
sba(iwrapper_utilities.class_data
CppClass
p86
(dp87
g4
Nsg5
S'AbstractOdeSystem'
p88
sg7
Nsg8
g80
sg10
I01
sg11
I01
sg12
I00
sg13
Nsg14
Nsg15
Nsg16
Nsg17
S'/home/grogan/Chaste/ode/src/common/AbstractOdeSystem.hpp'
p89
sg19
I00
sba(iwrapper_utilities.class_data
CppClass
p90
(dp91
g4
Nsg5
S'AbstractLinearPde'
p92
sg7
Nsg8
S'pde'
p93
sg10
I01
sg11
I01
sg12
I00
sg13
Nsg14
(lp94
(lp95
I2
aI2
aa(lp96
I3
aI3
aasg15
Nsg16
Nsg17
S'/home/grogan/Chaste/pde/src/problem/AbstractLinearPde.hpp'
p97
sg19
I00
sba(iwrapper_utilities.class_data
CppClass
p98
(dp99
g4
Nsg5
S'AbstractLinearParabolicPde'
p100
sg7
Nsg8
g93
sg10
I01
sg11
I01
sg12
I00
sg13
Nsg14
g94
sg15
Nsg16
Nsg17
S'/home/grogan/Chaste/pde/src/problem/AbstractLinearParabolicPde.hpp'
p101
sg19
I00
sba(iwrapper_utilities.class_data
CppClass
p102
(dp103
g4
Nsg5
S'AbstractLinearEllipticPde'
p104
sg7
Nsg8
g93
sg10
I01
sg11
I01
sg12
I00
sg13
Nsg14
g94
sg15
Nsg16
Nsg17
S'/home/grogan/Chaste/pde/src/problem/AbstractLinearEllipticPde.hpp'
p105
sg19
I00
sba(iwrapper_utilities.class_data
CppClass
p106
(dp107
g4
Nsg5
S'AbstractNonlinearEllipticPde'
p108
sg7
Nsg8
g93
sg10
I01
sg11
I01
sg12
I00
sg13
Nsg14
(lp109
(lp110
I2
aa(lp111
I3
aasg15
Nsg16
Nsg17
S'/home/grogan/Chaste/pde/src/problem/AbstractNonlinearEllipticPde.hpp'
p112
sg19
I00
sba(iwrapper_utilities.class_data
CppClass
p113
(dp114
g4
Nsg5
S'AbstractBoundaryCondition'
p115
sg7
Nsg8
g93
sg10
I01
sg11
I01
sg12
I00
sg13
Nsg14
g109
sg15
Nsg16
Nsg17
S'/home/grogan/Chaste/pde/src/common/AbstractBoundaryCondition.hpp'
p116
sg19
I00
sba(iwrapper_utilities.class_data
CppClass
p117
(dp118
g4
Nsg5
S'ConstBoundaryCondition'
p119
sg7
Nsg8
g93
sg10
I01
sg11
I01
sg12
I00
sg13
Nsg14
g109
sg15
Nsg16
Nsg17
S'/home/grogan/Chaste/pde/src/common/ConstBoundaryCondition.hpp'
p120
sg19
I00
sba(iwrapper_utilities.class_data
CppClass
p121
(dp122
g4
Nsg5
S'PdeSimulationTime'
p123
sg7
Nsg8
g93
sg10
I01
sg11
I01
sg12
I00
sg13
Nsg14
Nsg15
Nsg16
Nsg17
S'/home/grogan/Chaste/pde/src/common/PdeSimulationTime.hpp'
p124
sg19
I00
sba(iwrapper_utilities.class_data
CppClass
p125
(dp126
g4
Nsg5
S'ChastePoint'
p127
sg7
Nsg8
S'mesh'
p128
sg10
I01
sg11
I01
sg12
I00
sg13
Nsg14
g109
sg15
Nsg16
Nsg17
S'/home/grogan/Chaste/mesh/src/common/ChastePoint.hpp'
p129
sg19
I00
sba(iwrapper_utilities.class_data
CppClass
p130
(dp131
g4
Nsg5
S'NodeAttributes'
p132
sg7
Nsg8
g128
sg10
I01
sg11
I01
sg12
I00
sg13
Nsg14
g109
sg15
Nsg16
Nsg17
S'/home/grogan/Chaste/mesh/src/common/NodeAttributes.hpp'
p133
sg19
I00
sba(iwrapper_utilities.class_data
CppClass
p134
(dp135
g4
Nsg5
S'Node'
p136
sg7
Nsg8
g128
sg10
I01
sg11
I01
sg12
I00
sg13
Nsg14
g109
sg15
Nsg16
Nsg17
S'/home/grogan/Chaste/mesh/src/common/Node.hpp'
p137
sg19
I00
sba(iwrapper_utilities.class_data
CppClass
p138
(dp139
g4
Nsg5
S'Element'
p140
sg7
Nsg8
g128
sg10
I01
sg11
I01
sg12
I00
sg13
Nsg14
g94
sg15
(lp141
S'CalculateCircumsphereVolume'
p142
asg16
Nsg17
S'/home/grogan/Chaste/mesh/src/common/Element.hpp'
p143
sg19
I00
sba(iwrapper_utilities.class_data
CppClass
p144
(dp145
g4
Nsg5
S'NodesOnlyMesh'
p146
sg7
Nsg8
g128
sg10
I01
sg11
I01
sg12
I00
sg13
Nsg14
g109
sg15
Nsg16
Nsg17
S'/home/grogan/Chaste/mesh/src/common/NodesOnlyMesh.hpp'
p147
sg19
I00
sba(iwrapper_utilities.class_data
CppClass
p148
(dp149
g4
Nsg5
S'MutableMesh'
p150
sg7
Nsg8
g128
sg10
I01
sg11
I01
sg12
I00
sg13
Nsg14
g94
sg15
(lp151
S'SplitLongEdges'
p152
aS'RescaleMeshFromBoundaryNode'
p153
asg16
Nsg17
S'/home/grogan/Chaste/mesh/src/common/MutableMesh.hpp'
p154
sg19
I00
sba(iwrapper_utilities.class_data
CppClass
p155
(dp156
g4
Nsg5
S'PottsMesh'
p157
sg7
Nsg8
g128
sg10
I01
sg11
I01
sg12
I00
sg13
Nsg14
g109
sg15
Nsg16
Nsg17
S'/home/grogan/Chaste/cell_based/src/mesh/PottsMesh.hpp'
p158
sg19
I00
sba(iwrapper_utilities.class_data
CppClass
p159
(dp160
g4
Nsg5
S'SharedPottsMeshGenerator'
p161
sg7
Nsg8
g128
sg10
I01
sg11
I01
sg12
I00
sg13
Nsg14
g109
sg15
Nsg16
S'PottsMeshGenerator'
p162
sg17
S'/home/grogan/Chaste/projects/PyChaste/src/mesh/SharedPottsMeshGenerator.hpp'
p163
sg19
I00
sba(iwrapper_utilities.class_data
CppClass
p164
(dp165
g4
Nsg5
S'PottsElement'
p166
sg7
Nsg8
g128
sg10
I01
sg11
I01
sg12
I00
sg13
Nsg14
g109
sg15
Nsg16
Nsg17
S'/home/grogan/Chaste/cell_based/src/mesh/PottsElement.hpp'
p167
sg19
I00
sba(iwrapper_utilities.class_data
CppClass
p168
(dp169
g4
Nsg5
S'TetrahedralMesh'
p170
sg7
Nsg8
g128
sg10
I01
sg11
I01
sg12
I00
sg13
Nsg14
g94
sg15
(lp171
S'FreeTriangulateIo'
p172
aS'InitialiseTriangulateIo'
p173
asg16
Nsg17
S'/home/grogan/Chaste/mesh/src/common/TetrahedralMesh.hpp'
p174
sg19
I00
sba(iwrapper_utilities.class_data
CppClass
p175
(dp176
g4
Nsg5
S'AbstractTetrahedralMesh'
p177
sg7
Nsg8
g128
sg10
I01
sg11
I01
sg12
I00
sg13
Nsg14
g94
sg15
Nsg16
Nsg17
S'/home/grogan/Chaste/mesh/src/common/AbstractTetrahedralMesh.hpp'
p178
sg19
I00
sba(iwrapper_utilities.class_data
CppClass
p179
(dp180
g4
Nsg5
S'AbstractMesh'
p181
sg7
Nsg8
g128
sg10
I01
sg11
I01
sg12
I00
sg13
Nsg14
g94
sg15
Nsg16
Nsg17
S'/home/grogan/Chaste/mesh/src/common/AbstractMesh.hpp'
p182
sg19
I00
sba(iwrapper_utilities.class_data
CppClass
p183
(dp184
g4
Nsg5
S'VertexMesh'
p185
sg7
Nsg8
g128
sg10
I01
sg11
I01
sg12
I00
sg13
Nsg14
g94
sg15
(lp186
S'GetFace'
p187
asg16
Nsg17
S'/home/grogan/Chaste/mesh/src/vertex/VertexMesh.hpp'
p188
sg19
I00
sba(iwrapper_utilities.class_data
CppClass
p189
(dp190
g4
Nsg5
S'MutableVertexMesh'
p191
sg7
Nsg8
g128
sg10
I01
sg11
I01
sg12
I00
sg13
Nsg14
g94
sg15
Nsg16
Nsg17
S'/home/grogan/Chaste/mesh/src/vertex/MutableVertexMesh.hpp'
p192
sg19
I00
sba(iwrapper_utilities.class_data
CppClass
p193
(dp194
g4
Nsg5
S'Cylindrical2dVertexMesh'
p195
sg7
Nsg8
g128
sg10
I01
sg11
I01
sg12
I00
sg13
Nsg14
Nsg15
Nsg16
Nsg17
S'/home/grogan/Chaste/mesh/src/vertex/Cylindrical2dVertexMesh.hpp'
p196
sg19
I00
sba(iwrapper_utilities.class_data
CppClass
p197
(dp198
g4
Nsg5
S'SharedHoneycombMeshGenerator'
p199
sg7
Nsg8
g128
sg10
I01
sg11
I01
sg12
I00
sg13
Nsg14
Nsg15
Nsg16
S'HoneycombMeshGenerator'
p200
sg17
S'/home/grogan/Chaste/projects/PyChaste/src/mesh/SharedHoneycombMeshGenerator.hpp'
p201
sg19
I00
sba(iwrapper_utilities.class_data
CppClass
p202
(dp203
g4
Nsg5
S'SharedHoneycombVertexMeshGenerator'
p204
sg7
Nsg8
g128
sg10
I01
sg11
I01
sg12
I00
sg13
Nsg14
Nsg15
Nsg16
S'HoneycombVertexMeshGenerator'
p205
sg17
S'/home/grogan/Chaste/projects/PyChaste/src/mesh/SharedHoneycombVertexMeshGenerator.hpp'
p206
sg19
I00
sba(iwrapper_utilities.class_data
CppClass
p207
(dp208
g4
Nsg5
S'SharedCylindricalHoneycombVertexMeshGenerator'
p209
sg7
Nsg8
g128
sg10
I01
sg11
I01
sg12
I00
sg13
Nsg14
Nsg15
Nsg16
S'CylindricalHoneycombVertexMeshGenerator'
p210
sg17
S'/home/grogan/Chaste/projects/PyChaste/src/mesh/SharedCylindricalHoneycombVertexMeshGenerator.hpp'
p211
sg19
I00
sba(iwrapper_utilities.class_data
CppClass
p212
(dp213
g4
Nsg5
S'std::vector'
p214
sg7
Nsg8
Nsg10
I00
sg11
I00
sg12
I01
sg13
Nsg14
(lp215
(lp216
S'std::pair<Node<3>*, Node<3>* >'
p217
aa(lp218
S'std::pair<Node<2>*, Node<2>* >'
p219
aa(lp220
S'PottsElement<3>*'
p221
aa(lp222
S'PottsElement<2>*'
p223
aa(lp224
S'VertexElement<1, 2>*'
p225
aa(lp226
S'VertexElement<2, 2>*'
p227
aa(lp228
S'VertexElement<2, 3>*'
p229
aa(lp230
S'VertexElement<3, 3>*'
p231
aa(lp232
g231
aa(lp233
S'Element<3, 3>*'
p234
aa(lp235
S'Element<2, 2>*'
p236
aa(lp237
S'Node<3>*'
p238
aa(lp239
S'Node<2>*'
p240
aa(lp241
S'boost::shared_ptr<Node<3> >'
p242
aa(lp243
S'boost::shared_ptr<Node<2> >'
p244
aasg15
Nsg16
Nsg17
Nsg19
I00
sba(iwrapper_utilities.class_data
CppClass
p245
(dp246
g4
Nsg5
S'boost::shared_ptr'
p247
sg7
Nsg8
Nsg10
I00
sg11
I00
sg12
I01
sg13
Nsg14
(lp248
(lp249
S'Node<3>'
p250
aa(lp251
S'Node<2>'
p252
aasg15
Nsg16
Nsg17
Nsg19
I00
sba(iwrapper_utilities.class_data
CppClass
p253
(dp254
g4
Nsg5
S'std::pair'
p255
sg7
Nsg8
Nsg10
I00
sg11
I00
sg12
I01
sg13
Nsg14
(lp256
(lp257
S'Node<3>*, Node<3>*'
p258
aa(lp259
S'Node<2>*, Node<2>*'
p260
aasg15
Nsg16
Nsg17
Nsg19
I00
sba(iwrapper_utilities.class_data
CppClass
p261
(dp262
g4
Nsg5
g214
sg7
Nsg8
S'cell_based'
p263
sg10
I00
sg11
I00
sg12
I01
sg13
Nsg14
(lp264
(lp265
S'CellPtr'
p266
aa(lp267
S'boost::shared_ptr<AbstractCellProperty> '
p268
aa(lp269
S'boost::shared_ptr<AbstractUpdateRule<2> >'
p270
aa(lp271
S'boost::shared_ptr<AbstractUpdateRule<3> >'
p272
aa(lp273
S'boost::shared_ptr<AbstractForce<2> >'
p274
aa(lp275
S'boost::shared_ptr<AbstractForce<3> >'
p276
aa(lp277
g217
aa(lp278
g219
aasg15
Nsg16
Nsg17
Nsg19
I00
sba(iwrapper_utilities.class_data
CppClass
p279
(dp280
g4
Nsg5
S'std::set'
p281
sg7
Nsg8
g263
sg10
I00
sg11
I00
sg12
I01
sg13
Nsg14
(lp282
(lp283
g266
aasg15
Nsg16
Nsg17
Nsg19
I00
sba(iwrapper_utilities.class_data
CppClass
p284
(dp285
g4
Nsg5
g255
sg7
Nsg8
g263
sg10
I00
sg11
I00
sg12
I01
sg13
Nsg14
(lp286
(lp287
g258
aa(lp288
g260
aasg15
Nsg16
Nsg17
Nsg19
I00
sba(iwrapper_utilities.class_data
CppClass
p289
(dp290
g4
Nsg5
S'std::map'
p291
sg7
Nsg8
g263
sg10
I00
sg11
I00
sg12
I01
sg13
Nsg14
(lp292
(lp293
S'Node<2>*, c_vector<double, 2> '
p294
aa(lp295
S'Node<3>*, c_vector<double, 3> '
p296
aa(lp297
S'boost::shared_ptr<Cell>, unsigned'
p298
aasg15
Nsg16
Nsg17
Nsg19
I00
sba(iwrapper_utilities.class_data
CppClass
p299
(dp300
g4
Nsg5
S'AbstractCellBasedSimulation'
p301
sg7
Nsg8
g263
sg10
I01
sg11
I01
sg12
I00
sg13
Nsg14
g94
sg15
(lp302
S'GetSimulationModifiers'
p303
asg16
Nsg17
S'/home/grogan/Chaste/cell_based/src/simulation/AbstractCellBasedSimulation.hpp'
p304
sg19
I00
sba(iwrapper_utilities.class_data
CppClass
p305
(dp306
g4
Nsg5
S'SimulationTime'
p307
sg7
Nsg8
g263
sg10
I01
sg11
I01
sg12
I00
sg13
Nsg14
Nsg15
Nsg16
Nsg17
S'/home/grogan/Chaste/cell_based/src/common/SimulationTime.hpp'
p308
sg19
I00
sba(iwrapper_utilities.class_data
CppClass
p309
(dp310
g4
Nsg5
S'OnLatticeSimulation'
p311
sg7
Nsg8
g263
sg10
I01
sg11
I01
sg12
I00
sg13
Nsg14
g109
sg15
Nsg16
Nsg17
S'/home/grogan/Chaste/cell_based/src/simulation/OnLatticeSimulation.hpp'
p312
sg19
I00
sba(iwrapper_utilities.class_data
CppClass
p313
(dp314
g4
Nsg5
S'OffLatticeSimulation'
p315
sg7
Nsg8
g263
sg10
I01
sg11
I01
sg12
I00
sg13
Nsg14
g94
sg15
Nsg16
Nsg17
S'/home/grogan/Chaste/cell_based/src/simulation/OffLatticeSimulation.hpp'
p316
sg19
I00
sba(iwrapper_utilities.class_data
CppClass
p317
(dp318
g4
Nsg5
S'AbstractCellPopulation'
p319
sg7
Nsg8
g263
sg10
I01
sg11
I01
sg12
I00
sg13
Nsg14
g94
sg15
(lp320
S'rGetCells'
p321
asg16
Nsg17
S'/home/grogan/Chaste/cell_based/src/population/AbstractCellPopulation.hpp'
p322
sg19
I00
sba(iwrapper_utilities.class_data
CppClass
p323
(dp324
g4
Nsg5
S'AbstractOnLatticeCellPopulation'
p325
sg7
Nsg8
g263
sg10
I01
sg11
I01
sg12
I00
sg13
Nsg14
g109
sg15
Nsg16
Nsg17
S'/home/grogan/Chaste/cell_based/src/population/AbstractOnLatticeCellPopulation.hpp'
p326
sg19
I00
sba(iwrapper_utilities.class_data
CppClass
p327
(dp328
g4
Nsg5
S'AbstractCentreBasedCellPopulation'
p329
sg7
Nsg8
g263
sg10
I01
sg11
I01
sg12
I00
sg13
Nsg14
g94
sg15
(lp330
S'GetNodeCorrespondingToCell'
p331
asg16
Nsg17
S'/home/grogan/Chaste/cell_based/src/population/AbstractCentreBasedCellPopulation.hpp'
p332
sg19
I00
sba(iwrapper_utilities.class_data
CppClass
p333
(dp334
g4
Nsg5
S'AbstractOffLatticeCellPopulation'
p335
sg7
Nsg8
g263
sg10
I01
sg11
I01
sg12
I00
sg13
Nsg14
g94
sg15
Nsg16
Nsg17
S'/home/grogan/Chaste/cell_based/src/population/AbstractOffLatticeCellPopulation.hpp'
p336
sg19
I00
sba(iwrapper_utilities.class_data
CppClass
p337
(dp338
g4
Nsg5
S'CaBasedCellPopulation'
p339
sg7
Nsg8
g263
sg10
I01
sg11
I01
sg12
I00
sg13
Nsg14
g109
sg15
(lp340
S'rGetMesh'
p341
aS'GetTetrahedralMeshForPdeModifierGetNodeCorrespondingToCell'
p342
aS'rGetAvailableSpaces'
p343
asg16
Nsg17
S'/home/grogan/Chaste/cell_based/src/population/CaBasedCellPopulation.hpp'
p344
sg19
I00
sba(iwrapper_utilities.class_data
CppClass
p345
(dp346
g4
Nsg5
S'MeshBasedCellPopulation'
p347
sg7
Nsg8
g263
sg10
I01
sg11
I01
sg12
I00
sg13
Nsg14
g94
sg15
(lp348
S'GetVoronoiTessellation, rGetNodePairs, GetTetrahedralMeshForPdeModifier'
p349
ag341
asg16
Nsg17
S'/home/grogan/Chaste/cell_based/src/population/MeshBasedCellPopulation.hpp'
p350
sg19
I00
sba(iwrapper_utilities.class_data
CppClass
p351
(dp352
g4
Nsg5
S'MeshBasedCellPopulationWithGhostNodes'
p353
sg7
Nsg8
g263
sg10
I01
sg11
I01
sg12
I00
sg13
Nsg14
g109
sg15
Nsg16
Nsg17
S'/home/grogan/Chaste/cell_based/src/population/MeshBasedCellPopulationWithGhostNodes.hpp'
p354
sg19
I00
sba(iwrapper_utilities.class_data
CppClass
p355
(dp356
g4
Nsg5
S'VertexBasedCellPopulation'
p357
sg7
Nsg8
g263
sg10
I01
sg11
I01
sg12
I00
sg13
Nsg14
g109
sg15
(lp358
g341
aS'GetTetrahedralMeshForPdeModifier'
p359
aS'GetElement'
p360
aS'GetElementCorrespondingToCell'
p361
asg16
Nsg17
S'/home/grogan/Chaste/cell_based/src/population/VertexBasedCellPopulation.hpp'
p362
sg19
I00
sba(iwrapper_utilities.class_data
CppClass
p363
(dp364
g4
Nsg5
S'PottsBasedCellPopulation'
p365
sg7
Nsg8
g263
sg10
I01
sg11
I01
sg12
I00
sg13
Nsg14
g109
sg15
(lp366
g341
ag359
ag360
ag361
aS'GetElementTessellation'
p367
aS'GetMutableMesh'
p368
asg16
Nsg17
S'/home/grogan/Chaste/cell_based/src/population/PottsBasedCellPopulation.hpp'
p369
sg19
I00
sba(iwrapper_utilities.class_data
CppClass
p370
(dp371
g4
Nsg5
S'NodeBasedCellPopulation'
p372
sg7
Nsg8
g263
sg10
I01
sg11
I01
sg12
I00
sg13
Nsg14
g109
sg15
(lp373
g341
ag359
aS'rGetNodePairs'
p374
asg16
Nsg17
S'/home/grogan/Chaste/cell_based/src/population/NodeBasedCellPopulation.hpp'
p375
sg19
I00
sba(iwrapper_utilities.class_data
CppClass
p376
(dp377
g4
Nsg5
S'VoronoiDataWriter'
p378
sg7
Nsg8
g263
sg10
I01
sg11
I01
sg12
I00
sg13
Nsg14
g94
sg15
Nsg16
Nsg17
S'/home/grogan/Chaste/cell_based/src/writers/population_writers/VoronoiDataWriter.hpp'
p379
sg19
I00
sba(iwrapper_utilities.class_data
CppClass
p380
(dp381
g4
Nsg5
S'CellLabelWriter'
p382
sg7
Nsg8
g263
sg10
I01
sg11
I01
sg12
I00
sg13
Nsg14
g94
sg15
Nsg16
Nsg17
S'/home/grogan/Chaste/cell_based/src/writers/cell_writers/CellLabelWriter.hpp'
p383
sg19
I00
sba(iwrapper_utilities.class_data
CppClass
p384
(dp385
g4
Nsg5
S'AbstractCellPopulationBoundaryCondition'
p386
sg7
Nsg8
g263
sg10
I01
sg11
I01
sg12
I00
sg13
Nsg14
g94
sg15
Nsg16
Nsg17
S'/home/grogan/Chaste/cell_based/src/population/boundary_conditions/AbstractCellPopulationBoundaryCondition.hpp'
p387
sg19
I00
sba(iwrapper_utilities.class_data
CppClass
p388
(dp389
g4
Nsg5
S'PlaneBoundaryCondition'
p390
sg7
Nsg8
g263
sg10
I01
sg11
I01
sg12
I00
sg13
Nsg14
g94
sg15
Nsg16
Nsg17
S'/home/grogan/Chaste/cell_based/src/population/boundary_conditions/PlaneBoundaryCondition.hpp'
p391
sg19
I00
sba(iwrapper_utilities.class_data
CppClass
p392
(dp393
g4
Nsg5
S'AttractingPlaneBoundaryCondition'
p394
sg7
Nsg8
g263
sg10
I01
sg11
I01
sg12
I00
sg13
Nsg14
g94
sg15
Nsg16
Nsg17
S'/home/grogan/Chaste/projects/PyChaste/src/cell_based/AttractingPlaneBoundaryCondition.hpp'
p395
sg19
I00
sba(iwrapper_utilities.class_data
CppClass
p396
(dp397
g4
Nsg5
S'SphereGeometryBoundaryCondition'
p398
sg7
Nsg8
g263
sg10
I01
sg11
I01
sg12
I00
sg13
Nsg14
g109
sg15
Nsg16
Nsg17
S'/home/grogan/Chaste/cell_based/src/population/boundary_conditions/SphereGeometryBoundaryCondition.hpp'
p399
sg19
I00
sba(iwrapper_utilities.class_data
CppClass
p400
(dp401
g4
Nsg5
S'AbstractCellKiller'
p402
sg7
Nsg8
g263
sg10
I01
sg11
I01
sg12
I00
sg13
Nsg14
g109
sg15
Nsg16
Nsg17
S'/home/grogan/Chaste/cell_based/src/population/killers/AbstractCellKiller.hpp'
p403
sg19
I00
sba(iwrapper_utilities.class_data
CppClass
p404
(dp405
g4
Nsg5
S'PlaneBasedCellKiller'
p406
sg7
Nsg8
g263
sg10
I01
sg11
I01
sg12
I00
sg13
Nsg14
g109
sg15
Nsg16
Nsg17
S'/home/grogan/Chaste/cell_based/src/population/killers/PlaneBasedCellKiller.hpp'
p407
sg19
I00
sba(iwrapper_utilities.class_data
CppClass
p408
(dp409
g4
Nsg5
S'ApoptoticCellKiller'
p410
sg7
Nsg8
g263
sg10
I01
sg11
I01
sg12
I00
sg13
Nsg14
g109
sg15
Nsg16
Nsg17
S'/home/grogan/Chaste/cell_based/src/population/killers/ApoptoticCellKiller.hpp'
p411
sg19
I00
sba(iwrapper_utilities.class_data
CppClass
p412
(dp413
g4
Nsg5
S'AbstractForce'
p414
sg7
Nsg8
g263
sg10
I01
sg11
I01
sg12
I00
sg13
Nsg14
g94
sg15
Nsg16
Nsg17
S'/home/grogan/Chaste/cell_based/src/population/forces/AbstractForce.hpp'
p415
sg19
I00
sba(iwrapper_utilities.class_data
CppClass
p416
(dp417
g4
Nsg5
S'AbstractTwoBodyInteractionForce'
p418
sg7
Nsg8
g263
sg10
I01
sg11
I01
sg12
I00
sg13
Nsg14
g94
sg15
Nsg16
Nsg17
S'/home/grogan/Chaste/cell_based/src/population/forces/AbstractTwoBodyInteractionForce.hpp'
p419
sg19
I00
sba(iwrapper_utilities.class_data
CppClass
p420
(dp421
g4
Nsg5
S'GeneralisedLinearSpringForce'
p422
sg7
Nsg8
g263
sg10
I01
sg11
I01
sg12
I00
sg13
Nsg14
g94
sg15
Nsg16
Nsg17
S'/home/grogan/Chaste/cell_based/src/population/forces/GeneralisedLinearSpringForce.hpp'
p423
sg19
I00
sba(iwrapper_utilities.class_data
CppClass
p424
(dp425
g4
Nsg5
S'NagaiHondaForce'
p426
sg7
Nsg8
g263
sg10
I01
sg11
I01
sg12
I00
sg13
Nsg14
g109
sg15
Nsg16
Nsg17
S'/home/grogan/Chaste/cell_based/src/population/forces/NagaiHondaForce.hpp'
p427
sg19
I00
sba(iwrapper_utilities.class_data
CppClass
p428
(dp429
g4
Nsg5
S'AbstractVertexBasedDivisionRule'
p430
sg7
Nsg8
g263
sg10
I01
sg11
I01
sg12
I00
sg13
Nsg14
g109
sg15
Nsg16
Nsg17
S'/home/grogan/Chaste/cell_based/src/population/division_rules/AbstractVertexBasedDivisionRule.hpp'
p431
sg19
I00
sba(iwrapper_utilities.class_data
CppClass
p432
(dp433
g4
Nsg5
S'AbstractCaUpdateRule'
p434
sg7
Nsg8
g263
sg10
I01
sg11
I01
sg12
I00
sg13
Nsg14
g109
sg15
Nsg16
Nsg17
S'/home/grogan/Chaste/cell_based/src/population/update_rules/AbstractCaUpdateRule.hpp'
p435
sg19
I00
sba(iwrapper_utilities.class_data
CppClass
p436
(dp437
g4
Nsg5
S'AbstractUpdateRule'
p438
sg7
Nsg8
g263
sg10
I01
sg11
I01
sg12
I00
sg13
Nsg14
g109
sg15
Nsg16
Nsg17
S'/home/grogan/Chaste/cell_based/src/population/update_rules/AbstractUpdateRule.hpp'
p439
sg19
I00
sba(iwrapper_utilities.class_data
CppClass
p440
(dp441
g4
Nsg5
S'DiffusionCaUpdateRule'
p442
sg7
Nsg8
g263
sg10
I01
sg11
I01
sg12
I00
sg13
Nsg14
g109
sg15
Nsg16
Nsg17
S'/home/grogan/Chaste/cell_based/src/population/update_rules/DiffusionCaUpdateRule.hpp'
p443
sg19
I00
sba(iwrapper_utilities.class_data
CppClass
p444
(dp445
g4
Nsg5
S'AbstractPottsUpdateRule'
p446
sg7
Nsg8
g263
sg10
I01
sg11
I01
sg12
I00
sg13
Nsg14
g109
sg15
Nsg16
Nsg17
S'/home/grogan/Chaste/cell_based/src/population/update_rules/AbstractPottsUpdateRule.hpp'
p447
sg19
I00
sba(iwrapper_utilities.class_data
CppClass
p448
(dp449
g4
Nsg5
S'VolumeConstraintPottsUpdateRule'
p450
sg7
Nsg8
g263
sg10
I01
sg11
I01
sg12
I00
sg13
Nsg14
g109
sg15
Nsg16
Nsg17
S'/home/grogan/Chaste/cell_based/src/population/update_rules/VolumeConstraintPottsUpdateRule.hpp'
p451
sg19
I00
sba(iwrapper_utilities.class_data
CppClass
p452
(dp453
g4
Nsg5
S'SurfaceAreaConstraintPottsUpdateRule'
p454
sg7
Nsg8
g263
sg10
I01
sg11
I01
sg12
I00
sg13
Nsg14
g109
sg15
Nsg16
Nsg17
S'/home/grogan/Chaste/cell_based/src/population/update_rules/SurfaceAreaConstraintPottsUpdateRule.hpp'
p455
sg19
I00
sba(iwrapper_utilities.class_data
CppClass
p456
(dp457
g4
Nsg5
S'DifferentialAdhesionPottsUpdateRule'
p458
sg7
Nsg8
g263
sg10
I01
sg11
I01
sg12
I00
sg13
Nsg14
g109
sg15
Nsg16
Nsg17
S'/home/grogan/Chaste/cell_based/src/population/update_rules/DifferentialAdhesionPottsUpdateRule.hpp'
p459
sg19
I00
sba(iwrapper_utilities.class_data
CppClass
p460
(dp461
g4
Nsg5
S'AdhesionPottsUpdateRule'
p462
sg7
Nsg8
g263
sg10
I01
sg11
I01
sg12
I00
sg13
Nsg14
g109
sg15
Nsg16
Nsg17
S'/home/grogan/Chaste/cell_based/src/population/update_rules/AdhesionPottsUpdateRule.hpp'
p463
sg19
I00
sba(iwrapper_utilities.class_data
CppClass
p464
(dp465
g4
Nsg5
S'CellwiseSourceEllipticPde'
p466
sg7
Nsg8
g263
sg10
I01
sg11
I01
sg12
I00
sg13
Nsg14
g109
sg15
Nsg16
Nsg17
S'/home/grogan/Chaste/cell_based/src/cell_based_pde/pdes/CellwiseSourceEllipticPde.hpp'
p467
sg19
I00
sba(iwrapper_utilities.class_data
CppClass
p468
(dp469
g4
Nsg5
S'AveragedSourceEllipticPde'
p470
sg7
Nsg8
g263
sg10
I01
sg11
I01
sg12
I00
sg13
Nsg14
g109
sg15
Nsg16
Nsg17
S'/home/grogan/Chaste/cell_based/src/cell_based_pde/pdes/AveragedSourceEllipticPde.hpp'
p471
sg19
I00
sba(iwrapper_utilities.class_data
CppClass
p472
(dp473
g4
Nsg5
S'AveragedSourceParabolicPde'
p474
sg7
Nsg8
g263
sg10
I01
sg11
I01
sg12
I00
sg13
Nsg14
g109
sg15
Nsg16
Nsg17
S'/home/grogan/Chaste/cell_based/src/cell_based_pde/pdes/AveragedSourceParabolicPde.hpp'
p475
sg19
I00
sba(iwrapper_utilities.class_data
CppClass
p476
(dp477
g4
Nsg5
S'CellwiseSourceParabolicPde'
p478
sg7
Nsg8
g263
sg10
I01
sg11
I01
sg12
I00
sg13
Nsg14
g109
sg15
Nsg16
Nsg17
S'/home/grogan/Chaste/cell_based/src/cell_based_pde/pdes/CellwiseSourceParabolicPde.hpp'
p479
sg19
I00
sba(iwrapper_utilities.class_data
CppClass
p480
(dp481
g4
Nsg5
S'AbstractPdeModifier'
p482
sg7
Nsg8
g263
sg10
I01
sg11
I01
sg12
I00
sg13
Nsg14
g109
sg15
(lp483
S'GetSolution, GetFeMesh'
p484
asg16
Nsg17
S'/home/grogan/Chaste/cell_based/src/cell_based_pde/AbstractPdeModifier.hpp'
p485
sg19
I00
sba(iwrapper_utilities.class_data
CppClass
p486
(dp487
g4
Nsg5
S'AbstractGrowingDomainPdeModifier'
p488
sg7
Nsg8
g263
sg10
I01
sg11
I01
sg12
I00
sg13
Nsg14
g109
sg15
Nsg16
Nsg17
S'/home/grogan/Chaste/cell_based/src/cell_based_pde/AbstractGrowingDomainPdeModifier.hpp'
p489
sg19
I00
sba(iwrapper_utilities.class_data
CppClass
p490
(dp491
g4
Nsg5
S'EllipticGrowingDomainPdeModifier'
p492
sg7
Nsg8
g263
sg10
I01
sg11
I01
sg12
I00
sg13
Nsg14
g109
sg15
(lp493
S'ConstructBoundaryConditionsContainer'
p494
asg16
Nsg17
S'/home/grogan/Chaste/cell_based/src/cell_based_pde/EllipticGrowingDomainPdeModifier.hpp'
p495
sg19
I00
sba(iwrapper_utilities.class_data
CppClass
p496
(dp497
g4
Nsg5
S'Cell'
p498
sg7
Nsg8
g263
sg10
I01
sg11
I01
sg12
I00
sg13
Nsg14
Nsg15
(lp499
S'rGetCellPropertyCollection'
p500
aS'GetSrnModel'
p501
asg16
Nsg17
S'/home/grogan/Chaste/cell_based/src/cell/Cell.hpp'
p502
sg19
I00
sba(iwrapper_utilities.class_data
CppClass
p503
(dp504
g4
Nsg5
S'CellsGenerator'
p505
sg7
Nsg8
g263
sg10
I01
sg11
I01
sg12
I00
sg13
Nsg14
(lp506
(lp507
S'UniformCellCycleModel'
p508
aI2
aa(lp509
g508
aI3
aa(lp510
S'SimpleOxygenBasedCellCycleModel'
p511
aI2
aa(lp512
g511
aI3
aa(lp513
S'UniformG1GenerationalCellCycleModel'
p514
aI2
aa(lp515
g514
aI3
aa(lp516
S'NoCellCycleModel'
p517
aI2
aa(lp518
g517
aI3
aasg15
Nsg16
Nsg17
S'/home/grogan/Chaste/cell_based/src/cell/CellsGenerator.hpp'
p519
sg19
I00
sba(iwrapper_utilities.class_data
CppClass
p520
(dp521
g4
Nsg5
S'AbstractCellCycleModel'
p522
sg7
Nsg8
g263
sg10
I01
sg11
I01
sg12
I00
sg13
Nsg14
Nsg15
Nsg16
Nsg17
S'/home/grogan/Chaste/cell_based/src/cell/cycle/AbstractCellCycleModel.hpp'
p523
sg19
I00
sba(iwrapper_utilities.class_data
CppClass
p524
(dp525
g4
Nsg5
S'AbstractPhaseBasedCellCycleModel'
p526
sg7
Nsg8
g263
sg10
I01
sg11
I01
sg12
I00
sg13
Nsg14
Nsg15
Nsg16
Nsg17
S'/home/grogan/Chaste/cell_based/src/cell/cycle/AbstractPhaseBasedCellCycleModel.hpp'
p527
sg19
I00
sba(iwrapper_utilities.class_data
CppClass
p528
(dp529
g4
Nsg5
S'AbstractSimpleCellCycleModel'
p530
sg7
Nsg8
g263
sg10
I01
sg11
I01
sg12
I00
sg13
Nsg14
Nsg15
Nsg16
Nsg17
S'/home/grogan/Chaste/cell_based/src/cell/cycle/AbstractSimpleCellCycleModel.hpp'
p531
sg19
I00
sba(iwrapper_utilities.class_data
CppClass
p532
(dp533
g4
Nsg5
S'AbstractSimplePhaseBasedCellCycleModel'
p534
sg7
Nsg8
g263
sg10
I01
sg11
I01
sg12
I00
sg13
Nsg14
Nsg15
Nsg16
Nsg17
S'/home/grogan/Chaste/cell_based/src/cell/cycle/AbstractSimplePhaseBasedCellCycleModel.hpp'
p535
sg19
I00
sba(iwrapper_utilities.class_data
CppClass
p536
(dp537
g4
Nsg5
S'AbstractSimpleGenerationalCellCycleModel'
p538
sg7
Nsg8
g263
sg10
I01
sg11
I01
sg12
I00
sg13
Nsg14
Nsg15
Nsg16
Nsg17
S'/home/grogan/Chaste/cell_based/src/cell/cycle/AbstractSimpleGenerationalCellCycleModel.hpp'
p539
sg19
I00
sba(iwrapper_utilities.class_data
CppClass
p540
(dp541
g4
Nsg5
g508
sg7
Nsg8
g263
sg10
I01
sg11
I01
sg12
I00
sg13
Nsg14
Nsg15
Nsg16
Nsg17
S'/home/grogan/Chaste/cell_based/src/cell/cycle/UniformCellCycleModel.hpp'
p542
sg19
I00
sba(iwrapper_utilities.class_data
CppClass
p543
(dp544
g4
Nsg5
g511
sg7
Nsg8
g263
sg10
I01
sg11
I01
sg12
I00
sg13
Nsg14
Nsg15
Nsg16
Nsg17
S'/home/grogan/Chaste/cell_based/src/cell/cycle/SimpleOxygenBasedCellCycleModel.hpp'
p545
sg19
I00
sba(iwrapper_utilities.class_data
CppClass
p546
(dp547
g4
Nsg5
g514
sg7
Nsg8
g263
sg10
I01
sg11
I01
sg12
I00
sg13
Nsg14
Nsg15
Nsg16
Nsg17
S'/home/grogan/Chaste/cell_based/src/cell/cycle/UniformG1GenerationalCellCycleModel.hpp'
p548
sg19
I00
sba(iwrapper_utilities.class_data
CppClass
p549
(dp550
g4
Nsg5
g517
sg7
Nsg8
g263
sg10
I01
sg11
I01
sg12
I00
sg13
Nsg14
Nsg15
Nsg16
Nsg17
S'/home/grogan/Chaste/cell_based/src/cell/cycle/NoCellCycleModel.hpp'
p551
sg19
I00
sba(iwrapper_utilities.class_data
CppClass
p552
(dp553
g4
Nsg5
S'AbstractCellProperty'
p554
sg7
Nsg8
g263
sg10
I01
sg11
I01
sg12
I00
sg13
Nsg14
Nsg15
(lp555
S'IsType'
p556
asg16
Nsg17
S'/home/grogan/Chaste/cell_based/src/cell/properties/AbstractCellProperty.hpp'
p557
sg19
I00
sba(iwrapper_utilities.class_data
CppClass
p558
(dp559
g4
Nsg5
S'CellPropertyCollection'
p560
sg7
Nsg8
g263
sg10
I01
sg11
I01
sg12
I00
sg13
Nsg14
Nsg15
(lp561
S'GetCellPropertyRegistry'
p562
asg16
Nsg17
S'/home/grogan/Chaste/cell_based/src/cell/properties/CellPropertyCollection.hpp'
p563
sg19
I00
sba(iwrapper_utilities.class_data
CppClass
p564
(dp565
g4
Nsg5
S'AbstractCellProliferativeType'
p566
sg7
Nsg8
g263
sg10
I01
sg11
I01
sg12
I00
sg13
Nsg14
Nsg15
Nsg16
Nsg17
S'/home/grogan/Chaste/cell_based/src/cell/properties/proliferative_types/AbstractCellProliferativeType.hpp'
p567
sg19
I00
sba(iwrapper_utilities.class_data
CppClass
p568
(dp569
g4
Nsg5
S'StemCellProliferativeType'
p570
sg7
Nsg8
g263
sg10
I01
sg11
I01
sg12
I00
sg13
Nsg14
Nsg15
Nsg16
Nsg17
S'/home/grogan/Chaste/cell_based/src/cell/properties/proliferative_types/StemCellProliferativeType.hpp'
p571
sg19
I00
sba(iwrapper_utilities.class_data
CppClass
p572
(dp573
g4
Nsg5
S'DefaultCellProliferativeType'
p574
sg7
Nsg8
g263
sg10
I01
sg11
I01
sg12
I00
sg13
Nsg14
Nsg15
Nsg16
Nsg17
S'/home/grogan/Chaste/cell_based/src/cell/properties/proliferative_types/DefaultCellProliferativeType.hpp'
p575
sg19
I00
sba(iwrapper_utilities.class_data
CppClass
p576
(dp577
g4
Nsg5
S'TransitCellProliferativeType'
p578
sg7
Nsg8
g263
sg10
I01
sg11
I01
sg12
I00
sg13
Nsg14
Nsg15
Nsg16
Nsg17
S'/home/grogan/Chaste/cell_based/src/cell/properties/proliferative_types/TransitCellProliferativeType.hpp'
p579
sg19
I00
sba(iwrapper_utilities.class_data
CppClass
p580
(dp581
g4
Nsg5
S'DifferentiatedCellProliferativeType'
p582
sg7
Nsg8
g263
sg10
I01
sg11
I01
sg12
I00
sg13
Nsg14
Nsg15
Nsg16
Nsg17
S'/home/grogan/Chaste/cell_based/src/cell/properties/proliferative_types/DifferentiatedCellProliferativeType.hpp'
p583
sg19
I00
sba(iwrapper_utilities.class_data
CppClass
p584
(dp585
g4
Nsg5
S'AbstractCellMutationState'
p586
sg7
Nsg8
g263
sg10
I01
sg11
I01
sg12
I00
sg13
Nsg14
Nsg15
Nsg16
Nsg17
S'/home/grogan/Chaste/cell_based/src/cell/properties/mutations/AbstractCellMutationState.hpp'
p587
sg19
I00
sba(iwrapper_utilities.class_data
CppClass
p588
(dp589
g4
Nsg5
S'ApcOneHitCellMutationState'
p590
sg7
Nsg8
g263
sg10
I01
sg11
I01
sg12
I00
sg13
Nsg14
Nsg15
Nsg16
Nsg17
S'/home/grogan/Chaste/cell_based/src/cell/properties/mutations/ApcOneHitCellMutationState.hpp'
p591
sg19
I00
sba(iwrapper_utilities.class_data
CppClass
p592
(dp593
g4
Nsg5
S'ApcTwoHitCellMutationState'
p594
sg7
Nsg8
g263
sg10
I01
sg11
I01
sg12
I00
sg13
Nsg14
Nsg15
Nsg16
Nsg17
S'/home/grogan/Chaste/cell_based/src/cell/properties/mutations/ApcTwoHitCellMutationState.hpp'
p595
sg19
I00
sba(iwrapper_utilities.class_data
CppClass
p596
(dp597
g4
Nsg5
S'BetaCateninOneHitCellMutationState'
p598
sg7
Nsg8
g263
sg10
I01
sg11
I01
sg12
I00
sg13
Nsg14
Nsg15
Nsg16
Nsg17
S'/home/grogan/Chaste/cell_based/src/cell/properties/mutations/BetaCateninOneHitCellMutationState.hpp'
p599
sg19
I00
sba(iwrapper_utilities.class_data
CppClass
p600
(dp601
g4
Nsg5
S'WildTypeCellMutationState'
p602
sg7
Nsg8
g263
sg10
I01
sg11
I01
sg12
I00
sg13
Nsg14
Nsg15
Nsg16
Nsg17
S'/home/grogan/Chaste/cell_based/src/cell/properties/mutations/WildTypeCellMutationState.hpp'
p603
sg19
I00
sba(iwrapper_utilities.class_data
CppClass
p604
(dp605
g4
Nsg5
S'ApoptoticCellProperty'
p606
sg7
Nsg8
g263
sg10
I01
sg11
I01
sg12
I00
sg13
Nsg14
Nsg15
Nsg16
Nsg17
S'/home/grogan/Chaste/cell_based/src/cell/properties/ApoptoticCellProperty.hpp'
p607
sg19
I00
sba(iwrapper_utilities.class_data
CppClass
p608
(dp609
g4
Nsg5
S'CellData'
p610
sg7
Nsg8
g263
sg10
I01
sg11
I01
sg12
I00
sg13
Nsg14
Nsg15
Nsg16
Nsg17
S'/home/grogan/Chaste/cell_based/src/cell/properties/CellData.hpp'
p611
sg19
I00
sba(iwrapper_utilities.class_data
CppClass
p612
(dp613
g4
Nsg5
S'CellLabel'
p614
sg7
Nsg8
g263
sg10
I01
sg11
I01
sg12
I00
sg13
Nsg14
Nsg15
Nsg16
Nsg17
S'/home/grogan/Chaste/cell_based/src/cell/properties/CellLabel.hpp'
p615
sg19
I00
sba(iwrapper_utilities.class_data
CppClass
p616
(dp617
g4
Nsg5
S'CellAncestor'
p618
sg7
Nsg8
g263
sg10
I01
sg11
I01
sg12
I00
sg13
Nsg14
Nsg15
Nsg16
Nsg17
S'/home/grogan/Chaste/cell_based/src/cell/properties/CellAncestor.hpp'
p619
sg19
I00
sba(iwrapper_utilities.class_data
CppClass
p620
(dp621
g4
Nsg5
S'CellId'
p622
sg7
Nsg8
g263
sg10
I01
sg11
I01
sg12
I00
sg13
Nsg14
Nsg15
Nsg16
Nsg17
S'/home/grogan/Chaste/cell_based/src/cell/properties/CellId.hpp'
p623
sg19
I00
sba(iwrapper_utilities.class_data
CppClass
p624
(dp625
g4
Nsg5
S'CellPropertyRegistry'
p626
sg7
Nsg8
g263
sg10
I01
sg11
I01
sg12
I00
sg13
Nsg14
Nsg15
(lp627
S'rGetAllCellProperties'
p628
aS'TakeOwnership'
p629
aS'Get'
p630
asg16
Nsg17
S'/home/grogan/Chaste/cell_based/src/cell/properties/CellPropertyRegistry.hpp'
p631
sg19
I00
sba(iwrapper_utilities.class_data
CppClass
p632
(dp633
g4
Nsg5
S'AbstractSrnModel'
p634
sg7
Nsg8
g263
sg10
I01
sg11
I01
sg12
I00
sg13
Nsg14
Nsg15
Nsg16
Nsg17
S'/home/grogan/Chaste/cell_based/src/cell/srn/AbstractSrnModel.hpp'
p635
sg19
I00
sba(iwrapper_utilities.class_data
CppClass
p636
(dp637
g4
Nsg5
S'NullSrnModel'
p638
sg7
Nsg8
g263
sg10
I01
sg11
I01
sg12
I00
sg13
Nsg14
Nsg15
Nsg16
Nsg17
S'/home/grogan/Chaste/cell_based/src/cell/srn/NullSrnModel.hpp'
p639
sg19
I00
sba(iwrapper_utilities.class_data
CppClass
p640
(dp641
g4
Nsg5
S'Hello'
p642
sg7
Nsg8
S'tutorial'
p643
sg10
I01
sg11
I01
sg12
I00
sg13
Nsg14
Nsg15
Nsg16
Nsg17
S'/home/grogan/Chaste/projects/PyChaste/src/tutorial/Hello.hpp'
p644
sg19
I00
sba(iwrapper_utilities.class_data
CppClass
p645
(dp646
g4
Nsg5
S'VtkScene'
p647
sg7
Nsg8
S'visualization'
p648
sg10
I01
sg11
I01
sg12
I00
sg13
Nsg14
g109
sg15
Nsg16
Nsg17
S'/home/grogan/Chaste/projects/PyChaste/src/visualization/VtkScene.hpp'
p649
sg19
I00
sba(iwrapper_utilities.class_data
CppClass
p650
(dp651
g4
Nsg5
S'AbstractPyChasteActorGenerator'
p652
sg7
Nsg8
g648
sg10
I01
sg11
I01
sg12
I00
sg13
Nsg14
g109
sg15
Nsg16
Nsg17
S'/home/grogan/Chaste/projects/PyChaste/src/visualization/AbstractPyChasteActorGenerator.hpp'
p653
sg19
I00
sba(iwrapper_utilities.class_data
CppClass
p654
(dp655
g4
Nsg5
S'CellPopulationPyChasteActorGenerator'
p656
sg7
Nsg8
g648
sg10
I01
sg11
I01
sg12
I00
sg13
Nsg14
g109
sg15
Nsg16
Nsg17
S'/home/grogan/Chaste/projects/PyChaste/src/visualization/CellPopulationPyChasteActorGenerator.hpp'
p657
sg19
I00
sba.