(lp1
(iwrapper_utilities.class_info
CppClassInfo
p2
(dp3
S'pointer_return_methods'
p4
NsS'constructor_arg_type_excludes'
p5
(lp6
sS'name'
p7
S'Identifiable'
p8
sS'include_ptr_self'
p9
I00
sS'include_raw_ptr_self'
p10
I00
sS'declaration_code'
p11
NsS'component'
p12
S'core'
p13
sS'needs_include_file'
p14
I01
sS'needs_instantiation'
p15
I01
sS'include_in_this_module'
p16
I01
sS'skip_wrapping'
p17
I00
sS'excluded_variables'
p18
NsS'template_args'
p19
NsS'excluded_methods'
p20
NsS'name_replacements'
p21
(dp22
S'std::string'
p23
S'String'
p24
sS'c_vector'
p25
S'CVector'
p26
sS'std::set'
p27
S'Set'
p28
sS'std::pair'
p29
S'Pair'
p30
sS'std::map'
p31
S'Map'
p32
sS'boost::shared_ptr'
p33
S'SharedPtr'
p34
sS'std::vector'
p35
S'Vector'
p36
sS'*'
S'Ptr'
p37
sS'unsigned'
p38
S'Unsigned'
p39
sS'unsigned int'
p40
g39
sS'double'
p41
S'Double'
p42
sS'Unsigned int'
p43
g39
ssS'name_override'
p44
NsS'include_vec_ptr_self'
p45
I00
sS'full_path'
p46
S'/home/grogan/Chaste/global/src/checkpointing/Identifiable.hpp'
p47
sS'include_file_only'
p48
I00
sba(iwrapper_utilities.class_info
CppClassInfo
p49
(dp50
g4
Nsg5
(lp51
sg7
S'PetscTools'
p52
sg9
I00
sg10
I00
sg11
Nsg12
g13
sg14
I01
sg15
I01
sg16
I01
sg17
I00
sg18
(lp53
S'MASTER_RANK'
p54
asg19
Nsg20
(lp55
S'GetWorld'
p56
asg21
(dp57
g23
g24
sg25
g26
sg27
g28
sg29
g30
sg31
g32
sg33
g34
sg35
g36
sS'*'
g37
sg38
g39
sg40
g39
sg41
g42
sg43
g39
ssg44
Nsg45
I00
sg46
S'/home/grogan/Chaste/global/src/parallel/PetscTools.hpp'
p58
sg48
I00
sba(iwrapper_utilities.class_info
CppClassInfo
p59
(dp60
g4
Nsg5
(lp61
sg7
S'ReplicatableVector'
p62
sg9
I00
sg10
I00
sg11
Nsg12
g13
sg14
I01
sg15
I01
sg16
I01
sg17
I00
sg18
Nsg19
Nsg20
Nsg21
(dp63
g23
g24
sg25
g26
sg27
g28
sg29
g30
sg31
g32
sg33
g34
sg35
g36
sS'*'
g37
sg38
g39
sg40
g39
sg41
g42
sg43
g39
ssg44
Nsg45
I00
sg46
S'/home/grogan/Chaste/global/src/parallel/ReplicatableVector.hpp'
p64
sg48
I00
sba(iwrapper_utilities.class_info
CppClassInfo
p65
(dp66
g4
Nsg5
(lp67
sg7
S'Timer'
p68
sg9
I00
sg10
I00
sg11
Nsg12
g13
sg14
I01
sg15
I01
sg16
I01
sg17
I00
sg18
Nsg19
Nsg20
Nsg21
(dp69
g23
g24
sg25
g26
sg27
g28
sg29
g30
sg31
g32
sg33
g34
sg35
g36
sS'*'
g37
sg38
g39
sg40
g39
sg41
g42
sg43
g39
ssg44
Nsg45
I00
sg46
S'/home/grogan/Chaste/global/src/timing/Timer.hpp'
p70
sg48
I00
sba(iwrapper_utilities.class_info
CppClassInfo
p71
(dp72
g4
Nsg5
(lp73
sg7
S'BoostFilesystem'
p74
sg9
I00
sg10
I00
sg11
Nsg12
g13
sg14
I01
sg15
I01
sg16
I01
sg17
I00
sg18
Nsg19
Nsg20
Nsg21
(dp75
g23
g24
sg25
g26
sg27
g28
sg29
g30
sg31
g32
sg33
g34
sg35
g36
sS'*'
g37
sg38
g39
sg40
g39
sg41
g42
sg43
g39
ssg44
Nsg45
I00
sg46
S'/home/grogan/Chaste/global/src/BoostFilesystem.hpp'
p76
sg48
I00
sba(iwrapper_utilities.class_info
CppClassInfo
p77
(dp78
g4
Nsg5
(lp79
sg7
S'RelativeTo'
p80
sg9
I00
sg10
I00
sg11
Nsg12
g13
sg14
I01
sg15
I01
sg16
I01
sg17
I00
sg18
Nsg19
Nsg20
Nsg21
(dp81
g23
g24
sg25
g26
sg27
g28
sg29
g30
sg31
g32
sg33
g34
sg35
g36
sS'*'
g37
sg38
g39
sg40
g39
sg41
g42
sg43
g39
ssg44
Nsg45
I00
sg46
Nsg48
I00
sba(iwrapper_utilities.class_info
CppClassInfo
p82
(dp83
g4
Nsg5
(lp84
sg7
S'FileFinder'
p85
sg9
I00
sg10
I00
sg11
Nsg12
g13
sg14
I01
sg15
I01
sg16
I01
sg17
I00
sg18
Nsg19
Nsg20
Nsg21
(dp86
g23
g24
sg25
g26
sg27
g28
sg29
g30
sg31
g32
sg33
g34
sg35
g36
sS'*'
g37
sg38
g39
sg40
g39
sg41
g42
sg43
g39
ssg44
Nsg45
I00
sg46
S'/home/grogan/Chaste/global/src/FileFinder.hpp'
p87
sg48
I00
sba(iwrapper_utilities.class_info
CppClassInfo
p88
(dp89
g4
Nsg5
(lp90
sg7
S'OutputFileHandler'
p91
sg9
I00
sg10
I00
sg11
Nsg12
g13
sg14
I01
sg15
I01
sg16
I01
sg17
I00
sg18
Nsg19
Nsg20
(lp92
S'OpenOutputFile'
p93
asg21
(dp94
g23
g24
sg25
g26
sg27
g28
sg29
g30
sg31
g32
sg33
g34
sg35
g36
sS'*'
g37
sg38
g39
sg40
g39
sg41
g42
sg43
g39
ssg44
Nsg45
I00
sg46
S'/home/grogan/Chaste/global/src/OutputFileHandler.hpp'
p95
sg48
I00
sba(iwrapper_utilities.class_info
CppClassInfo
p96
(dp97
g4
Nsg5
(lp98
sg7
S'ProgressReporter'
p99
sg9
I00
sg10
I00
sg11
Nsg12
g13
sg14
I01
sg15
I01
sg16
I01
sg17
I00
sg18
Nsg19
Nsg20
Nsg21
(dp100
g23
g24
sg25
g26
sg27
g28
sg29
g30
sg31
g32
sg33
g34
sg35
g36
sS'*'
g37
sg38
g39
sg40
g39
sg41
g42
sg43
g39
ssg44
Nsg45
I00
sg46
S'/home/grogan/Chaste/global/src/ProgressReporter.hpp'
p101
sg48
I00
sba(iwrapper_utilities.class_info
CppClassInfo
p102
(dp103
g4
Nsg5
(lp104
sg7
S'RandomNumberGenerator'
p105
sg9
I00
sg10
I00
sg11
Nsg12
g13
sg14
I01
sg15
I01
sg16
I01
sg17
I00
sg18
Nsg19
Nsg20
Nsg21
(dp106
g23
g24
sg25
g26
sg27
g28
sg29
g30
sg31
g32
sg33
g34
sg35
g36
sS'*'
g37
sg38
g39
sg40
g39
sg41
g42
sg43
g39
ssg44
Nsg45
I00
sg46
S'/home/grogan/Chaste/global/src/RandomNumberGenerator.hpp'
p107
sg48
I00
sba(iwrapper_utilities.class_info
CppClassInfo
p108
(dp109
g4
Nsg5
(lp110
sg7
S'SmartPointers'
p111
sg9
I00
sg10
I00
sg11
Nsg12
g13
sg14
I01
sg15
I01
sg16
I01
sg17
I00
sg18
Nsg19
Nsg20
Nsg21
(dp112
g23
g24
sg25
g26
sg27
g28
sg29
g30
sg31
g32
sg33
g34
sg35
g36
sS'*'
g37
sg38
g39
sg40
g39
sg41
g42
sg43
g39
ssg44
Nsg45
I00
sg46
S'/home/grogan/Chaste/global/src/SmartPointers.hpp'
p113
sg48
I00
sba(iwrapper_utilities.class_info
CppClassInfo
p114
(dp115
g4
Nsg5
(lp116
sg7
S'TimeStepper'
p117
sg9
I00
sg10
I00
sg11
Nsg12
g13
sg14
I01
sg15
I01
sg16
I01
sg17
I00
sg18
Nsg19
Nsg20
Nsg21
(dp118
g23
g24
sg25
g26
sg27
g28
sg29
g30
sg31
g32
sg33
g34
sg35
g36
sS'*'
g37
sg38
g39
sg40
g39
sg41
g42
sg43
g39
ssg44
Nsg45
I00
sg46
S'/home/grogan/Chaste/global/src/TimeStepper.hpp'
p119
sg48
I00
sba(iwrapper_utilities.class_info
CppClassInfo
p120
(dp121
g4
Nsg5
(lp122
sg7
S'Version'
p123
sg9
I00
sg10
I00
sg11
Nsg12
g13
sg14
I01
sg15
I01
sg16
I01
sg17
I00
sg18
Nsg19
Nsg20
Nsg21
(dp124
g23
g24
sg25
g26
sg27
g28
sg29
g30
sg31
g32
sg33
g34
sg35
g36
sS'*'
g37
sg38
g39
sg40
g39
sg41
g42
sg43
g39
ssg44
Nsg45
I00
sg46
S'/home/grogan/Chaste/global/src/Version.hpp'
p125
sg48
I00
sba(iwrapper_utilities.class_info
CppClassInfo
p126
(dp127
g4
Nsg5
(lp128
sg7
S'UblasIncludes'
p129
sg9
I00
sg10
I00
sg11
Nsg12
g13
sg14
I01
sg15
I01
sg16
I01
sg17
I00
sg18
Nsg19
Nsg20
Nsg21
(dp130
g23
g24
sg25
g26
sg27
g28
sg29
g30
sg31
g32
sg33
g34
sg35
g36
sS'*'
g37
sg38
g39
sg40
g39
sg41
g42
sg43
g39
ssg44
Nsg45
I00
sg46
S'/home/grogan/Chaste/linalg/src/UblasIncludes.hpp'
p131
sg48
I00
sba(iwrapper_utilities.class_info
CppClassInfo
p132
(dp133
g4
Nsg5
(lp134
sg7
S'AbstractOdeSystemInformation'
p135
sg9
I00
sg10
I00
sg11
Nsg12
S'ode'
p136
sg14
I01
sg15
I01
sg16
I01
sg17
I00
sg18
Nsg19
Nsg20
Nsg21
(dp137
g23
g24
sg25
g26
sg27
g28
sg29
g30
sg31
g32
sg33
g34
sg35
g36
sS'*'
g37
sg38
g39
sg40
g39
sg41
g42
sg43
g39
ssg44
Nsg45
I00
sg46
S'/home/grogan/Chaste/ode/src/common/AbstractOdeSystemInformation.hpp'
p138
sg48
I00
sba(iwrapper_utilities.class_info
CppClassInfo
p139
(dp140
g4
Nsg5
(lp141
sg7
S'AbstractPythonOdeSystemInformation'
p142
sg9
I00
sg10
I00
sg11
Nsg12
g136
sg14
I01
sg15
I01
sg16
I01
sg17
I00
sg18
Nsg19
Nsg20
Nsg21
(dp143
g23
g24
sg25
g26
sg27
g28
sg29
g30
sg31
g32
sg33
g34
sg35
g36
sS'*'
g37
sg38
g39
sg40
g39
sg41
g42
sg43
g39
ssg44
Nsg45
I00
sg46
S'/home/grogan/Chaste/projects/PyChaste/src/ode/AbstractPythonOdeSystemInformation.hpp'
p144
sg48
I00
sba(iwrapper_utilities.class_info
CppClassInfo
p145
(dp146
g4
Nsg5
(lp147
sg7
S'AbstractOdeSystem'
p148
sg9
I00
sg10
I00
sg11
Nsg12
g136
sg14
I01
sg15
I01
sg16
I01
sg17
I00
sg18
Nsg19
Nsg20
Nsg21
(dp149
g23
g24
sg25
g26
sg27
g28
sg29
g30
sg31
g32
sg33
g34
sg35
g36
sS'*'
g37
sg38
g39
sg40
g39
sg41
g42
sg43
g39
ssg44
Nsg45
I00
sg46
S'/home/grogan/Chaste/ode/src/common/AbstractOdeSystem.hpp'
p150
sg48
I00
sba(iwrapper_utilities.class_info
CppClassInfo
p151
(dp152
g4
Nsg5
(lp153
sg7
S'AbstractLinearPde'
p154
sg9
I00
sg10
I00
sg11
Nsg12
Nsg14
I01
sg15
I01
sg16
I01
sg17
I00
sg18
Nsg19
Nsg20
Nsg21
(dp155
g23
g24
sg25
g26
sg27
g28
sg29
g30
sg31
g32
sg33
g34
sg35
g36
sS'*'
g37
sg38
g39
sg40
g39
sg41
g42
sg43
g39
ssg44
Nsg45
I00
sg46
Nsg48
I00
sba(iwrapper_utilities.class_info
CppClassInfo
p156
(dp157
g4
Nsg5
(lp158
sg7
S'AbstractLinearParabolicPde'
p159
sg9
I00
sg10
I00
sg11
Nsg12
Nsg14
I01
sg15
I01
sg16
I01
sg17
I00
sg18
Nsg19
Nsg20
Nsg21
(dp160
g23
g24
sg25
g26
sg27
g28
sg29
g30
sg31
g32
sg33
g34
sg35
g36
sS'*'
g37
sg38
g39
sg40
g39
sg41
g42
sg43
g39
ssg44
Nsg45
I00
sg46
Nsg48
I00
sba(iwrapper_utilities.class_info
CppClassInfo
p161
(dp162
g4
Nsg5
(lp163
sg7
S'AbstractLinearEllipticPde'
p164
sg9
I00
sg10
I00
sg11
Nsg12
Nsg14
I01
sg15
I01
sg16
I01
sg17
I00
sg18
Nsg19
Nsg20
Nsg21
(dp165
g23
g24
sg25
g26
sg27
g28
sg29
g30
sg31
g32
sg33
g34
sg35
g36
sS'*'
g37
sg38
g39
sg40
g39
sg41
g42
sg43
g39
ssg44
Nsg45
I00
sg46
Nsg48
I00
sba(iwrapper_utilities.class_info
CppClassInfo
p166
(dp167
g4
Nsg5
(lp168
sg7
S'AbstractNonlinearEllipticPde'
p169
sg9
I00
sg10
I00
sg11
Nsg12
S'pde'
p170
sg14
I01
sg15
I01
sg16
I01
sg17
I00
sg18
Nsg19
(lp171
(lp172
I2
aa(lp173
I3
aasg20
Nsg21
(dp174
g23
g24
sg25
g26
sg27
g28
sg29
g30
sg31
g32
sg33
g34
sg35
g36
sS'*'
g37
sg38
g39
sg40
g39
sg41
g42
sg43
g39
ssg44
Nsg45
I00
sg46
S'/home/grogan/Chaste/pde/src/problem/AbstractNonlinearEllipticPde.hpp'
p175
sg48
I00
sba(iwrapper_utilities.class_info
CppClassInfo
p176
(dp177
g4
Nsg5
(lp178
sg7
S'AbstractBoundaryCondition'
p179
sg9
I00
sg10
I00
sg11
Nsg12
g170
sg14
I01
sg15
I01
sg16
I01
sg17
I00
sg18
Nsg19
g171
sg20
Nsg21
(dp180
g23
g24
sg25
g26
sg27
g28
sg29
g30
sg31
g32
sg33
g34
sg35
g36
sS'*'
g37
sg38
g39
sg40
g39
sg41
g42
sg43
g39
ssg44
Nsg45
I00
sg46
S'/home/grogan/Chaste/pde/src/common/AbstractBoundaryCondition.hpp'
p181
sg48
I00
sba(iwrapper_utilities.class_info
CppClassInfo
p182
(dp183
g4
Nsg5
(lp184
sg7
S'ConstBoundaryCondition'
p185
sg9
I00
sg10
I00
sg11
Nsg12
g170
sg14
I01
sg15
I01
sg16
I01
sg17
I00
sg18
Nsg19
g171
sg20
Nsg21
(dp186
g23
g24
sg25
g26
sg27
g28
sg29
g30
sg31
g32
sg33
g34
sg35
g36
sS'*'
g37
sg38
g39
sg40
g39
sg41
g42
sg43
g39
ssg44
Nsg45
I00
sg46
S'/home/grogan/Chaste/pde/src/common/ConstBoundaryCondition.hpp'
p187
sg48
I00
sba(iwrapper_utilities.class_info
CppClassInfo
p188
(dp189
g4
Nsg5
(lp190
sg7
S'PdeSimulationTime'
p191
sg9
I00
sg10
I00
sg11
Nsg12
g170
sg14
I01
sg15
I01
sg16
I01
sg17
I00
sg18
Nsg19
Nsg20
Nsg21
(dp192
g23
g24
sg25
g26
sg27
g28
sg29
g30
sg31
g32
sg33
g34
sg35
g36
sS'*'
g37
sg38
g39
sg40
g39
sg41
g42
sg43
g39
ssg44
Nsg45
I00
sg46
S'/home/grogan/Chaste/pde/src/common/PdeSimulationTime.hpp'
p193
sg48
I00
sba(iwrapper_utilities.class_info
CppClassInfo
p194
(dp195
g4
Nsg5
(lp196
sg7
S'ChastePoint'
p197
sg9
I00
sg10
I00
sg11
Nsg12
S'mesh'
p198
sg14
I01
sg15
I01
sg16
I01
sg17
I00
sg18
Nsg19
g171
sg20
Nsg21
(dp199
g23
g24
sg25
g26
sg27
g28
sg29
g30
sg31
g32
sg33
g34
sg35
g36
sS'*'
g37
sg38
g39
sg40
g39
sg41
g42
sg43
g39
ssg44
Nsg45
I00
sg46
S'/home/grogan/Chaste/mesh/src/common/ChastePoint.hpp'
p200
sg48
I00
sba(iwrapper_utilities.class_info
CppClassInfo
p201
(dp202
g4
Nsg5
(lp203
sg7
S'NodeAttributes'
p204
sg9
I00
sg10
I00
sg11
Nsg12
g198
sg14
I01
sg15
I01
sg16
I01
sg17
I00
sg18
Nsg19
g171
sg20
Nsg21
(dp205
g23
g24
sg25
g26
sg27
g28
sg29
g30
sg31
g32
sg33
g34
sg35
g36
sS'*'
g37
sg38
g39
sg40
g39
sg41
g42
sg43
g39
ssg44
Nsg45
I00
sg46
S'/home/grogan/Chaste/mesh/src/common/NodeAttributes.hpp'
p206
sg48
I00
sba(iwrapper_utilities.class_info
CppClassInfo
p207
(dp208
g4
Nsg5
(lp209
sg7
S'Node'
p210
sg9
I00
sg10
I00
sg11
Nsg12
g198
sg14
I01
sg15
I01
sg16
I01
sg17
I00
sg18
Nsg19
g171
sg20
Nsg21
(dp211
g23
g24
sg25
g26
sg27
g28
sg29
g30
sg31
g32
sg33
g34
sg35
g36
sS'*'
g37
sg38
g39
sg40
g39
sg41
g42
sg43
g39
ssg44
Nsg45
I00
sg46
S'/home/grogan/Chaste/mesh/src/common/Node.hpp'
p212
sg48
I00
sba(iwrapper_utilities.class_info
CppClassInfo
p213
(dp214
g4
Nsg5
(lp215
sg7
S'Element'
p216
sg9
I00
sg10
I00
sg11
Nsg12
g198
sg14
I01
sg15
I01
sg16
I01
sg17
I00
sg18
Nsg19
(lp217
(lp218
I2
aI2
aa(lp219
I3
aI3
aasg20
(lp220
S'CalculateCircumsphereVolume'
p221
asg21
(dp222
g23
g24
sg25
g26
sg27
g28
sg29
g30
sg31
g32
sg33
g34
sg35
g36
sS'*'
g37
sg38
g39
sg40
g39
sg41
g42
sg43
g39
ssg44
Nsg45
I00
sg46
S'/home/grogan/Chaste/mesh/src/common/Element.hpp'
p223
sg48
I00
sba(iwrapper_utilities.class_info
CppClassInfo
p224
(dp225
g4
Nsg5
(lp226
sg7
S'NodesOnlyMesh'
p227
sg9
I00
sg10
I00
sg11
Nsg12
g198
sg14
I01
sg15
I01
sg16
I01
sg17
I00
sg18
Nsg19
g171
sg20
Nsg21
(dp228
g23
g24
sg25
g26
sg27
g28
sg29
g30
sg31
g32
sg33
g34
sg35
g36
sS'*'
g37
sg38
g39
sg40
g39
sg41
g42
sg43
g39
ssg44
Nsg45
I00
sg46
S'/home/grogan/Chaste/mesh/src/common/NodesOnlyMesh.hpp'
p229
sg48
I00
sba(iwrapper_utilities.class_info
CppClassInfo
p230
(dp231
g4
Nsg5
(lp232
sg7
S'MutableMesh'
p233
sg9
I00
sg10
I00
sg11
Nsg12
g198
sg14
I01
sg15
I01
sg16
I01
sg17
I00
sg18
Nsg19
g217
sg20
(lp234
S'SplitLongEdges'
p235
aS'RescaleMeshFromBoundaryNode'
p236
asg21
(dp237
g23
g24
sg25
g26
sg27
g28
sg29
g30
sg31
g32
sg33
g34
sg35
g36
sS'*'
g37
sg38
g39
sg40
g39
sg41
g42
sg43
g39
ssg44
Nsg45
I00
sg46
S'/home/grogan/Chaste/mesh/src/common/MutableMesh.hpp'
p238
sg48
I00
sba(iwrapper_utilities.class_info
CppClassInfo
p239
(dp240
g4
Nsg5
(lp241
sg7
S'PottsMesh'
p242
sg9
I00
sg10
I00
sg11
Nsg12
S'cell_based'
p243
sg14
I01
sg15
I01
sg16
I01
sg17
I00
sg18
Nsg19
g171
sg20
Nsg21
(dp244
g23
g24
sg25
g26
sg27
g28
sg29
g30
sg31
g32
sg33
g34
sg35
g36
sS'*'
g37
sg38
g39
sg40
g39
sg41
g42
sg43
g39
ssg44
Nsg45
I00
sg46
S'/home/grogan/Chaste/cell_based/src/mesh/PottsMesh.hpp'
p245
sg48
I00
sba(iwrapper_utilities.class_info
CppClassInfo
p246
(dp247
g4
Nsg5
(lp248
sg7
S'SharedPottsMeshGenerator'
p249
sg9
I00
sg10
I00
sg11
Nsg12
g198
sg14
I01
sg15
I01
sg16
I01
sg17
I00
sg18
Nsg19
g171
sg20
Nsg21
(dp250
g23
g24
sg25
g26
sg27
g28
sg29
g30
sg31
g32
sg33
g34
sg35
g36
sS'*'
g37
sg38
g39
sg40
g39
sg41
g42
sg43
g39
ssg44
S'PottsMeshGenerator'
p251
sg45
I00
sg46
S'/home/grogan/Chaste/projects/PyChaste/src/mesh/SharedPottsMeshGenerator.hpp'
p252
sg48
I00
sba(iwrapper_utilities.class_info
CppClassInfo
p253
(dp254
g4
Nsg5
(lp255
sg7
S'PottsElement'
p256
sg9
I00
sg10
I00
sg11
Nsg12
g243
sg14
I01
sg15
I01
sg16
I01
sg17
I00
sg18
Nsg19
g171
sg20
Nsg21
(dp257
g23
g24
sg25
g26
sg27
g28
sg29
g30
sg31
g32
sg33
g34
sg35
g36
sS'*'
g37
sg38
g39
sg40
g39
sg41
g42
sg43
g39
ssg44
Nsg45
I00
sg46
S'/home/grogan/Chaste/cell_based/src/mesh/PottsElement.hpp'
p258
sg48
I00
sba(iwrapper_utilities.class_info
CppClassInfo
p259
(dp260
g4
Nsg5
(lp261
sg7
S'TetrahedralMesh'
p262
sg9
I00
sg10
I00
sg11
Nsg12
g198
sg14
I01
sg15
I01
sg16
I01
sg17
I00
sg18
Nsg19
g217
sg20
(lp263
S'FreeTriangulateIo'
p264
aS'InitialiseTriangulateIo'
p265
asg21
(dp266
g23
g24
sg25
g26
sg27
g28
sg29
g30
sg31
g32
sg33
g34
sg35
g36
sS'*'
g37
sg38
g39
sg40
g39
sg41
g42
sg43
g39
ssg44
Nsg45
I00
sg46
S'/home/grogan/Chaste/mesh/src/common/TetrahedralMesh.hpp'
p267
sg48
I00
sba(iwrapper_utilities.class_info
CppClassInfo
p268
(dp269
g4
Nsg5
(lp270
sg7
S'AbstractTetrahedralMesh'
p271
sg9
I00
sg10
I00
sg11
Nsg12
g198
sg14
I01
sg15
I01
sg16
I01
sg17
I00
sg18
Nsg19
g217
sg20
Nsg21
(dp272
g23
g24
sg25
g26
sg27
g28
sg29
g30
sg31
g32
sg33
g34
sg35
g36
sS'*'
g37
sg38
g39
sg40
g39
sg41
g42
sg43
g39
ssg44
Nsg45
I00
sg46
S'/home/grogan/Chaste/mesh/src/common/AbstractTetrahedralMesh.hpp'
p273
sg48
I00
sba(iwrapper_utilities.class_info
CppClassInfo
p274
(dp275
g4
Nsg5
(lp276
sg7
S'AbstractMesh'
p277
sg9
I00
sg10
I00
sg11
Nsg12
g198
sg14
I01
sg15
I01
sg16
I01
sg17
I00
sg18
Nsg19
g217
sg20
Nsg21
(dp278
g23
g24
sg25
g26
sg27
g28
sg29
g30
sg31
g32
sg33
g34
sg35
g36
sS'*'
g37
sg38
g39
sg40
g39
sg41
g42
sg43
g39
ssg44
Nsg45
I00
sg46
S'/home/grogan/Chaste/mesh/src/common/AbstractMesh.hpp'
p279
sg48
I00
sba(iwrapper_utilities.class_info
CppClassInfo
p280
(dp281
g4
Nsg5
(lp282
S'TetrahedralMesh<3, 3>'
p283
aS'TetrahedralMesh<2, 2>'
p284
asg7
S'VertexMesh'
p285
sg9
I00
sg10
I00
sg11
Nsg12
g198
sg14
I01
sg15
I01
sg16
I01
sg17
I00
sg18
Nsg19
g217
sg20
(lp286
S'GetFace'
p287
asg21
(dp288
g23
g24
sg25
g26
sg27
g28
sg29
g30
sg31
g32
sg33
g34
sg35
g36
sS'*'
g37
sg38
g39
sg40
g39
sg41
g42
sg43
g39
ssg44
Nsg45
I00
sg46
S'/home/grogan/Chaste/mesh/src/vertex/VertexMesh.hpp'
p289
sg48
I00
sba(iwrapper_utilities.class_info
CppClassInfo
p290
(dp291
g4
Nsg5
(lp292
sg7
S'MutableVertexMesh'
p293
sg9
I00
sg10
I00
sg11
Nsg12
g198
sg14
I01
sg15
I01
sg16
I01
sg17
I00
sg18
Nsg19
g217
sg20
Nsg21
(dp294
g23
g24
sg25
g26
sg27
g28
sg29
g30
sg31
g32
sg33
g34
sg35
g36
sS'*'
g37
sg38
g39
sg40
g39
sg41
g42
sg43
g39
ssg44
Nsg45
I00
sg46
S'/home/grogan/Chaste/mesh/src/vertex/MutableVertexMesh.hpp'
p295
sg48
I00
sba(iwrapper_utilities.class_info
CppClassInfo
p296
(dp297
g4
Nsg5
(lp298
sg7
S'Cylindrical2dVertexMesh'
p299
sg9
I00
sg10
I00
sg11
Nsg12
g198
sg14
I01
sg15
I01
sg16
I01
sg17
I00
sg18
Nsg19
Nsg20
Nsg21
(dp300
g23
g24
sg25
g26
sg27
g28
sg29
g30
sg31
g32
sg33
g34
sg35
g36
sS'*'
g37
sg38
g39
sg40
g39
sg41
g42
sg43
g39
ssg44
Nsg45
I00
sg46
S'/home/grogan/Chaste/mesh/src/vertex/Cylindrical2dVertexMesh.hpp'
p301
sg48
I00
sba(iwrapper_utilities.class_info
CppClassInfo
p302
(dp303
g4
Nsg5
(lp304
sg7
S'SharedHoneycombMeshGenerator'
p305
sg9
I00
sg10
I00
sg11
Nsg12
g198
sg14
I01
sg15
I01
sg16
I01
sg17
I00
sg18
Nsg19
Nsg20
Nsg21
(dp306
g23
g24
sg25
g26
sg27
g28
sg29
g30
sg31
g32
sg33
g34
sg35
g36
sS'*'
g37
sg38
g39
sg40
g39
sg41
g42
sg43
g39
ssg44
S'HoneycombMeshGenerator'
p307
sg45
I00
sg46
S'/home/grogan/Chaste/projects/PyChaste/src/mesh/SharedHoneycombMeshGenerator.hpp'
p308
sg48
I00
sba(iwrapper_utilities.class_info
CppClassInfo
p309
(dp310
g4
Nsg5
(lp311
sg7
S'SharedHoneycombVertexMeshGenerator'
p312
sg9
I00
sg10
I00
sg11
Nsg12
g198
sg14
I01
sg15
I01
sg16
I01
sg17
I00
sg18
Nsg19
Nsg20
Nsg21
(dp313
g23
g24
sg25
g26
sg27
g28
sg29
g30
sg31
g32
sg33
g34
sg35
g36
sS'*'
g37
sg38
g39
sg40
g39
sg41
g42
sg43
g39
ssg44
S'HoneycombVertexMeshGenerator'
p314
sg45
I00
sg46
S'/home/grogan/Chaste/projects/PyChaste/src/mesh/SharedHoneycombVertexMeshGenerator.hpp'
p315
sg48
I00
sba(iwrapper_utilities.class_info
CppClassInfo
p316
(dp317
g4
Nsg5
(lp318
sg7
S'SharedCylindricalHoneycombVertexMeshGenerator'
p319
sg9
I00
sg10
I00
sg11
Nsg12
g198
sg14
I01
sg15
I01
sg16
I01
sg17
I00
sg18
Nsg19
Nsg20
Nsg21
(dp320
g23
g24
sg25
g26
sg27
g28
sg29
g30
sg31
g32
sg33
g34
sg35
g36
sS'*'
g37
sg38
g39
sg40
g39
sg41
g42
sg43
g39
ssg44
S'CylindricalHoneycombVertexMeshGenerator'
p321
sg45
I00
sg46
S'/home/grogan/Chaste/projects/PyChaste/src/mesh/SharedCylindricalHoneycombVertexMeshGenerator.hpp'
p322
sg48
I00
sba(iwrapper_utilities.class_info
CppClassInfo
p323
(dp324
g4
Nsg5
(lp325
sg7
S'AbstractCellCycleModel'
p326
sg9
I00
sg10
I00
sg11
Nsg12
g243
sg14
I01
sg15
I01
sg16
I01
sg17
I00
sg18
Nsg19
Nsg20
Nsg21
(dp327
g23
g24
sg25
g26
sg27
g28
sg29
g30
sg31
g32
sg33
g34
sg35
g36
sS'*'
g37
sg38
g39
sg40
g39
sg41
g42
sg43
g39
ssg44
Nsg45
I00
sg46
S'/home/grogan/Chaste/cell_based/src/cell/cycle/AbstractCellCycleModel.hpp'
p328
sg48
I00
sba(iwrapper_utilities.class_info
CppClassInfo
p329
(dp330
g4
Nsg5
(lp331
sg7
S'AbstractPhaseBasedCellCycleModel'
p332
sg9
I00
sg10
I00
sg11
Nsg12
g243
sg14
I01
sg15
I01
sg16
I01
sg17
I00
sg18
Nsg19
Nsg20
Nsg21
(dp333
g23
g24
sg25
g26
sg27
g28
sg29
g30
sg31
g32
sg33
g34
sg35
g36
sS'*'
g37
sg38
g39
sg40
g39
sg41
g42
sg43
g39
ssg44
Nsg45
I00
sg46
S'/home/grogan/Chaste/cell_based/src/cell/cycle/AbstractPhaseBasedCellCycleModel.hpp'
p334
sg48
I00
sba(iwrapper_utilities.class_info
CppClassInfo
p335
(dp336
g4
Nsg5
(lp337
sg7
S'AbstractSimpleCellCycleModel'
p338
sg9
I00
sg10
I00
sg11
Nsg12
g243
sg14
I01
sg15
I01
sg16
I01
sg17
I00
sg18
Nsg19
Nsg20
Nsg21
(dp339
g23
g24
sg25
g26
sg27
g28
sg29
g30
sg31
g32
sg33
g34
sg35
g36
sS'*'
g37
sg38
g39
sg40
g39
sg41
g42
sg43
g39
ssg44
Nsg45
I00
sg46
S'/home/grogan/Chaste/cell_based/src/cell/cycle/AbstractSimpleCellCycleModel.hpp'
p340
sg48
I00
sba(iwrapper_utilities.class_info
CppClassInfo
p341
(dp342
g4
Nsg5
(lp343
sg7
S'AbstractSimplePhaseBasedCellCycleModel'
p344
sg9
I00
sg10
I00
sg11
Nsg12
g243
sg14
I01
sg15
I01
sg16
I01
sg17
I00
sg18
Nsg19
Nsg20
Nsg21
(dp345
g23
g24
sg25
g26
sg27
g28
sg29
g30
sg31
g32
sg33
g34
sg35
g36
sS'*'
g37
sg38
g39
sg40
g39
sg41
g42
sg43
g39
ssg44
Nsg45
I00
sg46
S'/home/grogan/Chaste/cell_based/src/cell/cycle/AbstractSimplePhaseBasedCellCycleModel.hpp'
p346
sg48
I00
sba(iwrapper_utilities.class_info
CppClassInfo
p347
(dp348
g4
Nsg5
(lp349
sg7
S'AbstractSimpleGenerationalCellCycleModel'
p350
sg9
I00
sg10
I00
sg11
Nsg12
g243
sg14
I01
sg15
I01
sg16
I01
sg17
I00
sg18
Nsg19
Nsg20
Nsg21
(dp351
g23
g24
sg25
g26
sg27
g28
sg29
g30
sg31
g32
sg33
g34
sg35
g36
sS'*'
g37
sg38
g39
sg40
g39
sg41
g42
sg43
g39
ssg44
Nsg45
I00
sg46
S'/home/grogan/Chaste/cell_based/src/cell/cycle/AbstractSimpleGenerationalCellCycleModel.hpp'
p352
sg48
I00
sba(iwrapper_utilities.class_info
CppClassInfo
p353
(dp354
g4
Nsg5
(lp355
sg7
S'UniformCellCycleModel'
p356
sg9
I00
sg10
I00
sg11
Nsg12
g243
sg14
I01
sg15
I01
sg16
I01
sg17
I00
sg18
Nsg19
Nsg20
Nsg21
(dp357
g23
g24
sg25
g26
sg27
g28
sg29
g30
sg31
g32
sg33
g34
sg35
g36
sS'*'
g37
sg38
g39
sg40
g39
sg41
g42
sg43
g39
ssg44
Nsg45
I00
sg46
S'/home/grogan/Chaste/cell_based/src/cell/cycle/UniformCellCycleModel.hpp'
p358
sg48
I00
sba(iwrapper_utilities.class_info
CppClassInfo
p359
(dp360
g4
Nsg5
(lp361
sg7
S'SimpleOxygenBasedCellCycleModel'
p362
sg9
I00
sg10
I00
sg11
Nsg12
g243
sg14
I01
sg15
I01
sg16
I01
sg17
I00
sg18
Nsg19
Nsg20
Nsg21
(dp363
g23
g24
sg25
g26
sg27
g28
sg29
g30
sg31
g32
sg33
g34
sg35
g36
sS'*'
g37
sg38
g39
sg40
g39
sg41
g42
sg43
g39
ssg44
Nsg45
I00
sg46
S'/home/grogan/Chaste/cell_based/src/cell/cycle/SimpleOxygenBasedCellCycleModel.hpp'
p364
sg48
I00
sba(iwrapper_utilities.class_info
CppClassInfo
p365
(dp366
g4
Nsg5
(lp367
sg7
S'UniformG1GenerationalCellCycleModel'
p368
sg9
I00
sg10
I00
sg11
Nsg12
g243
sg14
I01
sg15
I01
sg16
I01
sg17
I00
sg18
Nsg19
Nsg20
Nsg21
(dp369
g23
g24
sg25
g26
sg27
g28
sg29
g30
sg31
g32
sg33
g34
sg35
g36
sS'*'
g37
sg38
g39
sg40
g39
sg41
g42
sg43
g39
ssg44
Nsg45
I00
sg46
S'/home/grogan/Chaste/cell_based/src/cell/cycle/UniformG1GenerationalCellCycleModel.hpp'
p370
sg48
I00
sba(iwrapper_utilities.class_info
CppClassInfo
p371
(dp372
g4
Nsg5
(lp373
sg7
S'NoCellCycleModel'
p374
sg9
I00
sg10
I00
sg11
Nsg12
g243
sg14
I01
sg15
I01
sg16
I01
sg17
I00
sg18
Nsg19
Nsg20
Nsg21
(dp375
g23
g24
sg25
g26
sg27
g28
sg29
g30
sg31
g32
sg33
g34
sg35
g36
sS'*'
g37
sg38
g39
sg40
g39
sg41
g42
sg43
g39
ssg44
Nsg45
I00
sg46
S'/home/grogan/Chaste/cell_based/src/cell/cycle/NoCellCycleModel.hpp'
p376
sg48
I00
sba(iwrapper_utilities.class_info
CppClassInfo
p377
(dp378
g4
Nsg5
(lp379
sg7
S'AbstractCellProperty'
p380
sg9
I00
sg10
I00
sg11
Nsg12
Nsg14
I01
sg15
I01
sg16
I01
sg17
I00
sg18
Nsg19
Nsg20
(lp381
S'IsType'
p382
asg21
(dp383
g23
g24
sg25
g26
sg27
g28
sg29
g30
sg31
g32
sg33
g34
sg35
g36
sS'*'
g37
sg38
g39
sg40
g39
sg41
g42
sg43
g39
ssg44
Nsg45
I00
sg46
Nsg48
I00
sba(iwrapper_utilities.class_info
CppClassInfo
p384
(dp385
g4
Nsg5
(lp386
sg7
g380
sg9
I00
sg10
I00
sg11
Nsg12
g243
sg14
I01
sg15
I01
sg16
I01
sg17
I00
sg18
Nsg19
Nsg20
(lp387
g382
asg21
(dp388
g23
g24
sg25
g26
sg27
g28
sg29
g30
sg31
g32
sg33
g34
sg35
g36
sS'*'
g37
sg38
g39
sg40
g39
sg41
g42
sg43
g39
ssg44
Nsg45
I00
sg46
S'/home/grogan/Chaste/cell_based/src/cell/properties/AbstractCellProperty.hpp'
p389
sg48
I00
sba(iwrapper_utilities.class_info
CppClassInfo
p390
(dp391
g4
Nsg5
(lp392
sg7
S'CellPropertyCollection'
p393
sg9
I00
sg10
I00
sg11
Nsg12
g243
sg14
I01
sg15
I01
sg16
I01
sg17
I00
sg18
Nsg19
Nsg20
(lp394
S'GetCellPropertyRegistry'
p395
asg21
(dp396
g23
g24
sg25
g26
sg27
g28
sg29
g30
sg31
g32
sg33
g34
sg35
g36
sS'*'
g37
sg38
g39
sg40
g39
sg41
g42
sg43
g39
ssg44
Nsg45
I00
sg46
S'/home/grogan/Chaste/cell_based/src/cell/properties/CellPropertyCollection.hpp'
p397
sg48
I00
sba(iwrapper_utilities.class_info
CppClassInfo
p398
(dp399
g4
Nsg5
(lp400
sg7
S'AbstractCellProliferativeType'
p401
sg9
I00
sg10
I00
sg11
Nsg12
g243
sg14
I01
sg15
I01
sg16
I01
sg17
I00
sg18
Nsg19
Nsg20
Nsg21
(dp402
g23
g24
sg25
g26
sg27
g28
sg29
g30
sg31
g32
sg33
g34
sg35
g36
sS'*'
g37
sg38
g39
sg40
g39
sg41
g42
sg43
g39
ssg44
Nsg45
I00
sg46
S'/home/grogan/Chaste/cell_based/src/cell/properties/proliferative_types/AbstractCellProliferativeType.hpp'
p403
sg48
I00
sba(iwrapper_utilities.class_info
CppClassInfo
p404
(dp405
g4
Nsg5
(lp406
sg7
S'StemCellProliferativeType'
p407
sg9
I00
sg10
I00
sg11
Nsg12
g243
sg14
I01
sg15
I01
sg16
I01
sg17
I00
sg18
Nsg19
Nsg20
Nsg21
(dp408
g23
g24
sg25
g26
sg27
g28
sg29
g30
sg31
g32
sg33
g34
sg35
g36
sS'*'
g37
sg38
g39
sg40
g39
sg41
g42
sg43
g39
ssg44
Nsg45
I00
sg46
S'/home/grogan/Chaste/cell_based/src/cell/properties/proliferative_types/StemCellProliferativeType.hpp'
p409
sg48
I00
sba(iwrapper_utilities.class_info
CppClassInfo
p410
(dp411
g4
Nsg5
(lp412
sg7
S'DefaultCellProliferativeType'
p413
sg9
I00
sg10
I00
sg11
Nsg12
g243
sg14
I01
sg15
I01
sg16
I01
sg17
I00
sg18
Nsg19
Nsg20
Nsg21
(dp414
g23
g24
sg25
g26
sg27
g28
sg29
g30
sg31
g32
sg33
g34
sg35
g36
sS'*'
g37
sg38
g39
sg40
g39
sg41
g42
sg43
g39
ssg44
Nsg45
I00
sg46
S'/home/grogan/Chaste/cell_based/src/cell/properties/proliferative_types/DefaultCellProliferativeType.hpp'
p415
sg48
I00
sba(iwrapper_utilities.class_info
CppClassInfo
p416
(dp417
g4
Nsg5
(lp418
sg7
S'TransitCellProliferativeType'
p419
sg9
I00
sg10
I00
sg11
Nsg12
g243
sg14
I01
sg15
I01
sg16
I01
sg17
I00
sg18
Nsg19
Nsg20
Nsg21
(dp420
g23
g24
sg25
g26
sg27
g28
sg29
g30
sg31
g32
sg33
g34
sg35
g36
sS'*'
g37
sg38
g39
sg40
g39
sg41
g42
sg43
g39
ssg44
Nsg45
I00
sg46
S'/home/grogan/Chaste/cell_based/src/cell/properties/proliferative_types/TransitCellProliferativeType.hpp'
p421
sg48
I00
sba(iwrapper_utilities.class_info
CppClassInfo
p422
(dp423
g4
Nsg5
(lp424
sg7
S'DifferentiatedCellProliferativeType'
p425
sg9
I00
sg10
I00
sg11
Nsg12
g243
sg14
I01
sg15
I01
sg16
I01
sg17
I00
sg18
Nsg19
Nsg20
Nsg21
(dp426
g23
g24
sg25
g26
sg27
g28
sg29
g30
sg31
g32
sg33
g34
sg35
g36
sS'*'
g37
sg38
g39
sg40
g39
sg41
g42
sg43
g39
ssg44
Nsg45
I00
sg46
S'/home/grogan/Chaste/cell_based/src/cell/properties/proliferative_types/DifferentiatedCellProliferativeType.hpp'
p427
sg48
I00
sba(iwrapper_utilities.class_info
CppClassInfo
p428
(dp429
g4
Nsg5
(lp430
sg7
S'AbstractCellMutationState'
p431
sg9
I00
sg10
I00
sg11
Nsg12
g243
sg14
I01
sg15
I01
sg16
I01
sg17
I00
sg18
Nsg19
Nsg20
Nsg21
(dp432
g23
g24
sg25
g26
sg27
g28
sg29
g30
sg31
g32
sg33
g34
sg35
g36
sS'*'
g37
sg38
g39
sg40
g39
sg41
g42
sg43
g39
ssg44
Nsg45
I00
sg46
S'/home/grogan/Chaste/cell_based/src/cell/properties/mutations/AbstractCellMutationState.hpp'
p433
sg48
I00
sba(iwrapper_utilities.class_info
CppClassInfo
p434
(dp435
g4
Nsg5
(lp436
sg7
S'ApcOneHitCellMutationState'
p437
sg9
I00
sg10
I00
sg11
Nsg12
g243
sg14
I01
sg15
I01
sg16
I01
sg17
I00
sg18
Nsg19
Nsg20
Nsg21
(dp438
g23
g24
sg25
g26
sg27
g28
sg29
g30
sg31
g32
sg33
g34
sg35
g36
sS'*'
g37
sg38
g39
sg40
g39
sg41
g42
sg43
g39
ssg44
Nsg45
I00
sg46
S'/home/grogan/Chaste/cell_based/src/cell/properties/mutations/ApcOneHitCellMutationState.hpp'
p439
sg48
I00
sba(iwrapper_utilities.class_info
CppClassInfo
p440
(dp441
g4
Nsg5
(lp442
sg7
S'ApcTwoHitCellMutationState'
p443
sg9
I00
sg10
I00
sg11
Nsg12
g243
sg14
I01
sg15
I01
sg16
I01
sg17
I00
sg18
Nsg19
Nsg20
Nsg21
(dp444
g23
g24
sg25
g26
sg27
g28
sg29
g30
sg31
g32
sg33
g34
sg35
g36
sS'*'
g37
sg38
g39
sg40
g39
sg41
g42
sg43
g39
ssg44
Nsg45
I00
sg46
S'/home/grogan/Chaste/cell_based/src/cell/properties/mutations/ApcTwoHitCellMutationState.hpp'
p445
sg48
I00
sba(iwrapper_utilities.class_info
CppClassInfo
p446
(dp447
g4
Nsg5
(lp448
sg7
S'BetaCateninOneHitCellMutationState'
p449
sg9
I00
sg10
I00
sg11
Nsg12
g243
sg14
I01
sg15
I01
sg16
I01
sg17
I00
sg18
Nsg19
Nsg20
Nsg21
(dp450
g23
g24
sg25
g26
sg27
g28
sg29
g30
sg31
g32
sg33
g34
sg35
g36
sS'*'
g37
sg38
g39
sg40
g39
sg41
g42
sg43
g39
ssg44
Nsg45
I00
sg46
S'/home/grogan/Chaste/cell_based/src/cell/properties/mutations/BetaCateninOneHitCellMutationState.hpp'
p451
sg48
I00
sba(iwrapper_utilities.class_info
CppClassInfo
p452
(dp453
g4
Nsg5
(lp454
sg7
S'WildTypeCellMutationState'
p455
sg9
I00
sg10
I00
sg11
Nsg12
g243
sg14
I01
sg15
I01
sg16
I01
sg17
I00
sg18
Nsg19
Nsg20
Nsg21
(dp456
g23
g24
sg25
g26
sg27
g28
sg29
g30
sg31
g32
sg33
g34
sg35
g36
sS'*'
g37
sg38
g39
sg40
g39
sg41
g42
sg43
g39
ssg44
Nsg45
I00
sg46
S'/home/grogan/Chaste/cell_based/src/cell/properties/mutations/WildTypeCellMutationState.hpp'
p457
sg48
I00
sba(iwrapper_utilities.class_info
CppClassInfo
p458
(dp459
g4
Nsg5
(lp460
sg7
S'ApoptoticCellProperty'
p461
sg9
I00
sg10
I00
sg11
Nsg12
g243
sg14
I01
sg15
I01
sg16
I01
sg17
I00
sg18
Nsg19
Nsg20
Nsg21
(dp462
g23
g24
sg25
g26
sg27
g28
sg29
g30
sg31
g32
sg33
g34
sg35
g36
sS'*'
g37
sg38
g39
sg40
g39
sg41
g42
sg43
g39
ssg44
Nsg45
I00
sg46
S'/home/grogan/Chaste/cell_based/src/cell/properties/ApoptoticCellProperty.hpp'
p463
sg48
I00
sba(iwrapper_utilities.class_info
CppClassInfo
p464
(dp465
g4
Nsg5
(lp466
sg7
S'CellData'
p467
sg9
I00
sg10
I00
sg11
Nsg12
g243
sg14
I01
sg15
I01
sg16
I01
sg17
I00
sg18
Nsg19
Nsg20
Nsg21
(dp468
g23
g24
sg25
g26
sg27
g28
sg29
g30
sg31
g32
sg33
g34
sg35
g36
sS'*'
g37
sg38
g39
sg40
g39
sg41
g42
sg43
g39
ssg44
Nsg45
I00
sg46
S'/home/grogan/Chaste/cell_based/src/cell/properties/CellData.hpp'
p469
sg48
I00
sba(iwrapper_utilities.class_info
CppClassInfo
p470
(dp471
g4
Nsg5
(lp472
sg7
S'CellLabel'
p473
sg9
I00
sg10
I00
sg11
Nsg12
g243
sg14
I01
sg15
I01
sg16
I01
sg17
I00
sg18
Nsg19
Nsg20
Nsg21
(dp474
g23
g24
sg25
g26
sg27
g28
sg29
g30
sg31
g32
sg33
g34
sg35
g36
sS'*'
g37
sg38
g39
sg40
g39
sg41
g42
sg43
g39
ssg44
Nsg45
I00
sg46
S'/home/grogan/Chaste/cell_based/src/cell/properties/CellLabel.hpp'
p475
sg48
I00
sba(iwrapper_utilities.class_info
CppClassInfo
p476
(dp477
g4
Nsg5
(lp478
sg7
S'CellAncestor'
p479
sg9
I00
sg10
I00
sg11
Nsg12
g243
sg14
I01
sg15
I01
sg16
I01
sg17
I00
sg18
Nsg19
Nsg20
Nsg21
(dp480
g23
g24
sg25
g26
sg27
g28
sg29
g30
sg31
g32
sg33
g34
sg35
g36
sS'*'
g37
sg38
g39
sg40
g39
sg41
g42
sg43
g39
ssg44
Nsg45
I00
sg46
S'/home/grogan/Chaste/cell_based/src/cell/properties/CellAncestor.hpp'
p481
sg48
I00
sba(iwrapper_utilities.class_info
CppClassInfo
p482
(dp483
g4
Nsg5
(lp484
sg7
S'CellId'
p485
sg9
I00
sg10
I00
sg11
Nsg12
g243
sg14
I01
sg15
I01
sg16
I01
sg17
I00
sg18
Nsg19
Nsg20
Nsg21
(dp486
g23
g24
sg25
g26
sg27
g28
sg29
g30
sg31
g32
sg33
g34
sg35
g36
sS'*'
g37
sg38
g39
sg40
g39
sg41
g42
sg43
g39
ssg44
Nsg45
I00
sg46
S'/home/grogan/Chaste/cell_based/src/cell/properties/CellId.hpp'
p487
sg48
I00
sba(iwrapper_utilities.class_info
CppClassInfo
p488
(dp489
g4
Nsg5
(lp490
sg7
S'CellPropertyRegistry'
p491
sg9
I00
sg10
I00
sg11
Nsg12
g243
sg14
I01
sg15
I01
sg16
I01
sg17
I00
sg18
Nsg19
Nsg20
(lp492
S'rGetAllCellProperties'
p493
aS'TakeOwnership'
p494
aS'Get'
p495
asg21
(dp496
g23
g24
sg25
g26
sg27
g28
sg29
g30
sg31
g32
sg33
g34
sg35
g36
sS'*'
g37
sg38
g39
sg40
g39
sg41
g42
sg43
g39
ssg44
Nsg45
I00
sg46
S'/home/grogan/Chaste/cell_based/src/cell/properties/CellPropertyRegistry.hpp'
p497
sg48
I00
sba(iwrapper_utilities.class_info
CppClassInfo
p498
(dp499
g4
Nsg5
(lp500
sg7
S'AbstractSrnModel'
p501
sg9
I00
sg10
I00
sg11
Nsg12
g243
sg14
I01
sg15
I01
sg16
I01
sg17
I00
sg18
Nsg19
Nsg20
Nsg21
(dp502
g23
g24
sg25
g26
sg27
g28
sg29
g30
sg31
g32
sg33
g34
sg35
g36
sS'*'
g37
sg38
g39
sg40
g39
sg41
g42
sg43
g39
ssg44
Nsg45
I00
sg46
S'/home/grogan/Chaste/cell_based/src/cell/srn/AbstractSrnModel.hpp'
p503
sg48
I00
sba(iwrapper_utilities.class_info
CppClassInfo
p504
(dp505
g4
(lp506
(lp507
S'CreateSrnModel'
p508
aS'reference_existing_object'
p509
aasg5
(lp510
sg7
S'NullSrnModel'
p511
sg9
I00
sg10
I00
sg11
Nsg12
g243
sg14
I01
sg15
I01
sg16
I01
sg17
I00
sg18
Nsg19
Nsg20
Nsg21
(dp512
g23
g24
sg25
g26
sg27
g28
sg29
g30
sg31
g32
sg33
g34
sg35
g36
sS'*'
g37
sg38
g39
sg40
g39
sg41
g42
sg43
g39
ssg44
Nsg45
I00
sg46
S'/home/grogan/Chaste/cell_based/src/cell/srn/NullSrnModel.hpp'
p513
sg48
I00
sba(iwrapper_utilities.class_info
CppClassInfo
p514
(dp515
g4
Nsg5
(lp516
sg7
S'Cell'
p517
sg9
I00
sg10
I00
sg11
Nsg12
g243
sg14
I01
sg15
I01
sg16
I01
sg17
I00
sg18
Nsg19
Nsg20
(lp518
S'rGetCellPropertyCollection'
p519
aS'GetSrnModel'
p520
asg21
(dp521
g23
g24
sg25
g26
sg27
g28
sg29
g30
sg31
g32
sg33
g34
sg35
g36
sS'*'
g37
sg38
g39
sg40
g39
sg41
g42
sg43
g39
ssg44
Nsg45
I00
sg46
S'/home/grogan/Chaste/cell_based/src/cell/Cell.hpp'
p522
sg48
I00
sba(iwrapper_utilities.class_info
CppClassInfo
p523
(dp524
g4
Nsg5
(lp525
sg7
S'CellsGenerator'
p526
sg9
I00
sg10
I00
sg11
Nsg12
g243
sg14
I01
sg15
I01
sg16
I01
sg17
I00
sg18
Nsg19
(lp527
(lp528
g356
aI2
aa(lp529
g356
aI3
aa(lp530
g362
aI2
aa(lp531
g362
aI3
aa(lp532
g368
aI2
aa(lp533
g368
aI3
aa(lp534
g374
aI2
aa(lp535
g374
aI3
aasg20
Nsg21
(dp536
g23
g24
sg25
g26
sg27
g28
sg29
g30
sg31
g32
sg33
g34
sg35
g36
sS'*'
g37
sg38
g39
sg40
g39
sg41
g42
sg43
g39
ssg44
Nsg45
I00
sg46
S'/home/grogan/Chaste/cell_based/src/cell/CellsGenerator.hpp'
p537
sg48
I00
sba(iwrapper_utilities.class_info
CppClassInfo
p538
(dp539
g4
Nsg5
(lp540
sg7
g154
sg9
I00
sg10
I00
sg11
Nsg12
g243
sg14
I00
sg15
I00
sg16
I01
sg17
I00
sg18
Nsg19
g217
sg20
Nsg21
(dp541
g23
g24
sg25
g26
sg27
g28
sg29
g30
sg31
g32
sg33
g34
sg35
g36
sS'*'
g37
sg38
g39
sg40
g39
sg41
g42
sg43
g39
ssg44
Nsg45
I00
sg46
S'/home/grogan/Chaste/pde/src/problem/AbstractLinearPde.hpp'
p542
sg48
I00
sba(iwrapper_utilities.class_info
CppClassInfo
p543
(dp544
g4
Nsg5
(lp545
sg7
g159
sg9
I00
sg10
I00
sg11
Nsg12
g243
sg14
I00
sg15
I00
sg16
I01
sg17
I00
sg18
Nsg19
g217
sg20
Nsg21
(dp546
g23
g24
sg25
g26
sg27
g28
sg29
g30
sg31
g32
sg33
g34
sg35
g36
sS'*'
g37
sg38
g39
sg40
g39
sg41
g42
sg43
g39
ssg44
Nsg45
I00
sg46
S'/home/grogan/Chaste/pde/src/problem/AbstractLinearParabolicPde.hpp'
p547
sg48
I00
sba(iwrapper_utilities.class_info
CppClassInfo
p548
(dp549
g4
Nsg5
(lp550
sg7
g164
sg9
I00
sg10
I00
sg11
Nsg12
g243
sg14
I00
sg15
I00
sg16
I01
sg17
I00
sg18
Nsg19
g217
sg20
Nsg21
(dp551
g23
g24
sg25
g26
sg27
g28
sg29
g30
sg31
g32
sg33
g34
sg35
g36
sS'*'
g37
sg38
g39
sg40
g39
sg41
g42
sg43
g39
ssg44
Nsg45
I00
sg46
S'/home/grogan/Chaste/pde/src/problem/AbstractLinearEllipticPde.hpp'
p552
sg48
I00
sba(iwrapper_utilities.class_info
CppClassInfo
p553
(dp554
g4
Nsg5
(lp555
sg7
S'CellwiseSourceEllipticPde'
p556
sg9
I00
sg10
I00
sg11
Nsg12
g243
sg14
I01
sg15
I01
sg16
I01
sg17
I00
sg18
Nsg19
g171
sg20
Nsg21
(dp557
g23
g24
sg25
g26
sg27
g28
sg29
g30
sg31
g32
sg33
g34
sg35
g36
sS'*'
g37
sg38
g39
sg40
g39
sg41
g42
sg43
g39
ssg44
Nsg45
I00
sg46
S'/home/grogan/Chaste/cell_based/src/cell_based_pde/pdes/CellwiseSourceEllipticPde.hpp'
p558
sg48
I00
sba(iwrapper_utilities.class_info
CppClassInfo
p559
(dp560
g4
Nsg5
(lp561
sg7
S'AveragedSourceEllipticPde'
p562
sg9
I00
sg10
I00
sg11
Nsg12
g243
sg14
I01
sg15
I01
sg16
I01
sg17
I00
sg18
Nsg19
g171
sg20
Nsg21
(dp563
g23
g24
sg25
g26
sg27
g28
sg29
g30
sg31
g32
sg33
g34
sg35
g36
sS'*'
g37
sg38
g39
sg40
g39
sg41
g42
sg43
g39
ssg44
Nsg45
I00
sg46
S'/home/grogan/Chaste/cell_based/src/cell_based_pde/pdes/AveragedSourceEllipticPde.hpp'
p564
sg48
I00
sba(iwrapper_utilities.class_info
CppClassInfo
p565
(dp566
g4
Nsg5
(lp567
sg7
S'AveragedSourceParabolicPde'
p568
sg9
I00
sg10
I00
sg11
Nsg12
g243
sg14
I01
sg15
I01
sg16
I01
sg17
I00
sg18
Nsg19
g171
sg20
Nsg21
(dp569
g23
g24
sg25
g26
sg27
g28
sg29
g30
sg31
g32
sg33
g34
sg35
g36
sS'*'
g37
sg38
g39
sg40
g39
sg41
g42
sg43
g39
ssg44
Nsg45
I00
sg46
S'/home/grogan/Chaste/cell_based/src/cell_based_pde/pdes/AveragedSourceParabolicPde.hpp'
p570
sg48
I00
sba(iwrapper_utilities.class_info
CppClassInfo
p571
(dp572
g4
Nsg5
(lp573
sg7
S'CellwiseSourceParabolicPde'
p574
sg9
I00
sg10
I00
sg11
Nsg12
g243
sg14
I01
sg15
I01
sg16
I01
sg17
I00
sg18
Nsg19
g171
sg20
Nsg21
(dp575
g23
g24
sg25
g26
sg27
g28
sg29
g30
sg31
g32
sg33
g34
sg35
g36
sS'*'
g37
sg38
g39
sg40
g39
sg41
g42
sg43
g39
ssg44
Nsg45
I00
sg46
S'/home/grogan/Chaste/cell_based/src/cell_based_pde/pdes/CellwiseSourceParabolicPde.hpp'
p576
sg48
I00
sba(iwrapper_utilities.class_info
CppClassInfo
p577
(dp578
g4
Nsg5
(lp579
sg7
S'AbstractPdeModifier'
p580
sg9
I00
sg10
I00
sg11
Nsg12
g243
sg14
I01
sg15
I01
sg16
I01
sg17
I00
sg18
Nsg19
g171
sg20
(lp581
S'GetSolution'
p582
aS'GetFeMesh'
p583
asg21
(dp584
g23
g24
sg25
g26
sg27
g28
sg29
g30
sg31
g32
sg33
g34
sg35
g36
sS'*'
g37
sg38
g39
sg40
g39
sg41
g42
sg43
g39
ssg44
Nsg45
I00
sg46
S'/home/grogan/Chaste/cell_based/src/cell_based_pde/AbstractPdeModifier.hpp'
p585
sg48
I00
sba(iwrapper_utilities.class_info
CppClassInfo
p586
(dp587
g4
Nsg5
(lp588
sg7
S'AbstractGrowingDomainPdeModifier'
p589
sg9
I00
sg10
I00
sg11
Nsg12
g243
sg14
I01
sg15
I01
sg16
I01
sg17
I00
sg18
Nsg19
g171
sg20
Nsg21
(dp590
g23
g24
sg25
g26
sg27
g28
sg29
g30
sg31
g32
sg33
g34
sg35
g36
sS'*'
g37
sg38
g39
sg40
g39
sg41
g42
sg43
g39
ssg44
Nsg45
I00
sg46
S'/home/grogan/Chaste/cell_based/src/cell_based_pde/AbstractGrowingDomainPdeModifier.hpp'
p591
sg48
I00
sba(iwrapper_utilities.class_info
CppClassInfo
p592
(dp593
g4
Nsg5
(lp594
sg7
S'EllipticGrowingDomainPdeModifier'
p595
sg9
I00
sg10
I00
sg11
Nsg12
g243
sg14
I01
sg15
I01
sg16
I01
sg17
I00
sg18
Nsg19
g171
sg20
(lp596
S'ConstructBoundaryConditionsContainer'
p597
asg21
(dp598
g23
g24
sg25
g26
sg27
g28
sg29
g30
sg31
g32
sg33
g34
sg35
g36
sS'*'
g37
sg38
g39
sg40
g39
sg41
g42
sg43
g39
ssg44
Nsg45
I00
sg46
S'/home/grogan/Chaste/cell_based/src/cell_based_pde/EllipticGrowingDomainPdeModifier.hpp'
p599
sg48
I00
sba(iwrapper_utilities.class_info
CppClassInfo
p600
(dp601
g4
Nsg5
(lp602
sg7
S'VoronoiDataWriter'
p603
sg9
I00
sg10
I00
sg11
Nsg12
g243
sg14
I01
sg15
I01
sg16
I01
sg17
I00
sg18
Nsg19
g217
sg20
Nsg21
(dp604
g23
g24
sg25
g26
sg27
g28
sg29
g30
sg31
g32
sg33
g34
sg35
g36
sS'*'
g37
sg38
g39
sg40
g39
sg41
g42
sg43
g39
ssg44
Nsg45
I00
sg46
S'/home/grogan/Chaste/cell_based/src/writers/population_writers/VoronoiDataWriter.hpp'
p605
sg48
I00
sba(iwrapper_utilities.class_info
CppClassInfo
p606
(dp607
g4
Nsg5
(lp608
sg7
S'CellLabelWriter'
p609
sg9
I00
sg10
I00
sg11
Nsg12
g243
sg14
I01
sg15
I01
sg16
I01
sg17
I00
sg18
Nsg19
g217
sg20
Nsg21
(dp610
g23
g24
sg25
g26
sg27
g28
sg29
g30
sg31
g32
sg33
g34
sg35
g36
sS'*'
g37
sg38
g39
sg40
g39
sg41
g42
sg43
g39
ssg44
Nsg45
I00
sg46
S'/home/grogan/Chaste/cell_based/src/writers/cell_writers/CellLabelWriter.hpp'
p611
sg48
I00
sba(iwrapper_utilities.class_info
CppClassInfo
p612
(dp613
g4
Nsg5
(lp614
sg7
S'AbstractCaUpdateRule'
p615
sg9
I00
sg10
I00
sg11
Nsg12
g243
sg14
I01
sg15
I01
sg16
I01
sg17
I00
sg18
Nsg19
g171
sg20
Nsg21
(dp616
g23
g24
sg25
g26
sg27
g28
sg29
g30
sg31
g32
sg33
g34
sg35
g36
sS'*'
g37
sg38
g39
sg40
g39
sg41
g42
sg43
g39
ssg44
Nsg45
I00
sg46
S'/home/grogan/Chaste/cell_based/src/population/update_rules/AbstractCaUpdateRule.hpp'
p617
sg48
I00
sba(iwrapper_utilities.class_info
CppClassInfo
p618
(dp619
g4
Nsg5
(lp620
sg7
S'AbstractUpdateRule'
p621
sg9
I00
sg10
I00
sg11
Nsg12
g243
sg14
I01
sg15
I01
sg16
I01
sg17
I00
sg18
Nsg19
g171
sg20
Nsg21
(dp622
g23
g24
sg25
g26
sg27
g28
sg29
g30
sg31
g32
sg33
g34
sg35
g36
sS'*'
g37
sg38
g39
sg40
g39
sg41
g42
sg43
g39
ssg44
Nsg45
I00
sg46
S'/home/grogan/Chaste/cell_based/src/population/update_rules/AbstractUpdateRule.hpp'
p623
sg48
I00
sba(iwrapper_utilities.class_info
CppClassInfo
p624
(dp625
g4
Nsg5
(lp626
sg7
S'DiffusionCaUpdateRule'
p627
sg9
I00
sg10
I00
sg11
Nsg12
g243
sg14
I01
sg15
I01
sg16
I01
sg17
I00
sg18
Nsg19
g171
sg20
Nsg21
(dp628
g23
g24
sg25
g26
sg27
g28
sg29
g30
sg31
g32
sg33
g34
sg35
g36
sS'*'
g37
sg38
g39
sg40
g39
sg41
g42
sg43
g39
ssg44
Nsg45
I00
sg46
S'/home/grogan/Chaste/cell_based/src/population/update_rules/DiffusionCaUpdateRule.hpp'
p629
sg48
I00
sba(iwrapper_utilities.class_info
CppClassInfo
p630
(dp631
g4
Nsg5
(lp632
sg7
S'AbstractPottsUpdateRule'
p633
sg9
I00
sg10
I00
sg11
Nsg12
g243
sg14
I01
sg15
I01
sg16
I01
sg17
I00
sg18
Nsg19
g171
sg20
Nsg21
(dp634
g23
g24
sg25
g26
sg27
g28
sg29
g30
sg31
g32
sg33
g34
sg35
g36
sS'*'
g37
sg38
g39
sg40
g39
sg41
g42
sg43
g39
ssg44
Nsg45
I00
sg46
S'/home/grogan/Chaste/cell_based/src/population/update_rules/AbstractPottsUpdateRule.hpp'
p635
sg48
I00
sba(iwrapper_utilities.class_info
CppClassInfo
p636
(dp637
g4
Nsg5
(lp638
sg7
S'VolumeConstraintPottsUpdateRule'
p639
sg9
I00
sg10
I00
sg11
Nsg12
g243
sg14
I01
sg15
I01
sg16
I01
sg17
I00
sg18
Nsg19
g171
sg20
Nsg21
(dp640
g23
g24
sg25
g26
sg27
g28
sg29
g30
sg31
g32
sg33
g34
sg35
g36
sS'*'
g37
sg38
g39
sg40
g39
sg41
g42
sg43
g39
ssg44
Nsg45
I00
sg46
S'/home/grogan/Chaste/cell_based/src/population/update_rules/VolumeConstraintPottsUpdateRule.hpp'
p641
sg48
I00
sba(iwrapper_utilities.class_info
CppClassInfo
p642
(dp643
g4
Nsg5
(lp644
sg7
S'SurfaceAreaConstraintPottsUpdateRule'
p645
sg9
I00
sg10
I00
sg11
Nsg12
g243
sg14
I01
sg15
I01
sg16
I01
sg17
I00
sg18
Nsg19
g171
sg20
Nsg21
(dp646
g23
g24
sg25
g26
sg27
g28
sg29
g30
sg31
g32
sg33
g34
sg35
g36
sS'*'
g37
sg38
g39
sg40
g39
sg41
g42
sg43
g39
ssg44
Nsg45
I00
sg46
S'/home/grogan/Chaste/cell_based/src/population/update_rules/SurfaceAreaConstraintPottsUpdateRule.hpp'
p647
sg48
I00
sba(iwrapper_utilities.class_info
CppClassInfo
p648
(dp649
g4
Nsg5
(lp650
sg7
S'DifferentialAdhesionPottsUpdateRule'
p651
sg9
I00
sg10
I00
sg11
Nsg12
g243
sg14
I01
sg15
I01
sg16
I01
sg17
I00
sg18
Nsg19
g171
sg20
Nsg21
(dp652
g23
g24
sg25
g26
sg27
g28
sg29
g30
sg31
g32
sg33
g34
sg35
g36
sS'*'
g37
sg38
g39
sg40
g39
sg41
g42
sg43
g39
ssg44
Nsg45
I00
sg46
S'/home/grogan/Chaste/cell_based/src/population/update_rules/DifferentialAdhesionPottsUpdateRule.hpp'
p653
sg48
I00
sba(iwrapper_utilities.class_info
CppClassInfo
p654
(dp655
g4
Nsg5
(lp656
sg7
S'AdhesionPottsUpdateRule'
p657
sg9
I00
sg10
I00
sg11
Nsg12
g243
sg14
I01
sg15
I01
sg16
I01
sg17
I00
sg18
Nsg19
g171
sg20
Nsg21
(dp658
g23
g24
sg25
g26
sg27
g28
sg29
g30
sg31
g32
sg33
g34
sg35
g36
sS'*'
g37
sg38
g39
sg40
g39
sg41
g42
sg43
g39
ssg44
Nsg45
I00
sg46
S'/home/grogan/Chaste/cell_based/src/population/update_rules/AdhesionPottsUpdateRule.hpp'
p659
sg48
I00
sba(iwrapper_utilities.class_info
CppClassInfo
p660
(dp661
g4
Nsg5
(lp662
sg7
S'AbstractVertexBasedDivisionRule'
p663
sg9
I00
sg10
I00
sg11
Nsg12
g243
sg14
I01
sg15
I01
sg16
I01
sg17
I00
sg18
Nsg19
g171
sg20
Nsg21
(dp664
g23
g24
sg25
g26
sg27
g28
sg29
g30
sg31
g32
sg33
g34
sg35
g36
sS'*'
g37
sg38
g39
sg40
g39
sg41
g42
sg43
g39
ssg44
Nsg45
I00
sg46
S'/home/grogan/Chaste/cell_based/src/population/division_rules/AbstractVertexBasedDivisionRule.hpp'
p665
sg48
I00
sba(iwrapper_utilities.class_info
CppClassInfo
p666
(dp667
g4
Nsg5
(lp668
sg7
S'AbstractForce'
p669
sg9
I00
sg10
I00
sg11
Nsg12
g243
sg14
I01
sg15
I01
sg16
I01
sg17
I00
sg18
Nsg19
g217
sg20
Nsg21
(dp670
g23
g24
sg25
g26
sg27
g28
sg29
g30
sg31
g32
sg33
g34
sg35
g36
sS'*'
g37
sg38
g39
sg40
g39
sg41
g42
sg43
g39
ssg44
Nsg45
I00
sg46
S'/home/grogan/Chaste/cell_based/src/population/forces/AbstractForce.hpp'
p671
sg48
I00
sba(iwrapper_utilities.class_info
CppClassInfo
p672
(dp673
g4
Nsg5
(lp674
sg7
S'AbstractTwoBodyInteractionForce'
p675
sg9
I00
sg10
I00
sg11
Nsg12
g243
sg14
I01
sg15
I01
sg16
I01
sg17
I00
sg18
Nsg19
g217
sg20
Nsg21
(dp676
g23
g24
sg25
g26
sg27
g28
sg29
g30
sg31
g32
sg33
g34
sg35
g36
sS'*'
g37
sg38
g39
sg40
g39
sg41
g42
sg43
g39
ssg44
Nsg45
I00
sg46
S'/home/grogan/Chaste/cell_based/src/population/forces/AbstractTwoBodyInteractionForce.hpp'
p677
sg48
I00
sba(iwrapper_utilities.class_info
CppClassInfo
p678
(dp679
g4
Nsg5
(lp680
sg7
S'GeneralisedLinearSpringForce'
p681
sg9
I00
sg10
I00
sg11
Nsg12
g243
sg14
I01
sg15
I01
sg16
I01
sg17
I00
sg18
Nsg19
g217
sg20
Nsg21
(dp682
g23
g24
sg25
g26
sg27
g28
sg29
g30
sg31
g32
sg33
g34
sg35
g36
sS'*'
g37
sg38
g39
sg40
g39
sg41
g42
sg43
g39
ssg44
Nsg45
I00
sg46
S'/home/grogan/Chaste/cell_based/src/population/forces/GeneralisedLinearSpringForce.hpp'
p683
sg48
I00
sba(iwrapper_utilities.class_info
CppClassInfo
p684
(dp685
g4
Nsg5
(lp686
sg7
S'NagaiHondaForce'
p687
sg9
I00
sg10
I00
sg11
Nsg12
g243
sg14
I01
sg15
I01
sg16
I01
sg17
I00
sg18
Nsg19
g171
sg20
Nsg21
(dp688
g23
g24
sg25
g26
sg27
g28
sg29
g30
sg31
g32
sg33
g34
sg35
g36
sS'*'
g37
sg38
g39
sg40
g39
sg41
g42
sg43
g39
ssg44
Nsg45
I00
sg46
S'/home/grogan/Chaste/cell_based/src/population/forces/NagaiHondaForce.hpp'
p689
sg48
I00
sba(iwrapper_utilities.class_info
CppClassInfo
p690
(dp691
g4
Nsg5
(lp692
sg7
S'AbstractCellKiller'
p693
sg9
I00
sg10
I00
sg11
Nsg12
g243
sg14
I01
sg15
I01
sg16
I01
sg17
I00
sg18
Nsg19
g171
sg20
Nsg21
(dp694
g23
g24
sg25
g26
sg27
g28
sg29
g30
sg31
g32
sg33
g34
sg35
g36
sS'*'
g37
sg38
g39
sg40
g39
sg41
g42
sg43
g39
ssg44
Nsg45
I00
sg46
S'/home/grogan/Chaste/cell_based/src/population/killers/AbstractCellKiller.hpp'
p695
sg48
I00
sba(iwrapper_utilities.class_info
CppClassInfo
p696
(dp697
g4
Nsg5
(lp698
sg7
S'PlaneBasedCellKiller'
p699
sg9
I00
sg10
I00
sg11
Nsg12
g243
sg14
I01
sg15
I01
sg16
I01
sg17
I00
sg18
Nsg19
g171
sg20
Nsg21
(dp700
g23
g24
sg25
g26
sg27
g28
sg29
g30
sg31
g32
sg33
g34
sg35
g36
sS'*'
g37
sg38
g39
sg40
g39
sg41
g42
sg43
g39
ssg44
Nsg45
I00
sg46
S'/home/grogan/Chaste/cell_based/src/population/killers/PlaneBasedCellKiller.hpp'
p701
sg48
I00
sba(iwrapper_utilities.class_info
CppClassInfo
p702
(dp703
g4
Nsg5
(lp704
sg7
S'ApoptoticCellKiller'
p705
sg9
I00
sg10
I00
sg11
Nsg12
g243
sg14
I01
sg15
I01
sg16
I01
sg17
I00
sg18
Nsg19
g171
sg20
Nsg21
(dp706
g23
g24
sg25
g26
sg27
g28
sg29
g30
sg31
g32
sg33
g34
sg35
g36
sS'*'
g37
sg38
g39
sg40
g39
sg41
g42
sg43
g39
ssg44
Nsg45
I00
sg46
S'/home/grogan/Chaste/cell_based/src/population/killers/ApoptoticCellKiller.hpp'
p707
sg48
I00
sba(iwrapper_utilities.class_info
CppClassInfo
p708
(dp709
g4
Nsg5
(lp710
sg7
S'AbstractCellPopulationBoundaryCondition'
p711
sg9
I00
sg10
I00
sg11
Nsg12
g243
sg14
I01
sg15
I01
sg16
I01
sg17
I00
sg18
Nsg19
g217
sg20
Nsg21
(dp712
g23
g24
sg25
g26
sg27
g28
sg29
g30
sg31
g32
sg33
g34
sg35
g36
sS'*'
g37
sg38
g39
sg40
g39
sg41
g42
sg43
g39
ssg44
Nsg45
I00
sg46
S'/home/grogan/Chaste/cell_based/src/population/boundary_conditions/AbstractCellPopulationBoundaryCondition.hpp'
p713
sg48
I00
sba(iwrapper_utilities.class_info
CppClassInfo
p714
(dp715
g4
Nsg5
(lp716
sg7
S'PlaneBoundaryCondition'
p717
sg9
I00
sg10
I00
sg11
Nsg12
g243
sg14
I01
sg15
I01
sg16
I01
sg17
I00
sg18
Nsg19
g217
sg20
Nsg21
(dp718
g23
g24
sg25
g26
sg27
g28
sg29
g30
sg31
g32
sg33
g34
sg35
g36
sS'*'
g37
sg38
g39
sg40
g39
sg41
g42
sg43
g39
ssg44
Nsg45
I00
sg46
S'/home/grogan/Chaste/cell_based/src/population/boundary_conditions/PlaneBoundaryCondition.hpp'
p719
sg48
I00
sba(iwrapper_utilities.class_info
CppClassInfo
p720
(dp721
g4
(lp722
(lp723
S'rGetNormalToPlane'
p724
aS'copy_const_reference'
p725
aa(lp726
S'rGetPointOnPlane'
p727
ag725
aasg5
(lp728
sg7
S'AttractingPlaneBoundaryCondition'
p729
sg9
I00
sg10
I00
sg11
Nsg12
g243
sg14
I01
sg15
I01
sg16
I01
sg17
I00
sg18
Nsg19
g217
sg20
Nsg21
(dp730
g23
g24
sg25
g26
sg27
g28
sg29
g30
sg31
g32
sg33
g34
sg35
g36
sS'*'
g37
sg38
g39
sg40
g39
sg41
g42
sg43
g39
ssg44
Nsg45
I00
sg46
S'/home/grogan/Chaste/projects/PyChaste/src/cell_based/AttractingPlaneBoundaryCondition.hpp'
p731
sg48
I00
sba(iwrapper_utilities.class_info
CppClassInfo
p732
(dp733
g4
Nsg5
(lp734
sg7
S'SphereGeometryBoundaryCondition'
p735
sg9
I00
sg10
I00
sg11
Nsg12
g243
sg14
I01
sg15
I01
sg16
I01
sg17
I00
sg18
Nsg19
g171
sg20
Nsg21
(dp736
g23
g24
sg25
g26
sg27
g28
sg29
g30
sg31
g32
sg33
g34
sg35
g36
sS'*'
g37
sg38
g39
sg40
g39
sg41
g42
sg43
g39
ssg44
Nsg45
I00
sg46
S'/home/grogan/Chaste/cell_based/src/population/boundary_conditions/SphereGeometryBoundaryCondition.hpp'
p737
sg48
I00
sba(iwrapper_utilities.class_info
CppClassInfo
p738
(dp739
g4
Nsg5
(lp740
sg7
S'AbstractCellPopulation'
p741
sg9
I00
sg10
I00
sg11
Nsg12
g243
sg14
I01
sg15
I01
sg16
I01
sg17
I00
sg18
Nsg19
g217
sg20
(lp742
S'rGetCells'
p743
asg21
(dp744
g23
g24
sg25
g26
sg27
g28
sg29
g30
sg31
g32
sg33
g34
sg35
g36
sS'*'
g37
sg38
g39
sg40
g39
sg41
g42
sg43
g39
ssg44
Nsg45
I00
sg46
S'/home/grogan/Chaste/cell_based/src/population/AbstractCellPopulation.hpp'
p745
sg48
I00
sba(iwrapper_utilities.class_info
CppClassInfo
p746
(dp747
g4
Nsg5
(lp748
sg7
S'AbstractOnLatticeCellPopulation'
p749
sg9
I00
sg10
I00
sg11
Nsg12
g243
sg14
I01
sg15
I01
sg16
I01
sg17
I00
sg18
Nsg19
g171
sg20
Nsg21
(dp750
g23
g24
sg25
g26
sg27
g28
sg29
g30
sg31
g32
sg33
g34
sg35
g36
sS'*'
g37
sg38
g39
sg40
g39
sg41
g42
sg43
g39
ssg44
Nsg45
I00
sg46
S'/home/grogan/Chaste/cell_based/src/population/AbstractOnLatticeCellPopulation.hpp'
p751
sg48
I00
sba(iwrapper_utilities.class_info
CppClassInfo
p752
(dp753
g4
Nsg5
(lp754
sg7
S'AbstractCentreBasedCellPopulation'
p755
sg9
I00
sg10
I00
sg11
Nsg12
g243
sg14
I01
sg15
I01
sg16
I01
sg17
I00
sg18
Nsg19
g217
sg20
(lp756
S'GetNodeCorrespondingToCell'
p757
aS'MarkSpring'
p758
aS'UnmarkSpring'
p759
asg21
(dp760
g23
g24
sg25
g26
sg27
g28
sg29
g30
sg31
g32
sg33
g34
sg35
g36
sS'*'
g37
sg38
g39
sg40
g39
sg41
g42
sg43
g39
ssg44
Nsg45
I00
sg46
S'/home/grogan/Chaste/cell_based/src/population/AbstractCentreBasedCellPopulation.hpp'
p761
sg48
I00
sba(iwrapper_utilities.class_info
CppClassInfo
p762
(dp763
g4
Nsg5
(lp764
sg7
S'AbstractOffLatticeCellPopulation'
p765
sg9
I00
sg10
I00
sg11
Nsg12
g243
sg14
I01
sg15
I01
sg16
I01
sg17
I00
sg18
Nsg19
g217
sg20
Nsg21
(dp766
g23
g24
sg25
g26
sg27
g28
sg29
g30
sg31
g32
sg33
g34
sg35
g36
sS'*'
g37
sg38
g39
sg40
g39
sg41
g42
sg43
g39
ssg44
Nsg45
I00
sg46
S'/home/grogan/Chaste/cell_based/src/population/AbstractOffLatticeCellPopulation.hpp'
p767
sg48
I00
sba(iwrapper_utilities.class_info
CppClassInfo
p768
(dp769
g4
Nsg5
(lp770
sg7
S'CaBasedCellPopulation'
p771
sg9
I00
sg10
I00
sg11
Nsg12
g243
sg14
I01
sg15
I01
sg16
I01
sg17
I00
sg18
Nsg19
g171
sg20
(lp772
S'rGetMesh'
p773
aS'GetTetrahedralMeshForPdeModifier'
p774
ag757
aS'rGetAvailableSpaces'
p775
asg21
(dp776
g23
g24
sg25
g26
sg27
g28
sg29
g30
sg31
g32
sg33
g34
sg35
g36
sS'*'
g37
sg38
g39
sg40
g39
sg41
g42
sg43
g39
ssg44
Nsg45
I00
sg46
S'/home/grogan/Chaste/cell_based/src/population/CaBasedCellPopulation.hpp'
p777
sg48
I00
sba(iwrapper_utilities.class_info
CppClassInfo
p778
(dp779
g4
Nsg5
(lp780
sg7
S'MeshBasedCellPopulation'
p781
sg9
I00
sg10
I00
sg11
Nsg12
g243
sg14
I01
sg15
I01
sg16
I01
sg17
I00
sg18
Nsg19
g217
sg20
(lp782
S'GetVoronoiTessellation'
p783
aS'rGetNodePairs'
p784
ag774
ag773
asg21
(dp785
g23
g24
sg25
g26
sg27
g28
sg29
g30
sg31
g32
sg33
g34
sg35
g36
sS'*'
g37
sg38
g39
sg40
g39
sg41
g42
sg43
g39
ssg44
Nsg45
I00
sg46
S'/home/grogan/Chaste/cell_based/src/population/MeshBasedCellPopulation.hpp'
p786
sg48
I00
sba(iwrapper_utilities.class_info
CppClassInfo
p787
(dp788
g4
Nsg5
(lp789
sg7
S'MeshBasedCellPopulationWithGhostNodes'
p790
sg9
I00
sg10
I00
sg11
Nsg12
g243
sg14
I01
sg15
I01
sg16
I01
sg17
I00
sg18
Nsg19
g171
sg20
Nsg21
(dp791
g23
g24
sg25
g26
sg27
g28
sg29
g30
sg31
g32
sg33
g34
sg35
g36
sS'*'
g37
sg38
g39
sg40
g39
sg41
g42
sg43
g39
ssg44
Nsg45
I00
sg46
S'/home/grogan/Chaste/cell_based/src/population/MeshBasedCellPopulationWithGhostNodes.hpp'
p792
sg48
I00
sba(iwrapper_utilities.class_info
CppClassInfo
p793
(dp794
g4
Nsg5
(lp795
sg7
S'VertexBasedCellPopulation'
p796
sg9
I00
sg10
I00
sg11
Nsg12
g243
sg14
I01
sg15
I01
sg16
I01
sg17
I00
sg18
Nsg19
g171
sg20
(lp797
g773
ag774
aS'GetElement'
p798
aS'GetElementCorrespondingToCell'
p799
asg21
(dp800
g23
g24
sg25
g26
sg27
g28
sg29
g30
sg31
g32
sg33
g34
sg35
g36
sS'*'
g37
sg38
g39
sg40
g39
sg41
g42
sg43
g39
ssg44
Nsg45
I00
sg46
S'/home/grogan/Chaste/cell_based/src/population/VertexBasedCellPopulation.hpp'
p801
sg48
I00
sba(iwrapper_utilities.class_info
CppClassInfo
p802
(dp803
g4
Nsg5
(lp804
sg7
S'PottsBasedCellPopulation'
p805
sg9
I00
sg10
I00
sg11
Nsg12
g243
sg14
I01
sg15
I01
sg16
I01
sg17
I00
sg18
Nsg19
g171
sg20
(lp806
g773
ag774
ag798
ag799
aS'GetElementTessellation'
p807
aS'GetMutableMesh'
p808
asg21
(dp809
g23
g24
sg25
g26
sg27
g28
sg29
g30
sg31
g32
sg33
g34
sg35
g36
sS'*'
g37
sg38
g39
sg40
g39
sg41
g42
sg43
g39
ssg44
Nsg45
I00
sg46
S'/home/grogan/Chaste/cell_based/src/population/PottsBasedCellPopulation.hpp'
p810
sg48
I00
sba(iwrapper_utilities.class_info
CppClassInfo
p811
(dp812
g4
Nsg5
(lp813
sg7
S'NodeBasedCellPopulation'
p814
sg9
I00
sg10
I00
sg11
Nsg12
g243
sg14
I01
sg15
I01
sg16
I01
sg17
I00
sg18
Nsg19
g171
sg20
(lp815
g773
ag774
ag784
asg21
(dp816
g23
g24
sg25
g26
sg27
g28
sg29
g30
sg31
g32
sg33
g34
sg35
g36
sS'*'
g37
sg38
g39
sg40
g39
sg41
g42
sg43
g39
ssg44
Nsg45
I00
sg46
S'/home/grogan/Chaste/cell_based/src/population/NodeBasedCellPopulation.hpp'
p817
sg48
I00
sba(iwrapper_utilities.class_info
CppClassInfo
p818
(dp819
g4
Nsg5
(lp820
sg7
S'AbstractTargetAreaModifier'
p821
sg9
I00
sg10
I00
sg11
Nsg12
g243
sg14
I01
sg15
I01
sg16
I01
sg17
I00
sg18
Nsg19
g171
sg20
Nsg21
(dp822
g23
g24
sg25
g26
sg27
g28
sg29
g30
sg31
g32
sg33
g34
sg35
g36
sS'*'
g37
sg38
g39
sg40
g39
sg41
g42
sg43
g39
ssg44
Nsg45
I00
sg46
S'/home/grogan/Chaste/cell_based/src/simulation/modifiers/AbstractTargetAreaModifier.hpp'
p823
sg48
I00
sba(iwrapper_utilities.class_info
CppClassInfo
p824
(dp825
g4
Nsg5
(lp826
sg7
S'SimpleTargetAreaModifier'
p827
sg9
I00
sg10
I00
sg11
Nsg12
g243
sg14
I01
sg15
I01
sg16
I01
sg17
I00
sg18
Nsg19
g171
sg20
Nsg21
(dp828
g23
g24
sg25
g26
sg27
g28
sg29
g30
sg31
g32
sg33
g34
sg35
g36
sS'*'
g37
sg38
g39
sg40
g39
sg41
g42
sg43
g39
ssg44
Nsg45
I00
sg46
S'/home/grogan/Chaste/cell_based/src/simulation/modifiers/SimpleTargetAreaModifier.hpp'
p829
sg48
I00
sba(iwrapper_utilities.class_info
CppClassInfo
p830
(dp831
g4
Nsg5
(lp832
sg7
S'VtkSceneModifier'
p833
sg9
I00
sg10
I00
sg11
Nsg12
g243
sg14
I01
sg15
I01
sg16
I01
sg17
I00
sg18
Nsg19
g171
sg20
Nsg21
(dp834
g23
g24
sg25
g26
sg27
g28
sg29
g30
sg31
g32
sg33
g34
sg35
g36
sS'*'
g37
sg38
g39
sg40
g39
sg41
g42
sg43
g39
ssg44
Nsg45
I00
sg46
S'/home/grogan/Chaste/projects/PyChaste/src/cell_based/VtkSceneModifier.hpp'
p835
sg48
I00
sba(iwrapper_utilities.class_info
CppClassInfo
p836
(dp837
g4
Nsg5
(lp838
sg7
S'AbstractCellBasedSimulationModifier'
p839
sg9
I00
sg10
I00
sg11
Nsg12
g243
sg14
I01
sg15
I01
sg16
I01
sg17
I00
sg18
Nsg19
g217
sg20
Nsg21
(dp840
g23
g24
sg25
g26
sg27
g28
sg29
g30
sg31
g32
sg33
g34
sg35
g36
sS'*'
g37
sg38
g39
sg40
g39
sg41
g42
sg43
g39
ssg44
Nsg45
I00
sg46
S'/home/grogan/Chaste/cell_based/src/simulation/modifiers/AbstractCellBasedSimulationModifier.hpp'
p841
sg48
I00
sba(iwrapper_utilities.class_info
CppClassInfo
p842
(dp843
g4
Nsg5
(lp844
sg7
S'AbstractCellBasedSimulation'
p845
sg9
I00
sg10
I00
sg11
Nsg12
g243
sg14
I01
sg15
I01
sg16
I01
sg17
I00
sg18
Nsg19
g217
sg20
(lp846
S'GetSimulationModifiers'
p847
asg21
(dp848
g23
g24
sg25
g26
sg27
g28
sg29
g30
sg31
g32
sg33
g34
sg35
g36
sS'*'
g37
sg38
g39
sg40
g39
sg41
g42
sg43
g39
ssg44
Nsg45
I00
sg46
S'/home/grogan/Chaste/cell_based/src/simulation/AbstractCellBasedSimulation.hpp'
p849
sg48
I00
sba(iwrapper_utilities.class_info
CppClassInfo
p850
(dp851
g4
Nsg5
(lp852
sg7
S'SimulationTime'
p853
sg9
I00
sg10
I00
sg11
Nsg12
g243
sg14
I01
sg15
I01
sg16
I01
sg17
I00
sg18
Nsg19
Nsg20
Nsg21
(dp854
g23
g24
sg25
g26
sg27
g28
sg29
g30
sg31
g32
sg33
g34
sg35
g36
sS'*'
g37
sg38
g39
sg40
g39
sg41
g42
sg43
g39
ssg44
Nsg45
I00
sg46
S'/home/grogan/Chaste/cell_based/src/common/SimulationTime.hpp'
p855
sg48
I00
sba(iwrapper_utilities.class_info
CppClassInfo
p856
(dp857
g4
Nsg5
(lp858
sg7
S'OnLatticeSimulation'
p859
sg9
I00
sg10
I00
sg11
Nsg12
g243
sg14
I01
sg15
I01
sg16
I01
sg17
I00
sg18
Nsg19
g171
sg20
Nsg21
(dp860
g23
g24
sg25
g26
sg27
g28
sg29
g30
sg31
g32
sg33
g34
sg35
g36
sS'*'
g37
sg38
g39
sg40
g39
sg41
g42
sg43
g39
ssg44
Nsg45
I00
sg46
S'/home/grogan/Chaste/cell_based/src/simulation/OnLatticeSimulation.hpp'
p861
sg48
I00
sba(iwrapper_utilities.class_info
CppClassInfo
p862
(dp863
g4
Nsg5
(lp864
sg7
S'OffLatticeSimulation'
p865
sg9
I00
sg10
I00
sg11
Nsg12
g243
sg14
I01
sg15
I01
sg16
I01
sg17
I00
sg18
Nsg19
g217
sg20
Nsg21
(dp866
g23
g24
sg25
g26
sg27
g28
sg29
g30
sg31
g32
sg33
g34
sg35
g36
sS'*'
g37
sg38
g39
sg40
g39
sg41
g42
sg43
g39
ssg44
Nsg45
I00
sg46
S'/home/grogan/Chaste/cell_based/src/simulation/OffLatticeSimulation.hpp'
p867
sg48
I00
sba(iwrapper_utilities.class_info
CppClassInfo
p868
(dp869
g4
Nsg5
(lp870
sg7
S'Hello'
p871
sg9
I00
sg10
I00
sg11
Nsg12
S'tutorial'
p872
sg14
I01
sg15
I01
sg16
I01
sg17
I00
sg18
Nsg19
Nsg20
Nsg21
(dp873
g23
g24
sg25
g26
sg27
g28
sg29
g30
sg31
g32
sg33
g34
sg35
g36
sS'*'
g37
sg38
g39
sg40
g39
sg41
g42
sg43
g39
ssg44
Nsg45
I00
sg46
S'/home/grogan/Chaste/projects/PyChaste/src/tutorial/Hello.hpp'
p874
sg48
I00
sba(iwrapper_utilities.class_info
CppClassInfo
p875
(dp876
g4
Nsg5
(lp877
sg7
S'VtkScene'
p878
sg9
I00
sg10
I00
sg11
Nsg12
S'visualization'
p879
sg14
I01
sg15
I01
sg16
I01
sg17
I00
sg18
Nsg19
g171
sg20
Nsg21
(dp880
g23
g24
sg25
g26
sg27
g28
sg29
g30
sg31
g32
sg33
g34
sg35
g36
sS'*'
g37
sg38
g39
sg40
g39
sg41
g42
sg43
g39
ssg44
Nsg45
I00
sg46
S'/home/grogan/Chaste/projects/PyChaste/src/visualization/VtkScene.hpp'
p881
sg48
I00
sba(iwrapper_utilities.class_info
CppClassInfo
p882
(dp883
g4
Nsg5
(lp884
sg7
S'AbstractPyChasteActorGenerator'
p885
sg9
I00
sg10
I00
sg11
Nsg12
g879
sg14
I01
sg15
I01
sg16
I01
sg17
I00
sg18
Nsg19
g171
sg20
Nsg21
(dp886
g23
g24
sg25
g26
sg27
g28
sg29
g30
sg31
g32
sg33
g34
sg35
g36
sS'*'
g37
sg38
g39
sg40
g39
sg41
g42
sg43
g39
ssg44
Nsg45
I00
sg46
S'/home/grogan/Chaste/projects/PyChaste/src/visualization/AbstractPyChasteActorGenerator.hpp'
p887
sg48
I00
sba(iwrapper_utilities.class_info
CppClassInfo
p888
(dp889
g4
Nsg5
(lp890
sg7
S'CellPopulationPyChasteActorGenerator'
p891
sg9
I00
sg10
I00
sg11
Nsg12
g879
sg14
I01
sg15
I01
sg16
I01
sg17
I00
sg18
Nsg19
g171
sg20
Nsg21
(dp892
g23
g24
sg25
g26
sg27
g28
sg29
g30
sg31
g32
sg33
g34
sg35
g36
sS'*'
g37
sg38
g39
sg40
g39
sg41
g42
sg43
g39
ssg44
Nsg45
I00
sg46
S'/home/grogan/Chaste/projects/PyChaste/src/visualization/CellPopulationPyChasteActorGenerator.hpp'
p893
sg48
I00
sba.