(lp1
(iwrapper_utilities.class_info
CppClassInfo
p2
(dp3
S'pointer_return_methods'
p4
NsS'name_replacements'
p5
(dp6
S'std::string'
p7
S'String'
p8
sS'c_vector'
p9
S'CVector'
p10
sS'std::set'
p11
S'Set'
p12
sS'std::pair'
p13
S'Pair'
p14
sS'std::map'
p15
S'Map'
p16
sS'boost::shared_ptr'
p17
S'SharedPtr'
p18
sS'std::vector'
p19
S'Vector'
p20
sS'*'
S'Ptr'
p21
sS'unsigned'
p22
S'Unsigned'
p23
sS'unsigned int'
p24
g23
sS'double'
p25
S'Double'
p26
sS'Unsigned int'
p27
g23
ssS'name'
p28
S'BoostFilesystem'
p29
sS'include_ptr_self'
p30
I00
sS'include_raw_ptr_self'
p31
I00
sS'declaration_code'
p32
NsS'component'
p33
S'core'
p34
sS'needs_include_file'
p35
I01
sS'needs_instantiation'
p36
I01
sS'skip_wrapping'
p37
I00
sS'excluded_variables'
p38
NsS'template_args'
p39
NsS'excluded_methods'
p40
NsS'name_override'
p41
NsS'include_vec_ptr_self'
p42
I00
sS'full_path'
p43
S'/home/grogan/Chaste/global/src/BoostFilesystem.hpp'
p44
sS'include_file_only'
p45
I01
sba(iwrapper_utilities.class_info
CppClassInfo
p46
(dp47
g4
Nsg5
(dp48
g7
g8
sg9
g10
sg11
g12
sg13
g14
sg15
g16
sg17
g18
sg19
g20
sS'*'
g21
sg22
g23
sg24
g23
sg25
g26
sg27
g23
ssg28
S'RelativeTo'
p49
sg30
I00
sg31
I00
sg32
Nsg33
g34
sg35
I00
sg36
I01
sg37
I00
sg38
Nsg39
Nsg40
Nsg41
Nsg42
I00
sg43
Nsg45
I00
sba(iwrapper_utilities.class_info
CppClassInfo
p50
(dp51
g4
Nsg5
(dp52
g7
g8
sg9
g10
sg11
g12
sg13
g14
sg15
g16
sg17
g18
sg19
g20
sS'*'
g21
sg22
g23
sg24
g23
sg25
g26
sg27
g23
ssg28
S'FileFinder'
p53
sg30
I00
sg31
I00
sg32
Nsg33
g34
sg35
I01
sg36
I01
sg37
I00
sg38
Nsg39
Nsg40
Nsg41
Nsg42
I00
sg43
S'/home/grogan/Chaste/global/src/FileFinder.hpp'
p54
sg45
I00
sba(iwrapper_utilities.class_info
CppClassInfo
p55
(dp56
g4
Nsg5
(dp57
g7
g8
sg9
g10
sg11
g12
sg13
g14
sg15
g16
sg17
g18
sg19
g20
sS'*'
g21
sg22
g23
sg24
g23
sg25
g26
sg27
g23
ssg28
S'OutputFileHandler'
p58
sg30
I00
sg31
I00
sg32
Nsg33
g34
sg35
I01
sg36
I01
sg37
I00
sg38
Nsg39
Nsg40
(lp59
S'OpenOutputFile'
p60
asg41
Nsg42
I00
sg43
S'/home/grogan/Chaste/global/src/OutputFileHandler.hpp'
p61
sg45
I00
sba(iwrapper_utilities.class_info
CppClassInfo
p62
(dp63
g4
Nsg5
(dp64
g7
g8
sg9
g10
sg11
g12
sg13
g14
sg15
g16
sg17
g18
sg19
g20
sS'*'
g21
sg22
g23
sg24
g23
sg25
g26
sg27
g23
ssg28
S'ProgressReporter'
p65
sg30
I00
sg31
I00
sg32
Nsg33
g34
sg35
I01
sg36
I01
sg37
I00
sg38
Nsg39
Nsg40
Nsg41
Nsg42
I00
sg43
S'/home/grogan/Chaste/global/src/ProgressReporter.hpp'
p66
sg45
I00
sba(iwrapper_utilities.class_info
CppClassInfo
p67
(dp68
g4
Nsg5
(dp69
g7
g8
sg9
g10
sg11
g12
sg13
g14
sg15
g16
sg17
g18
sg19
g20
sS'*'
g21
sg22
g23
sg24
g23
sg25
g26
sg27
g23
ssg28
S'RandomNumberGenerator'
p70
sg30
I00
sg31
I00
sg32
Nsg33
g34
sg35
I01
sg36
I01
sg37
I00
sg38
Nsg39
Nsg40
Nsg41
Nsg42
I00
sg43
S'/home/grogan/Chaste/global/src/RandomNumberGenerator.hpp'
p71
sg45
I00
sba(iwrapper_utilities.class_info
CppClassInfo
p72
(dp73
g4
Nsg5
(dp74
g7
g8
sg9
g10
sg11
g12
sg13
g14
sg15
g16
sg17
g18
sg19
g20
sS'*'
g21
sg22
g23
sg24
g23
sg25
g26
sg27
g23
ssg28
S'SmartPointers'
p75
sg30
I00
sg31
I00
sg32
Nsg33
g34
sg35
I01
sg36
I01
sg37
I00
sg38
Nsg39
Nsg40
Nsg41
Nsg42
I00
sg43
S'/home/grogan/Chaste/global/src/SmartPointers.hpp'
p76
sg45
I01
sba(iwrapper_utilities.class_info
CppClassInfo
p77
(dp78
g4
Nsg5
(dp79
g7
g8
sg9
g10
sg11
g12
sg13
g14
sg15
g16
sg17
g18
sg19
g20
sS'*'
g21
sg22
g23
sg24
g23
sg25
g26
sg27
g23
ssg28
S'TimeStepper'
p80
sg30
I00
sg31
I00
sg32
Nsg33
g34
sg35
I01
sg36
I01
sg37
I00
sg38
Nsg39
Nsg40
Nsg41
Nsg42
I00
sg43
S'/home/grogan/Chaste/global/src/TimeStepper.hpp'
p81
sg45
I00
sba(iwrapper_utilities.class_info
CppClassInfo
p82
(dp83
g4
Nsg5
(dp84
g7
g8
sg9
g10
sg11
g12
sg13
g14
sg15
g16
sg17
g18
sg19
g20
sS'*'
g21
sg22
g23
sg24
g23
sg25
g26
sg27
g23
ssg28
S'Version'
p85
sg30
I00
sg31
I00
sg32
Nsg33
g34
sg35
I01
sg36
I01
sg37
I00
sg38
Nsg39
Nsg40
Nsg41
Nsg42
I00
sg43
S'/home/grogan/Chaste/global/src/Version.hpp'
p86
sg45
I01
sba(iwrapper_utilities.class_info
CppClassInfo
p87
(dp88
g4
(lp89
(lp90
S'GetBuildInformation'
p91
aS''
aa(lp92
S'GetBuildTime'
p93
aS''
aa(lp94
S'GetBuilderUnameInfo'
p95
aS''
aa(lp96
S'GetCompilerFlags'
p97
aS''
aa(lp98
S'GetCompilerType'
p99
aS''
aa(lp100
S'GetCompilerVersion'
p101
aS''
aa(lp102
S'GetCurrentTime'
p103
aS''
aa(lp104
S'GetRootDir'
p105
aS''
aa(lp106
S'GetXsdVersion'
p107
aS''
aasg5
(dp108
g7
g8
sg9
g10
sg11
g12
sg13
g14
sg15
g16
sg17
g18
sg19
g20
sS'*'
g21
sg22
g23
sg24
g23
sg25
g26
sg27
g23
ssg28
S'ChasteBuildInfo'
p109
sg30
I00
sg31
I00
sg32
Nsg33
g34
sg35
I00
sg36
I01
sg37
I00
sg38
Nsg39
Nsg40
Nsg41
Nsg42
I00
sg43
Nsg45
I00
sba(iwrapper_utilities.class_info
CppClassInfo
p110
(dp111
g4
Nsg5
(dp112
g7
g8
sg9
g10
sg11
g12
sg13
g14
sg15
g16
sg17
g18
sg19
g20
sS'*'
g21
sg22
g23
sg24
g23
sg25
g26
sg27
g23
ssg28
S'Identifiable'
p113
sg30
I00
sg31
I00
sg32
Nsg33
g34
sg35
I01
sg36
I01
sg37
I00
sg38
Nsg39
Nsg40
Nsg41
Nsg42
I00
sg43
S'/home/grogan/Chaste/global/src/checkpointing/Identifiable.hpp'
p114
sg45
I00
sba(iwrapper_utilities.class_info
CppClassInfo
p115
(dp116
g4
Nsg5
(dp117
g7
g8
sg9
g10
sg11
g12
sg13
g14
sg15
g16
sg17
g18
sg19
g20
sS'*'
g21
sg22
g23
sg24
g23
sg25
g26
sg27
g23
ssg28
S'PetscTools'
p118
sg30
I00
sg31
I00
sg32
Nsg33
g34
sg35
I01
sg36
I01
sg37
I00
sg38
(lp119
S'MASTER_RANK'
p120
asg39
Nsg40
(lp121
S'GetWorld'
p122
asg41
Nsg42
I00
sg43
S'/home/grogan/Chaste/global/src/parallel/PetscTools.hpp'
p123
sg45
I00
sba(iwrapper_utilities.class_info
CppClassInfo
p124
(dp125
g4
Nsg5
(dp126
g7
g8
sg9
g10
sg11
g12
sg13
g14
sg15
g16
sg17
g18
sg19
g20
sS'*'
g21
sg22
g23
sg24
g23
sg25
g26
sg27
g23
ssg28
S'ReplicatableVector'
p127
sg30
I00
sg31
I00
sg32
Nsg33
g34
sg35
I01
sg36
I01
sg37
I00
sg38
Nsg39
Nsg40
Nsg41
Nsg42
I00
sg43
S'/home/grogan/Chaste/global/src/parallel/ReplicatableVector.hpp'
p128
sg45
I00
sba(iwrapper_utilities.class_info
CppClassInfo
p129
(dp130
g4
Nsg5
(dp131
g7
g8
sg9
g10
sg11
g12
sg13
g14
sg15
g16
sg17
g18
sg19
g20
sS'*'
g21
sg22
g23
sg24
g23
sg25
g26
sg27
g23
ssg28
S'Timer'
p132
sg30
I00
sg31
I00
sg32
Nsg33
g34
sg35
I01
sg36
I01
sg37
I00
sg38
Nsg39
Nsg40
Nsg41
Nsg42
I00
sg43
S'/home/grogan/Chaste/global/src/timing/Timer.hpp'
p133
sg45
I00
sba(iwrapper_utilities.class_info
CppClassInfo
p134
(dp135
g4
Nsg5
(dp136
g7
g8
sg9
g10
sg11
g12
sg13
g14
sg15
g16
sg17
g18
sg19
g20
sS'*'
g21
sg22
g23
sg24
g23
sg25
g26
sg27
g23
ssg28
S'UblasIncludes'
p137
sg30
I00
sg31
I00
sg32
Nsg33
g34
sg35
I01
sg36
I01
sg37
I00
sg38
Nsg39
Nsg40
Nsg41
Nsg42
I00
sg43
S'/home/grogan/Chaste/linalg/src/UblasIncludes.hpp'
p138
sg45
I01
sba(iwrapper_utilities.class_info
CppClassInfo
p139
(dp140
g4
Nsg5
(dp141
g7
g8
sg9
g10
sg11
g12
sg13
g14
sg15
g16
sg17
g18
sg19
g20
sS'*'
g21
sg22
g23
sg24
g23
sg25
g26
sg27
g23
ssg28
S'AbstractOdeSystemInformation'
p142
sg30
I00
sg31
I00
sg32
Nsg33
S'ode'
p143
sg35
I01
sg36
I01
sg37
I00
sg38
Nsg39
Nsg40
Nsg41
Nsg42
I00
sg43
S'/home/grogan/Chaste/ode/src/common/AbstractOdeSystemInformation.hpp'
p144
sg45
I00
sba(iwrapper_utilities.class_info
CppClassInfo
p145
(dp146
g4
Nsg5
(dp147
g7
g8
sg9
g10
sg11
g12
sg13
g14
sg15
g16
sg17
g18
sg19
g20
sS'*'
g21
sg22
g23
sg24
g23
sg25
g26
sg27
g23
ssg28
S'AbstractPythonOdeSystemInformation'
p148
sg30
I00
sg31
I00
sg32
Nsg33
g143
sg35
I01
sg36
I01
sg37
I00
sg38
Nsg39
Nsg40
Nsg41
Nsg42
I00
sg43
S'/home/grogan/Chaste/projects/PyChaste/src/ode/AbstractPythonOdeSystemInformation.hpp'
p149
sg45
I00
sba(iwrapper_utilities.class_info
CppClassInfo
p150
(dp151
g4
Nsg5
(dp152
g7
g8
sg9
g10
sg11
g12
sg13
g14
sg15
g16
sg17
g18
sg19
g20
sS'*'
g21
sg22
g23
sg24
g23
sg25
g26
sg27
g23
ssg28
S'AbstractOdeSystem'
p153
sg30
I00
sg31
I00
sg32
Nsg33
g143
sg35
I01
sg36
I01
sg37
I00
sg38
Nsg39
Nsg40
Nsg41
Nsg42
I00
sg43
S'/home/grogan/Chaste/ode/src/common/AbstractOdeSystem.hpp'
p154
sg45
I00
sba(iwrapper_utilities.class_info
CppClassInfo
p155
(dp156
g4
Nsg5
(dp157
g7
g8
sg9
g10
sg11
g12
sg13
g14
sg15
g16
sg17
g18
sg19
g20
sS'*'
g21
sg22
g23
sg24
g23
sg25
g26
sg27
g23
ssg28
S'AbstractLinearPde'
p158
sg30
I00
sg31
I00
sg32
Nsg33
Nsg35
I01
sg36
I01
sg37
I00
sg38
Nsg39
Nsg40
Nsg41
Nsg42
I00
sg43
Nsg45
I00
sba(iwrapper_utilities.class_info
CppClassInfo
p159
(dp160
g4
Nsg5
(dp161
g7
g8
sg9
g10
sg11
g12
sg13
g14
sg15
g16
sg17
g18
sg19
g20
sS'*'
g21
sg22
g23
sg24
g23
sg25
g26
sg27
g23
ssg28
S'AbstractLinearParabolicPde'
p162
sg30
I00
sg31
I00
sg32
Nsg33
Nsg35
I01
sg36
I01
sg37
I00
sg38
Nsg39
Nsg40
Nsg41
Nsg42
I00
sg43
Nsg45
I00
sba(iwrapper_utilities.class_info
CppClassInfo
p163
(dp164
g4
Nsg5
(dp165
g7
g8
sg9
g10
sg11
g12
sg13
g14
sg15
g16
sg17
g18
sg19
g20
sS'*'
g21
sg22
g23
sg24
g23
sg25
g26
sg27
g23
ssg28
S'AbstractLinearEllipticPde'
p166
sg30
I00
sg31
I00
sg32
Nsg33
Nsg35
I01
sg36
I01
sg37
I00
sg38
Nsg39
Nsg40
Nsg41
Nsg42
I00
sg43
Nsg45
I00
sba(iwrapper_utilities.class_info
CppClassInfo
p167
(dp168
g4
Nsg5
(dp169
g7
g8
sg9
g10
sg11
g12
sg13
g14
sg15
g16
sg17
g18
sg19
g20
sS'*'
g21
sg22
g23
sg24
g23
sg25
g26
sg27
g23
ssg28
S'AbstractNonlinearEllipticPde'
p170
sg30
I00
sg31
I00
sg32
Nsg33
S'pde'
p171
sg35
I01
sg36
I01
sg37
I00
sg38
Nsg39
(lp172
(lp173
I2
aa(lp174
I3
aasg40
Nsg41
Nsg42
I00
sg43
S'/home/grogan/Chaste/pde/src/problem/AbstractNonlinearEllipticPde.hpp'
p175
sg45
I00
sba(iwrapper_utilities.class_info
CppClassInfo
p176
(dp177
g4
Nsg5
(dp178
g7
g8
sg9
g10
sg11
g12
sg13
g14
sg15
g16
sg17
g18
sg19
g20
sS'*'
g21
sg22
g23
sg24
g23
sg25
g26
sg27
g23
ssg28
S'AbstractBoundaryCondition'
p179
sg30
I00
sg31
I00
sg32
Nsg33
g171
sg35
I01
sg36
I01
sg37
I00
sg38
Nsg39
g172
sg40
Nsg41
Nsg42
I00
sg43
S'/home/grogan/Chaste/pde/src/common/AbstractBoundaryCondition.hpp'
p180
sg45
I00
sba(iwrapper_utilities.class_info
CppClassInfo
p181
(dp182
g4
Nsg5
(dp183
g7
g8
sg9
g10
sg11
g12
sg13
g14
sg15
g16
sg17
g18
sg19
g20
sS'*'
g21
sg22
g23
sg24
g23
sg25
g26
sg27
g23
ssg28
S'ConstBoundaryCondition'
p184
sg30
I00
sg31
I00
sg32
Nsg33
g171
sg35
I01
sg36
I01
sg37
I00
sg38
Nsg39
g172
sg40
Nsg41
Nsg42
I00
sg43
S'/home/grogan/Chaste/pde/src/common/ConstBoundaryCondition.hpp'
p185
sg45
I00
sba(iwrapper_utilities.class_info
CppClassInfo
p186
(dp187
g4
Nsg5
(dp188
g7
g8
sg9
g10
sg11
g12
sg13
g14
sg15
g16
sg17
g18
sg19
g20
sS'*'
g21
sg22
g23
sg24
g23
sg25
g26
sg27
g23
ssg28
S'PdeSimulationTime'
p189
sg30
I00
sg31
I00
sg32
Nsg33
g171
sg35
I01
sg36
I01
sg37
I00
sg38
Nsg39
Nsg40
Nsg41
Nsg42
I00
sg43
S'/home/grogan/Chaste/pde/src/common/PdeSimulationTime.hpp'
p190
sg45
I00
sba(iwrapper_utilities.class_info
CppClassInfo
p191
(dp192
g4
(lp193
(lp194
S'rGetLocation'
p195
aS'copy_const_reference'
p196
aasg5
(dp197
g7
g8
sg9
g10
sg11
g12
sg13
g14
sg15
g16
sg17
g18
sg19
g20
sS'*'
g21
sg22
g23
sg24
g23
sg25
g26
sg27
g23
ssg28
S'ChastePoint'
p198
sg30
I00
sg31
I00
sg32
Nsg33
S'mesh'
p199
sg35
I01
sg36
I01
sg37
I00
sg38
Nsg39
g172
sg40
Nsg41
Nsg42
I00
sg43
S'/home/grogan/Chaste/mesh/src/common/ChastePoint.hpp'
p200
sg45
I00
sba(iwrapper_utilities.class_info
CppClassInfo
p201
(dp202
g4
Nsg5
(dp203
g7
g8
sg9
g10
sg11
g12
sg13
g14
sg15
g16
sg17
g18
sg19
g20
sS'*'
g21
sg22
g23
sg24
g23
sg25
g26
sg27
g23
ssg28
S'NodeAttributes'
p204
sg30
I00
sg31
I00
sg32
Nsg33
g199
sg35
I01
sg36
I01
sg37
I00
sg38
Nsg39
g172
sg40
Nsg41
Nsg42
I00
sg43
S'/home/grogan/Chaste/mesh/src/common/NodeAttributes.hpp'
p205
sg45
I00
sba(iwrapper_utilities.class_info
CppClassInfo
p206
(dp207
g4
Nsg5
(dp208
g7
g8
sg9
g10
sg11
g12
sg13
g14
sg15
g16
sg17
g18
sg19
g20
sS'*'
g21
sg22
g23
sg24
g23
sg25
g26
sg27
g23
ssg28
S'Node'
p209
sg30
I00
sg31
I00
sg32
Nsg33
g199
sg35
I01
sg36
I01
sg37
I00
sg38
Nsg39
g172
sg40
Nsg41
Nsg42
I01
sg43
S'/home/grogan/Chaste/mesh/src/common/Node.hpp'
p210
sg45
I00
sba(iwrapper_utilities.class_info
CppClassInfo
p211
(dp212
g4
Nsg5
(dp213
g7
g8
sg9
g10
sg11
g12
sg13
g14
sg15
g16
sg17
g18
sg19
g20
sS'*'
g21
sg22
g23
sg24
g23
sg25
g26
sg27
g23
ssg28
S'Element'
p214
sg30
I00
sg31
I00
sg32
Nsg33
g199
sg35
I01
sg36
I01
sg37
I00
sg38
Nsg39
(lp215
(lp216
I2
aI2
aa(lp217
I3
aI3
aasg40
(lp218
S'CalculateCircumsphereVolume'
p219
asg41
Nsg42
I01
sg43
S'/home/grogan/Chaste/mesh/src/common/Element.hpp'
p220
sg45
I00
sba(iwrapper_utilities.class_info
CppClassInfo
p221
(dp222
g4
Nsg5
(dp223
g7
g8
sg9
g10
sg11
g12
sg13
g14
sg15
g16
sg17
g18
sg19
g20
sS'*'
g21
sg22
g23
sg24
g23
sg25
g26
sg27
g23
ssg28
S'NodesOnlyMesh'
p224
sg30
I00
sg31
I00
sg32
Nsg33
g199
sg35
I01
sg36
I01
sg37
I00
sg38
Nsg39
g172
sg40
Nsg41
Nsg42
I00
sg43
S'/home/grogan/Chaste/mesh/src/common/NodesOnlyMesh.hpp'
p225
sg45
I00
sba(iwrapper_utilities.class_info
CppClassInfo
p226
(dp227
g4
Nsg5
(dp228
g7
g8
sg9
g10
sg11
g12
sg13
g14
sg15
g16
sg17
g18
sg19
g20
sS'*'
g21
sg22
g23
sg24
g23
sg25
g26
sg27
g23
ssg28
S'MutableMesh'
p229
sg30
I00
sg31
I00
sg32
Nsg33
g199
sg35
I01
sg36
I01
sg37
I00
sg38
Nsg39
g215
sg40
(lp230
S'SplitLongEdges'
p231
aS'RescaleMeshFromBoundaryNode'
p232
asg41
Nsg42
I00
sg43
S'/home/grogan/Chaste/mesh/src/common/MutableMesh.hpp'
p233
sg45
I00
sba(iwrapper_utilities.class_info
CppClassInfo
p234
(dp235
g4
Nsg5
(dp236
g7
g8
sg9
g10
sg11
g12
sg13
g14
sg15
g16
sg17
g18
sg19
g20
sS'*'
g21
sg22
g23
sg24
g23
sg25
g26
sg27
g23
ssg28
S'PottsMesh'
p237
sg30
I00
sg31
I00
sg32
Nsg33
S'cell_based'
p238
sg35
I01
sg36
I01
sg37
I00
sg38
Nsg39
g172
sg40
Nsg41
Nsg42
I00
sg43
S'/home/grogan/Chaste/cell_based/src/mesh/PottsMesh.hpp'
p239
sg45
I00
sba(iwrapper_utilities.class_info
CppClassInfo
p240
(dp241
g4
Nsg5
(dp242
g7
g8
sg9
g10
sg11
g12
sg13
g14
sg15
g16
sg17
g18
sg19
g20
sS'*'
g21
sg22
g23
sg24
g23
sg25
g26
sg27
g23
ssg28
S'SharedPottsMeshGenerator'
p243
sg30
I00
sg31
I00
sg32
Nsg33
g199
sg35
I01
sg36
I01
sg37
I00
sg38
Nsg39
g172
sg40
Nsg41
S'PottsMeshGenerator'
p244
sg42
I00
sg43
S'/home/grogan/Chaste/projects/PyChaste/src/mesh/SharedPottsMeshGenerator.hpp'
p245
sg45
I00
sba(iwrapper_utilities.class_info
CppClassInfo
p246
(dp247
g4
Nsg5
(dp248
g7
g8
sg9
g10
sg11
g12
sg13
g14
sg15
g16
sg17
g18
sg19
g20
sS'*'
g21
sg22
g23
sg24
g23
sg25
g26
sg27
g23
ssg28
S'PottsElement'
p249
sg30
I00
sg31
I00
sg32
Nsg33
g238
sg35
I01
sg36
I01
sg37
I00
sg38
Nsg39
g172
sg40
Nsg41
Nsg42
I01
sg43
S'/home/grogan/Chaste/cell_based/src/mesh/PottsElement.hpp'
p250
sg45
I00
sba(iwrapper_utilities.class_info
CppClassInfo
p251
(dp252
g4
Nsg5
(dp253
g7
g8
sg9
g10
sg11
g12
sg13
g14
sg15
g16
sg17
g18
sg19
g20
sS'*'
g21
sg22
g23
sg24
g23
sg25
g26
sg27
g23
ssg28
S'TetrahedralMesh'
p254
sg30
I00
sg31
I00
sg32
Nsg33
g199
sg35
I01
sg36
I01
sg37
I00
sg38
Nsg39
g215
sg40
(lp255
S'FreeTriangulateIo'
p256
aS'InitialiseTriangulateIo'
p257
asg41
Nsg42
I00
sg43
S'/home/grogan/Chaste/mesh/src/common/TetrahedralMesh.hpp'
p258
sg45
I00
sba(iwrapper_utilities.class_info
CppClassInfo
p259
(dp260
g4
Nsg5
(dp261
g7
g8
sg9
g10
sg11
g12
sg13
g14
sg15
g16
sg17
g18
sg19
g20
sS'*'
g21
sg22
g23
sg24
g23
sg25
g26
sg27
g23
ssg28
S'AbstractTetrahedralMesh'
p262
sg30
I00
sg31
I00
sg32
Nsg33
g199
sg35
I01
sg36
I01
sg37
I00
sg38
Nsg39
g215
sg40
Nsg41
Nsg42
I00
sg43
S'/home/grogan/Chaste/mesh/src/common/AbstractTetrahedralMesh.hpp'
p263
sg45
I00
sba(iwrapper_utilities.class_info
CppClassInfo
p264
(dp265
g4
Nsg5
(dp266
g7
g8
sg9
g10
sg11
g12
sg13
g14
sg15
g16
sg17
g18
sg19
g20
sS'*'
g21
sg22
g23
sg24
g23
sg25
g26
sg27
g23
ssg28
S'AbstractMesh'
p267
sg30
I00
sg31
I00
sg32
Nsg33
g199
sg35
I01
sg36
I01
sg37
I00
sg38
Nsg39
g215
sg40
Nsg41
Nsg42
I00
sg43
S'/home/grogan/Chaste/mesh/src/common/AbstractMesh.hpp'
p268
sg45
I00
sba(iwrapper_utilities.class_info
CppClassInfo
p269
(dp270
g4
Nsg5
(dp271
g7
g8
sg9
g10
sg11
g12
sg13
g14
sg15
g16
sg17
g18
sg19
g20
sS'*'
g21
sg22
g23
sg24
g23
sg25
g26
sg27
g23
ssg28
S'VertexMesh'
p272
sg30
I00
sg31
I00
sg32
Nsg33
g199
sg35
I01
sg36
I01
sg37
I00
sg38
Nsg39
g215
sg40
(lp273
S'GetFace'
p274
asg41
Nsg42
I00
sg43
S'/home/grogan/Chaste/mesh/src/vertex/VertexMesh.hpp'
p275
sg45
I00
sba(iwrapper_utilities.class_info
CppClassInfo
p276
(dp277
g4
Nsg5
(dp278
g7
g8
sg9
g10
sg11
g12
sg13
g14
sg15
g16
sg17
g18
sg19
g20
sS'*'
g21
sg22
g23
sg24
g23
sg25
g26
sg27
g23
ssg28
S'MutableVertexMesh'
p279
sg30
I00
sg31
I00
sg32
Nsg33
g199
sg35
I01
sg36
I01
sg37
I00
sg38
Nsg39
g215
sg40
Nsg41
Nsg42
I00
sg43
S'/home/grogan/Chaste/mesh/src/vertex/MutableVertexMesh.hpp'
p280
sg45
I00
sba(iwrapper_utilities.class_info
CppClassInfo
p281
(dp282
g4
Nsg5
(dp283
g7
g8
sg9
g10
sg11
g12
sg13
g14
sg15
g16
sg17
g18
sg19
g20
sS'*'
g21
sg22
g23
sg24
g23
sg25
g26
sg27
g23
ssg28
S'Cylindrical2dVertexMesh'
p284
sg30
I00
sg31
I00
sg32
Nsg33
g199
sg35
I01
sg36
I01
sg37
I00
sg38
Nsg39
Nsg40
Nsg41
Nsg42
I00
sg43
S'/home/grogan/Chaste/mesh/src/vertex/Cylindrical2dVertexMesh.hpp'
p285
sg45
I00
sba(iwrapper_utilities.class_info
CppClassInfo
p286
(dp287
g4
Nsg5
(dp288
g7
g8
sg9
g10
sg11
g12
sg13
g14
sg15
g16
sg17
g18
sg19
g20
sS'*'
g21
sg22
g23
sg24
g23
sg25
g26
sg27
g23
ssg28
S'SharedHoneycombMeshGenerator'
p289
sg30
I00
sg31
I00
sg32
Nsg33
g199
sg35
I01
sg36
I01
sg37
I00
sg38
Nsg39
Nsg40
Nsg41
S'HoneycombMeshGenerator'
p290
sg42
I00
sg43
S'/home/grogan/Chaste/projects/PyChaste/src/mesh/SharedHoneycombMeshGenerator.hpp'
p291
sg45
I00
sba(iwrapper_utilities.class_info
CppClassInfo
p292
(dp293
g4
Nsg5
(dp294
g7
g8
sg9
g10
sg11
g12
sg13
g14
sg15
g16
sg17
g18
sg19
g20
sS'*'
g21
sg22
g23
sg24
g23
sg25
g26
sg27
g23
ssg28
S'SharedHoneycombVertexMeshGenerator'
p295
sg30
I00
sg31
I00
sg32
Nsg33
g199
sg35
I01
sg36
I01
sg37
I00
sg38
Nsg39
Nsg40
Nsg41
S'HoneycombVertexMeshGenerator'
p296
sg42
I00
sg43
S'/home/grogan/Chaste/projects/PyChaste/src/mesh/SharedHoneycombVertexMeshGenerator.hpp'
p297
sg45
I00
sba(iwrapper_utilities.class_info
CppClassInfo
p298
(dp299
g4
Nsg5
(dp300
g7
g8
sg9
g10
sg11
g12
sg13
g14
sg15
g16
sg17
g18
sg19
g20
sS'*'
g21
sg22
g23
sg24
g23
sg25
g26
sg27
g23
ssg28
S'SharedCylindricalHoneycombVertexMeshGenerator'
p301
sg30
I00
sg31
I00
sg32
Nsg33
g199
sg35
I01
sg36
I01
sg37
I00
sg38
Nsg39
Nsg40
Nsg41
S'CylindricalHoneycombVertexMeshGenerator'
p302
sg42
I00
sg43
S'/home/grogan/Chaste/projects/PyChaste/src/mesh/SharedCylindricalHoneycombVertexMeshGenerator.hpp'
p303
sg45
I00
sba(iwrapper_utilities.class_info
CppClassInfo
p304
(dp305
g4
Nsg5
(dp306
g7
g8
sg9
g10
sg11
g12
sg13
g14
sg15
g16
sg17
g18
sg19
g20
sS'*'
g21
sg22
g23
sg24
g23
sg25
g26
sg27
g23
ssg28
S'AbstractCellBasedSimulation'
p307
sg30
I00
sg31
I00
sg32
Nsg33
g238
sg35
I01
sg36
I01
sg37
I00
sg38
Nsg39
g215
sg40
(lp308
S'GetSimulationModifiers'
p309
asg41
Nsg42
I00
sg43
S'/home/grogan/Chaste/cell_based/src/simulation/AbstractCellBasedSimulation.hpp'
p310
sg45
I00
sba(iwrapper_utilities.class_info
CppClassInfo
p311
(dp312
g4
Nsg5
(dp313
g7
g8
sg9
g10
sg11
g12
sg13
g14
sg15
g16
sg17
g18
sg19
g20
sS'*'
g21
sg22
g23
sg24
g23
sg25
g26
sg27
g23
ssg28
S'SimulationTime'
p314
sg30
I00
sg31
I00
sg32
Nsg33
g238
sg35
I01
sg36
I01
sg37
I00
sg38
Nsg39
Nsg40
Nsg41
Nsg42
I00
sg43
S'/home/grogan/Chaste/cell_based/src/common/SimulationTime.hpp'
p315
sg45
I00
sba(iwrapper_utilities.class_info
CppClassInfo
p316
(dp317
g4
Nsg5
(dp318
g7
g8
sg9
g10
sg11
g12
sg13
g14
sg15
g16
sg17
g18
sg19
g20
sS'*'
g21
sg22
g23
sg24
g23
sg25
g26
sg27
g23
ssg28
S'OnLatticeSimulation'
p319
sg30
I00
sg31
I00
sg32
Nsg33
g238
sg35
I01
sg36
I01
sg37
I00
sg38
Nsg39
g172
sg40
Nsg41
Nsg42
I00
sg43
S'/home/grogan/Chaste/cell_based/src/simulation/OnLatticeSimulation.hpp'
p320
sg45
I00
sba(iwrapper_utilities.class_info
CppClassInfo
p321
(dp322
g4
Nsg5
(dp323
g7
g8
sg9
g10
sg11
g12
sg13
g14
sg15
g16
sg17
g18
sg19
g20
sS'*'
g21
sg22
g23
sg24
g23
sg25
g26
sg27
g23
ssg28
S'OffLatticeSimulation'
p324
sg30
I00
sg31
I00
sg32
Nsg33
g238
sg35
I01
sg36
I01
sg37
I00
sg38
Nsg39
g215
sg40
Nsg41
Nsg42
I00
sg43
S'/home/grogan/Chaste/cell_based/src/simulation/OffLatticeSimulation.hpp'
p325
sg45
I00
sba(iwrapper_utilities.class_info
CppClassInfo
p326
(dp327
g4
Nsg5
(dp328
g7
g8
sg9
g10
sg11
g12
sg13
g14
sg15
g16
sg17
g18
sg19
g20
sS'*'
g21
sg22
g23
sg24
g23
sg25
g26
sg27
g23
ssg28
S'AbstractCellPopulation'
p329
sg30
I00
sg31
I00
sg32
Nsg33
g238
sg35
I01
sg36
I01
sg37
I00
sg38
Nsg39
g215
sg40
(lp330
S'rGetCells'
p331
asg41
Nsg42
I00
sg43
S'/home/grogan/Chaste/cell_based/src/population/AbstractCellPopulation.hpp'
p332
sg45
I00
sba(iwrapper_utilities.class_info
CppClassInfo
p333
(dp334
g4
Nsg5
(dp335
g7
g8
sg9
g10
sg11
g12
sg13
g14
sg15
g16
sg17
g18
sg19
g20
sS'*'
g21
sg22
g23
sg24
g23
sg25
g26
sg27
g23
ssg28
S'AbstractOnLatticeCellPopulation'
p336
sg30
I00
sg31
I00
sg32
Nsg33
g238
sg35
I01
sg36
I01
sg37
I00
sg38
Nsg39
g172
sg40
Nsg41
Nsg42
I00
sg43
S'/home/grogan/Chaste/cell_based/src/population/AbstractOnLatticeCellPopulation.hpp'
p337
sg45
I00
sba(iwrapper_utilities.class_info
CppClassInfo
p338
(dp339
g4
Nsg5
(dp340
g7
g8
sg9
g10
sg11
g12
sg13
g14
sg15
g16
sg17
g18
sg19
g20
sS'*'
g21
sg22
g23
sg24
g23
sg25
g26
sg27
g23
ssg28
S'AbstractCentreBasedCellPopulation'
p341
sg30
I00
sg31
I00
sg32
Nsg33
g238
sg35
I01
sg36
I01
sg37
I00
sg38
Nsg39
g215
sg40
(lp342
S'GetNodeCorrespondingToCell'
p343
aS'MarkSpring'
p344
aS'UnmarkSpring'
p345
asg41
Nsg42
I00
sg43
S'/home/grogan/Chaste/cell_based/src/population/AbstractCentreBasedCellPopulation.hpp'
p346
sg45
I00
sba(iwrapper_utilities.class_info
CppClassInfo
p347
(dp348
g4
Nsg5
(dp349
g7
g8
sg9
g10
sg11
g12
sg13
g14
sg15
g16
sg17
g18
sg19
g20
sS'*'
g21
sg22
g23
sg24
g23
sg25
g26
sg27
g23
ssg28
S'AbstractOffLatticeCellPopulation'
p350
sg30
I00
sg31
I00
sg32
Nsg33
g238
sg35
I01
sg36
I01
sg37
I00
sg38
Nsg39
g215
sg40
Nsg41
Nsg42
I00
sg43
S'/home/grogan/Chaste/cell_based/src/population/AbstractOffLatticeCellPopulation.hpp'
p351
sg45
I00
sba(iwrapper_utilities.class_info
CppClassInfo
p352
(dp353
g4
Nsg5
(dp354
g7
g8
sg9
g10
sg11
g12
sg13
g14
sg15
g16
sg17
g18
sg19
g20
sS'*'
g21
sg22
g23
sg24
g23
sg25
g26
sg27
g23
ssg28
S'CaBasedCellPopulation'
p355
sg30
I00
sg31
I00
sg32
Nsg33
g238
sg35
I01
sg36
I01
sg37
I00
sg38
Nsg39
g172
sg40
(lp356
S'rGetMesh'
p357
aS'GetTetrahedralMeshForPdeModifierGetNodeCorrespondingToCell'
p358
aS'rGetAvailableSpaces'
p359
asg41
Nsg42
I00
sg43
S'/home/grogan/Chaste/cell_based/src/population/CaBasedCellPopulation.hpp'
p360
sg45
I00
sba(iwrapper_utilities.class_info
CppClassInfo
p361
(dp362
g4
Nsg5
(dp363
g7
g8
sg9
g10
sg11
g12
sg13
g14
sg15
g16
sg17
g18
sg19
g20
sS'*'
g21
sg22
g23
sg24
g23
sg25
g26
sg27
g23
ssg28
S'MeshBasedCellPopulation'
p364
sg30
I00
sg31
I00
sg32
Nsg33
g238
sg35
I01
sg36
I01
sg37
I00
sg38
Nsg39
g215
sg40
(lp365
S'GetVoronoiTessellation, rGetNodePairs, GetTetrahedralMeshForPdeModifier'
p366
ag357
asg41
Nsg42
I00
sg43
S'/home/grogan/Chaste/cell_based/src/population/MeshBasedCellPopulation.hpp'
p367
sg45
I00
sba(iwrapper_utilities.class_info
CppClassInfo
p368
(dp369
g4
Nsg5
(dp370
g7
g8
sg9
g10
sg11
g12
sg13
g14
sg15
g16
sg17
g18
sg19
g20
sS'*'
g21
sg22
g23
sg24
g23
sg25
g26
sg27
g23
ssg28
S'MeshBasedCellPopulationWithGhostNodes'
p371
sg30
I00
sg31
I00
sg32
Nsg33
g238
sg35
I01
sg36
I01
sg37
I00
sg38
Nsg39
g172
sg40
Nsg41
Nsg42
I00
sg43
S'/home/grogan/Chaste/cell_based/src/population/MeshBasedCellPopulationWithGhostNodes.hpp'
p372
sg45
I00
sba(iwrapper_utilities.class_info
CppClassInfo
p373
(dp374
g4
Nsg5
(dp375
g7
g8
sg9
g10
sg11
g12
sg13
g14
sg15
g16
sg17
g18
sg19
g20
sS'*'
g21
sg22
g23
sg24
g23
sg25
g26
sg27
g23
ssg28
S'VertexBasedCellPopulation'
p376
sg30
I00
sg31
I00
sg32
Nsg33
g238
sg35
I01
sg36
I01
sg37
I00
sg38
Nsg39
g172
sg40
(lp377
g357
aS'GetTetrahedralMeshForPdeModifier'
p378
aS'GetElement'
p379
aS'GetElementCorrespondingToCell'
p380
asg41
Nsg42
I00
sg43
S'/home/grogan/Chaste/cell_based/src/population/VertexBasedCellPopulation.hpp'
p381
sg45
I00
sba(iwrapper_utilities.class_info
CppClassInfo
p382
(dp383
g4
Nsg5
(dp384
g7
g8
sg9
g10
sg11
g12
sg13
g14
sg15
g16
sg17
g18
sg19
g20
sS'*'
g21
sg22
g23
sg24
g23
sg25
g26
sg27
g23
ssg28
S'PottsBasedCellPopulation'
p385
sg30
I00
sg31
I00
sg32
Nsg33
g238
sg35
I01
sg36
I01
sg37
I00
sg38
Nsg39
g172
sg40
(lp386
g357
ag378
ag379
ag380
aS'GetElementTessellation'
p387
aS'GetMutableMesh'
p388
asg41
Nsg42
I00
sg43
S'/home/grogan/Chaste/cell_based/src/population/PottsBasedCellPopulation.hpp'
p389
sg45
I00
sba(iwrapper_utilities.class_info
CppClassInfo
p390
(dp391
g4
Nsg5
(dp392
g7
g8
sg9
g10
sg11
g12
sg13
g14
sg15
g16
sg17
g18
sg19
g20
sS'*'
g21
sg22
g23
sg24
g23
sg25
g26
sg27
g23
ssg28
S'NodeBasedCellPopulation'
p393
sg30
I00
sg31
I00
sg32
Nsg33
g238
sg35
I01
sg36
I01
sg37
I00
sg38
Nsg39
g172
sg40
(lp394
g357
ag378
aS'rGetNodePairs'
p395
asg41
Nsg42
I00
sg43
S'/home/grogan/Chaste/cell_based/src/population/NodeBasedCellPopulation.hpp'
p396
sg45
I00
sba(iwrapper_utilities.class_info
CppClassInfo
p397
(dp398
g4
Nsg5
(dp399
g7
g8
sg9
g10
sg11
g12
sg13
g14
sg15
g16
sg17
g18
sg19
g20
sS'*'
g21
sg22
g23
sg24
g23
sg25
g26
sg27
g23
ssg28
S'VoronoiDataWriter'
p400
sg30
I00
sg31
I00
sg32
Nsg33
g238
sg35
I01
sg36
I01
sg37
I00
sg38
Nsg39
g215
sg40
Nsg41
Nsg42
I00
sg43
S'/home/grogan/Chaste/cell_based/src/writers/population_writers/VoronoiDataWriter.hpp'
p401
sg45
I00
sba(iwrapper_utilities.class_info
CppClassInfo
p402
(dp403
g4
Nsg5
(dp404
g7
g8
sg9
g10
sg11
g12
sg13
g14
sg15
g16
sg17
g18
sg19
g20
sS'*'
g21
sg22
g23
sg24
g23
sg25
g26
sg27
g23
ssg28
S'CellLabelWriter'
p405
sg30
I00
sg31
I00
sg32
Nsg33
g238
sg35
I01
sg36
I01
sg37
I00
sg38
Nsg39
g215
sg40
Nsg41
Nsg42
I00
sg43
S'/home/grogan/Chaste/cell_based/src/writers/cell_writers/CellLabelWriter.hpp'
p406
sg45
I00
sba(iwrapper_utilities.class_info
CppClassInfo
p407
(dp408
g4
Nsg5
(dp409
g7
g8
sg9
g10
sg11
g12
sg13
g14
sg15
g16
sg17
g18
sg19
g20
sS'*'
g21
sg22
g23
sg24
g23
sg25
g26
sg27
g23
ssg28
S'AbstractCellPopulationBoundaryCondition'
p410
sg30
I00
sg31
I00
sg32
Nsg33
g238
sg35
I01
sg36
I01
sg37
I00
sg38
Nsg39
g215
sg40
Nsg41
Nsg42
I00
sg43
S'/home/grogan/Chaste/cell_based/src/population/boundary_conditions/AbstractCellPopulationBoundaryCondition.hpp'
p411
sg45
I00
sba(iwrapper_utilities.class_info
CppClassInfo
p412
(dp413
g4
Nsg5
(dp414
g7
g8
sg9
g10
sg11
g12
sg13
g14
sg15
g16
sg17
g18
sg19
g20
sS'*'
g21
sg22
g23
sg24
g23
sg25
g26
sg27
g23
ssg28
S'PlaneBoundaryCondition'
p415
sg30
I00
sg31
I00
sg32
Nsg33
g238
sg35
I01
sg36
I01
sg37
I00
sg38
Nsg39
g215
sg40
Nsg41
Nsg42
I00
sg43
S'/home/grogan/Chaste/cell_based/src/population/boundary_conditions/PlaneBoundaryCondition.hpp'
p416
sg45
I00
sba(iwrapper_utilities.class_info
CppClassInfo
p417
(dp418
g4
(lp419
(lp420
S'rGetNormalToPlane'
p421
ag196
aa(lp422
S'rGetPointOnPlane'
p423
ag196
aasg5
(dp424
g7
g8
sg9
g10
sg11
g12
sg13
g14
sg15
g16
sg17
g18
sg19
g20
sS'*'
g21
sg22
g23
sg24
g23
sg25
g26
sg27
g23
ssg28
S'AttractingPlaneBoundaryCondition'
p425
sg30
I00
sg31
I00
sg32
Nsg33
g238
sg35
I01
sg36
I01
sg37
I00
sg38
Nsg39
g215
sg40
Nsg41
Nsg42
I00
sg43
S'/home/grogan/Chaste/projects/PyChaste/src/cell_based/AttractingPlaneBoundaryCondition.hpp'
p426
sg45
I00
sba(iwrapper_utilities.class_info
CppClassInfo
p427
(dp428
g4
Nsg5
(dp429
g7
g8
sg9
g10
sg11
g12
sg13
g14
sg15
g16
sg17
g18
sg19
g20
sS'*'
g21
sg22
g23
sg24
g23
sg25
g26
sg27
g23
ssg28
S'SphereGeometryBoundaryCondition'
p430
sg30
I00
sg31
I00
sg32
Nsg33
g238
sg35
I01
sg36
I01
sg37
I00
sg38
Nsg39
g172
sg40
Nsg41
Nsg42
I00
sg43
S'/home/grogan/Chaste/cell_based/src/population/boundary_conditions/SphereGeometryBoundaryCondition.hpp'
p431
sg45
I00
sba(iwrapper_utilities.class_info
CppClassInfo
p432
(dp433
g4
Nsg5
(dp434
g7
g8
sg9
g10
sg11
g12
sg13
g14
sg15
g16
sg17
g18
sg19
g20
sS'*'
g21
sg22
g23
sg24
g23
sg25
g26
sg27
g23
ssg28
S'AbstractCellKiller'
p435
sg30
I00
sg31
I00
sg32
Nsg33
g238
sg35
I01
sg36
I01
sg37
I00
sg38
Nsg39
g172
sg40
Nsg41
Nsg42
I00
sg43
S'/home/grogan/Chaste/cell_based/src/population/killers/AbstractCellKiller.hpp'
p436
sg45
I00
sba(iwrapper_utilities.class_info
CppClassInfo
p437
(dp438
g4
Nsg5
(dp439
g7
g8
sg9
g10
sg11
g12
sg13
g14
sg15
g16
sg17
g18
sg19
g20
sS'*'
g21
sg22
g23
sg24
g23
sg25
g26
sg27
g23
ssg28
S'PlaneBasedCellKiller'
p440
sg30
I00
sg31
I00
sg32
Nsg33
g238
sg35
I01
sg36
I01
sg37
I00
sg38
Nsg39
g172
sg40
Nsg41
Nsg42
I00
sg43
S'/home/grogan/Chaste/cell_based/src/population/killers/PlaneBasedCellKiller.hpp'
p441
sg45
I00
sba(iwrapper_utilities.class_info
CppClassInfo
p442
(dp443
g4
Nsg5
(dp444
g7
g8
sg9
g10
sg11
g12
sg13
g14
sg15
g16
sg17
g18
sg19
g20
sS'*'
g21
sg22
g23
sg24
g23
sg25
g26
sg27
g23
ssg28
S'ApoptoticCellKiller'
p445
sg30
I00
sg31
I00
sg32
Nsg33
g238
sg35
I01
sg36
I01
sg37
I00
sg38
Nsg39
g172
sg40
Nsg41
Nsg42
I00
sg43
S'/home/grogan/Chaste/cell_based/src/population/killers/ApoptoticCellKiller.hpp'
p446
sg45
I00
sba(iwrapper_utilities.class_info
CppClassInfo
p447
(dp448
g4
Nsg5
(dp449
g7
g8
sg9
g10
sg11
g12
sg13
g14
sg15
g16
sg17
g18
sg19
g20
sS'*'
g21
sg22
g23
sg24
g23
sg25
g26
sg27
g23
ssg28
S'AbstractForce'
p450
sg30
I00
sg31
I00
sg32
Nsg33
g238
sg35
I01
sg36
I01
sg37
I00
sg38
Nsg39
g215
sg40
Nsg41
Nsg42
I01
sg43
S'/home/grogan/Chaste/cell_based/src/population/forces/AbstractForce.hpp'
p451
sg45
I00
sba(iwrapper_utilities.class_info
CppClassInfo
p452
(dp453
g4
Nsg5
(dp454
g7
g8
sg9
g10
sg11
g12
sg13
g14
sg15
g16
sg17
g18
sg19
g20
sS'*'
g21
sg22
g23
sg24
g23
sg25
g26
sg27
g23
ssg28
S'AbstractTwoBodyInteractionForce'
p455
sg30
I00
sg31
I00
sg32
Nsg33
g238
sg35
I01
sg36
I01
sg37
I00
sg38
Nsg39
g215
sg40
Nsg41
Nsg42
I00
sg43
S'/home/grogan/Chaste/cell_based/src/population/forces/AbstractTwoBodyInteractionForce.hpp'
p456
sg45
I00
sba(iwrapper_utilities.class_info
CppClassInfo
p457
(dp458
g4
Nsg5
(dp459
g7
g8
sg9
g10
sg11
g12
sg13
g14
sg15
g16
sg17
g18
sg19
g20
sS'*'
g21
sg22
g23
sg24
g23
sg25
g26
sg27
g23
ssg28
S'GeneralisedLinearSpringForce'
p460
sg30
I00
sg31
I00
sg32
Nsg33
g238
sg35
I01
sg36
I01
sg37
I00
sg38
Nsg39
g215
sg40
Nsg41
Nsg42
I00
sg43
S'/home/grogan/Chaste/cell_based/src/population/forces/GeneralisedLinearSpringForce.hpp'
p461
sg45
I00
sba(iwrapper_utilities.class_info
CppClassInfo
p462
(dp463
g4
Nsg5
(dp464
g7
g8
sg9
g10
sg11
g12
sg13
g14
sg15
g16
sg17
g18
sg19
g20
sS'*'
g21
sg22
g23
sg24
g23
sg25
g26
sg27
g23
ssg28
S'NagaiHondaForce'
p465
sg30
I00
sg31
I00
sg32
Nsg33
g238
sg35
I01
sg36
I01
sg37
I00
sg38
Nsg39
g172
sg40
Nsg41
Nsg42
I00
sg43
S'/home/grogan/Chaste/cell_based/src/population/forces/NagaiHondaForce.hpp'
p466
sg45
I00
sba(iwrapper_utilities.class_info
CppClassInfo
p467
(dp468
g4
Nsg5
(dp469
g7
g8
sg9
g10
sg11
g12
sg13
g14
sg15
g16
sg17
g18
sg19
g20
sS'*'
g21
sg22
g23
sg24
g23
sg25
g26
sg27
g23
ssg28
S'AbstractVertexBasedDivisionRule'
p470
sg30
I00
sg31
I00
sg32
Nsg33
g238
sg35
I01
sg36
I01
sg37
I00
sg38
Nsg39
g172
sg40
Nsg41
Nsg42
I00
sg43
S'/home/grogan/Chaste/cell_based/src/population/division_rules/AbstractVertexBasedDivisionRule.hpp'
p471
sg45
I00
sba(iwrapper_utilities.class_info
CppClassInfo
p472
(dp473
g4
Nsg5
(dp474
g7
g8
sg9
g10
sg11
g12
sg13
g14
sg15
g16
sg17
g18
sg19
g20
sS'*'
g21
sg22
g23
sg24
g23
sg25
g26
sg27
g23
ssg28
S'AbstractCaUpdateRule'
p475
sg30
I00
sg31
I00
sg32
Nsg33
g238
sg35
I01
sg36
I01
sg37
I00
sg38
Nsg39
g172
sg40
Nsg41
Nsg42
I00
sg43
S'/home/grogan/Chaste/cell_based/src/population/update_rules/AbstractCaUpdateRule.hpp'
p476
sg45
I00
sba(iwrapper_utilities.class_info
CppClassInfo
p477
(dp478
g4
Nsg5
(dp479
g7
g8
sg9
g10
sg11
g12
sg13
g14
sg15
g16
sg17
g18
sg19
g20
sS'*'
g21
sg22
g23
sg24
g23
sg25
g26
sg27
g23
ssg28
S'AbstractUpdateRule'
p480
sg30
I00
sg31
I00
sg32
Nsg33
g238
sg35
I01
sg36
I01
sg37
I00
sg38
Nsg39
g172
sg40
Nsg41
Nsg42
I01
sg43
S'/home/grogan/Chaste/cell_based/src/population/update_rules/AbstractUpdateRule.hpp'
p481
sg45
I00
sba(iwrapper_utilities.class_info
CppClassInfo
p482
(dp483
g4
Nsg5
(dp484
g7
g8
sg9
g10
sg11
g12
sg13
g14
sg15
g16
sg17
g18
sg19
g20
sS'*'
g21
sg22
g23
sg24
g23
sg25
g26
sg27
g23
ssg28
S'DiffusionCaUpdateRule'
p485
sg30
I00
sg31
I00
sg32
Nsg33
g238
sg35
I01
sg36
I01
sg37
I00
sg38
Nsg39
g172
sg40
Nsg41
Nsg42
I00
sg43
S'/home/grogan/Chaste/cell_based/src/population/update_rules/DiffusionCaUpdateRule.hpp'
p486
sg45
I00
sba(iwrapper_utilities.class_info
CppClassInfo
p487
(dp488
g4
Nsg5
(dp489
g7
g8
sg9
g10
sg11
g12
sg13
g14
sg15
g16
sg17
g18
sg19
g20
sS'*'
g21
sg22
g23
sg24
g23
sg25
g26
sg27
g23
ssg28
S'AbstractPottsUpdateRule'
p490
sg30
I00
sg31
I00
sg32
Nsg33
g238
sg35
I01
sg36
I01
sg37
I00
sg38
Nsg39
g172
sg40
Nsg41
Nsg42
I00
sg43
S'/home/grogan/Chaste/cell_based/src/population/update_rules/AbstractPottsUpdateRule.hpp'
p491
sg45
I00
sba(iwrapper_utilities.class_info
CppClassInfo
p492
(dp493
g4
Nsg5
(dp494
g7
g8
sg9
g10
sg11
g12
sg13
g14
sg15
g16
sg17
g18
sg19
g20
sS'*'
g21
sg22
g23
sg24
g23
sg25
g26
sg27
g23
ssg28
S'VolumeConstraintPottsUpdateRule'
p495
sg30
I00
sg31
I00
sg32
Nsg33
g238
sg35
I01
sg36
I01
sg37
I00
sg38
Nsg39
g172
sg40
Nsg41
Nsg42
I00
sg43
S'/home/grogan/Chaste/cell_based/src/population/update_rules/VolumeConstraintPottsUpdateRule.hpp'
p496
sg45
I00
sba(iwrapper_utilities.class_info
CppClassInfo
p497
(dp498
g4
Nsg5
(dp499
g7
g8
sg9
g10
sg11
g12
sg13
g14
sg15
g16
sg17
g18
sg19
g20
sS'*'
g21
sg22
g23
sg24
g23
sg25
g26
sg27
g23
ssg28
S'SurfaceAreaConstraintPottsUpdateRule'
p500
sg30
I00
sg31
I00
sg32
Nsg33
g238
sg35
I01
sg36
I01
sg37
I00
sg38
Nsg39
g172
sg40
Nsg41
Nsg42
I00
sg43
S'/home/grogan/Chaste/cell_based/src/population/update_rules/SurfaceAreaConstraintPottsUpdateRule.hpp'
p501
sg45
I00
sba(iwrapper_utilities.class_info
CppClassInfo
p502
(dp503
g4
Nsg5
(dp504
g7
g8
sg9
g10
sg11
g12
sg13
g14
sg15
g16
sg17
g18
sg19
g20
sS'*'
g21
sg22
g23
sg24
g23
sg25
g26
sg27
g23
ssg28
S'DifferentialAdhesionPottsUpdateRule'
p505
sg30
I00
sg31
I00
sg32
Nsg33
g238
sg35
I01
sg36
I01
sg37
I00
sg38
Nsg39
g172
sg40
Nsg41
Nsg42
I00
sg43
S'/home/grogan/Chaste/cell_based/src/population/update_rules/DifferentialAdhesionPottsUpdateRule.hpp'
p506
sg45
I00
sba(iwrapper_utilities.class_info
CppClassInfo
p507
(dp508
g4
Nsg5
(dp509
g7
g8
sg9
g10
sg11
g12
sg13
g14
sg15
g16
sg17
g18
sg19
g20
sS'*'
g21
sg22
g23
sg24
g23
sg25
g26
sg27
g23
ssg28
S'AdhesionPottsUpdateRule'
p510
sg30
I00
sg31
I00
sg32
Nsg33
g238
sg35
I01
sg36
I01
sg37
I00
sg38
Nsg39
g172
sg40
Nsg41
Nsg42
I00
sg43
S'/home/grogan/Chaste/cell_based/src/population/update_rules/AdhesionPottsUpdateRule.hpp'
p511
sg45
I00
sba(iwrapper_utilities.class_info
CppClassInfo
p512
(dp513
g4
Nsg5
(dp514
g7
g8
sg9
g10
sg11
g12
sg13
g14
sg15
g16
sg17
g18
sg19
g20
sS'*'
g21
sg22
g23
sg24
g23
sg25
g26
sg27
g23
ssg28
g158
sg30
I00
sg31
I00
sg32
Nsg33
g238
sg35
I00
sg36
I00
sg37
I00
sg38
Nsg39
g215
sg40
Nsg41
Nsg42
I00
sg43
S'/home/grogan/Chaste/pde/src/problem/AbstractLinearPde.hpp'
p515
sg45
I00
sba(iwrapper_utilities.class_info
CppClassInfo
p516
(dp517
g4
Nsg5
(dp518
g7
g8
sg9
g10
sg11
g12
sg13
g14
sg15
g16
sg17
g18
sg19
g20
sS'*'
g21
sg22
g23
sg24
g23
sg25
g26
sg27
g23
ssg28
g162
sg30
I00
sg31
I00
sg32
Nsg33
g238
sg35
I00
sg36
I00
sg37
I00
sg38
Nsg39
g215
sg40
Nsg41
Nsg42
I00
sg43
S'/home/grogan/Chaste/pde/src/problem/AbstractLinearParabolicPde.hpp'
p519
sg45
I00
sba(iwrapper_utilities.class_info
CppClassInfo
p520
(dp521
g4
Nsg5
(dp522
g7
g8
sg9
g10
sg11
g12
sg13
g14
sg15
g16
sg17
g18
sg19
g20
sS'*'
g21
sg22
g23
sg24
g23
sg25
g26
sg27
g23
ssg28
g166
sg30
I00
sg31
I00
sg32
Nsg33
g238
sg35
I00
sg36
I00
sg37
I00
sg38
Nsg39
g215
sg40
Nsg41
Nsg42
I00
sg43
S'/home/grogan/Chaste/pde/src/problem/AbstractLinearEllipticPde.hpp'
p523
sg45
I00
sba(iwrapper_utilities.class_info
CppClassInfo
p524
(dp525
g4
Nsg5
(dp526
g7
g8
sg9
g10
sg11
g12
sg13
g14
sg15
g16
sg17
g18
sg19
g20
sS'*'
g21
sg22
g23
sg24
g23
sg25
g26
sg27
g23
ssg28
S'CellwiseSourceEllipticPde'
p527
sg30
I00
sg31
I00
sg32
Nsg33
g238
sg35
I01
sg36
I01
sg37
I00
sg38
Nsg39
g172
sg40
Nsg41
Nsg42
I00
sg43
S'/home/grogan/Chaste/cell_based/src/cell_based_pde/pdes/CellwiseSourceEllipticPde.hpp'
p528
sg45
I00
sba(iwrapper_utilities.class_info
CppClassInfo
p529
(dp530
g4
Nsg5
(dp531
g7
g8
sg9
g10
sg11
g12
sg13
g14
sg15
g16
sg17
g18
sg19
g20
sS'*'
g21
sg22
g23
sg24
g23
sg25
g26
sg27
g23
ssg28
S'AveragedSourceEllipticPde'
p532
sg30
I00
sg31
I00
sg32
Nsg33
g238
sg35
I01
sg36
I01
sg37
I00
sg38
Nsg39
g172
sg40
Nsg41
Nsg42
I00
sg43
S'/home/grogan/Chaste/cell_based/src/cell_based_pde/pdes/AveragedSourceEllipticPde.hpp'
p533
sg45
I00
sba(iwrapper_utilities.class_info
CppClassInfo
p534
(dp535
g4
Nsg5
(dp536
g7
g8
sg9
g10
sg11
g12
sg13
g14
sg15
g16
sg17
g18
sg19
g20
sS'*'
g21
sg22
g23
sg24
g23
sg25
g26
sg27
g23
ssg28
S'AveragedSourceParabolicPde'
p537
sg30
I00
sg31
I00
sg32
Nsg33
g238
sg35
I01
sg36
I01
sg37
I00
sg38
Nsg39
g172
sg40
Nsg41
Nsg42
I00
sg43
S'/home/grogan/Chaste/cell_based/src/cell_based_pde/pdes/AveragedSourceParabolicPde.hpp'
p538
sg45
I00
sba(iwrapper_utilities.class_info
CppClassInfo
p539
(dp540
g4
Nsg5
(dp541
g7
g8
sg9
g10
sg11
g12
sg13
g14
sg15
g16
sg17
g18
sg19
g20
sS'*'
g21
sg22
g23
sg24
g23
sg25
g26
sg27
g23
ssg28
S'CellwiseSourceParabolicPde'
p542
sg30
I00
sg31
I00
sg32
Nsg33
g238
sg35
I01
sg36
I01
sg37
I00
sg38
Nsg39
g172
sg40
Nsg41
Nsg42
I00
sg43
S'/home/grogan/Chaste/cell_based/src/cell_based_pde/pdes/CellwiseSourceParabolicPde.hpp'
p543
sg45
I00
sba(iwrapper_utilities.class_info
CppClassInfo
p544
(dp545
g4
Nsg5
(dp546
g7
g8
sg9
g10
sg11
g12
sg13
g14
sg15
g16
sg17
g18
sg19
g20
sS'*'
g21
sg22
g23
sg24
g23
sg25
g26
sg27
g23
ssg28
S'AbstractPdeModifier'
p547
sg30
I00
sg31
I00
sg32
Nsg33
g238
sg35
I01
sg36
I01
sg37
I00
sg38
Nsg39
g172
sg40
(lp548
S'GetSolution, GetFeMesh'
p549
asg41
Nsg42
I00
sg43
S'/home/grogan/Chaste/cell_based/src/cell_based_pde/AbstractPdeModifier.hpp'
p550
sg45
I00
sba(iwrapper_utilities.class_info
CppClassInfo
p551
(dp552
g4
Nsg5
(dp553
g7
g8
sg9
g10
sg11
g12
sg13
g14
sg15
g16
sg17
g18
sg19
g20
sS'*'
g21
sg22
g23
sg24
g23
sg25
g26
sg27
g23
ssg28
S'AbstractGrowingDomainPdeModifier'
p554
sg30
I00
sg31
I00
sg32
Nsg33
g238
sg35
I01
sg36
I01
sg37
I00
sg38
Nsg39
g172
sg40
Nsg41
Nsg42
I00
sg43
S'/home/grogan/Chaste/cell_based/src/cell_based_pde/AbstractGrowingDomainPdeModifier.hpp'
p555
sg45
I00
sba(iwrapper_utilities.class_info
CppClassInfo
p556
(dp557
g4
Nsg5
(dp558
g7
g8
sg9
g10
sg11
g12
sg13
g14
sg15
g16
sg17
g18
sg19
g20
sS'*'
g21
sg22
g23
sg24
g23
sg25
g26
sg27
g23
ssg28
S'EllipticGrowingDomainPdeModifier'
p559
sg30
I00
sg31
I00
sg32
Nsg33
g238
sg35
I01
sg36
I01
sg37
I00
sg38
Nsg39
g172
sg40
(lp560
S'ConstructBoundaryConditionsContainer'
p561
asg41
Nsg42
I00
sg43
S'/home/grogan/Chaste/cell_based/src/cell_based_pde/EllipticGrowingDomainPdeModifier.hpp'
p562
sg45
I00
sba(iwrapper_utilities.class_info
CppClassInfo
p563
(dp564
g4
Nsg5
(dp565
g7
g8
sg9
g10
sg11
g12
sg13
g14
sg15
g16
sg17
g18
sg19
g20
sS'*'
g21
sg22
g23
sg24
g23
sg25
g26
sg27
g23
ssg28
S'Cell'
p566
sg30
I00
sg31
I00
sg32
Nsg33
g238
sg35
I01
sg36
I01
sg37
I00
sg38
Nsg39
Nsg40
(lp567
S'rGetCellPropertyCollection'
p568
aS'GetSrnModel'
p569
asg41
Nsg42
I01
sg43
S'/home/grogan/Chaste/cell_based/src/cell/Cell.hpp'
p570
sg45
I00
sba(iwrapper_utilities.class_info
CppClassInfo
p571
(dp572
g4
Nsg5
(dp573
g7
g8
sg9
g10
sg11
g12
sg13
g14
sg15
g16
sg17
g18
sg19
g20
sS'*'
g21
sg22
g23
sg24
g23
sg25
g26
sg27
g23
ssg28
S'CellsGenerator'
p574
sg30
I00
sg31
I00
sg32
Nsg33
g238
sg35
I01
sg36
I01
sg37
I00
sg38
Nsg39
(lp575
(lp576
S'UniformCellCycleModel'
p577
aI2
aa(lp578
g577
aI3
aa(lp579
S'SimpleOxygenBasedCellCycleModel'
p580
aI2
aa(lp581
g580
aI3
aa(lp582
S'UniformG1GenerationalCellCycleModel'
p583
aI2
aa(lp584
g583
aI3
aa(lp585
S'NoCellCycleModel'
p586
aI2
aa(lp587
g586
aI3
aasg40
Nsg41
Nsg42
I00
sg43
S'/home/grogan/Chaste/cell_based/src/cell/CellsGenerator.hpp'
p588
sg45
I00
sba(iwrapper_utilities.class_info
CppClassInfo
p589
(dp590
g4
Nsg5
(dp591
g7
g8
sg9
g10
sg11
g12
sg13
g14
sg15
g16
sg17
g18
sg19
g20
sS'*'
g21
sg22
g23
sg24
g23
sg25
g26
sg27
g23
ssg28
S'AbstractCellCycleModel'
p592
sg30
I00
sg31
I00
sg32
Nsg33
g238
sg35
I01
sg36
I01
sg37
I00
sg38
Nsg39
Nsg40
Nsg41
Nsg42
I00
sg43
S'/home/grogan/Chaste/cell_based/src/cell/cycle/AbstractCellCycleModel.hpp'
p593
sg45
I00
sba(iwrapper_utilities.class_info
CppClassInfo
p594
(dp595
g4
Nsg5
(dp596
g7
g8
sg9
g10
sg11
g12
sg13
g14
sg15
g16
sg17
g18
sg19
g20
sS'*'
g21
sg22
g23
sg24
g23
sg25
g26
sg27
g23
ssg28
S'AbstractPhaseBasedCellCycleModel'
p597
sg30
I00
sg31
I00
sg32
Nsg33
g238
sg35
I01
sg36
I01
sg37
I00
sg38
Nsg39
Nsg40
Nsg41
Nsg42
I00
sg43
S'/home/grogan/Chaste/cell_based/src/cell/cycle/AbstractPhaseBasedCellCycleModel.hpp'
p598
sg45
I00
sba(iwrapper_utilities.class_info
CppClassInfo
p599
(dp600
g4
Nsg5
(dp601
g7
g8
sg9
g10
sg11
g12
sg13
g14
sg15
g16
sg17
g18
sg19
g20
sS'*'
g21
sg22
g23
sg24
g23
sg25
g26
sg27
g23
ssg28
S'AbstractSimpleCellCycleModel'
p602
sg30
I00
sg31
I00
sg32
Nsg33
g238
sg35
I01
sg36
I01
sg37
I00
sg38
Nsg39
Nsg40
Nsg41
Nsg42
I00
sg43
S'/home/grogan/Chaste/cell_based/src/cell/cycle/AbstractSimpleCellCycleModel.hpp'
p603
sg45
I00
sba(iwrapper_utilities.class_info
CppClassInfo
p604
(dp605
g4
Nsg5
(dp606
g7
g8
sg9
g10
sg11
g12
sg13
g14
sg15
g16
sg17
g18
sg19
g20
sS'*'
g21
sg22
g23
sg24
g23
sg25
g26
sg27
g23
ssg28
S'AbstractSimplePhaseBasedCellCycleModel'
p607
sg30
I00
sg31
I00
sg32
Nsg33
g238
sg35
I01
sg36
I01
sg37
I00
sg38
Nsg39
Nsg40
Nsg41
Nsg42
I00
sg43
S'/home/grogan/Chaste/cell_based/src/cell/cycle/AbstractSimplePhaseBasedCellCycleModel.hpp'
p608
sg45
I00
sba(iwrapper_utilities.class_info
CppClassInfo
p609
(dp610
g4
Nsg5
(dp611
g7
g8
sg9
g10
sg11
g12
sg13
g14
sg15
g16
sg17
g18
sg19
g20
sS'*'
g21
sg22
g23
sg24
g23
sg25
g26
sg27
g23
ssg28
S'AbstractSimpleGenerationalCellCycleModel'
p612
sg30
I00
sg31
I00
sg32
Nsg33
g238
sg35
I01
sg36
I01
sg37
I00
sg38
Nsg39
Nsg40
Nsg41
Nsg42
I00
sg43
S'/home/grogan/Chaste/cell_based/src/cell/cycle/AbstractSimpleGenerationalCellCycleModel.hpp'
p613
sg45
I00
sba(iwrapper_utilities.class_info
CppClassInfo
p614
(dp615
g4
Nsg5
(dp616
g7
g8
sg9
g10
sg11
g12
sg13
g14
sg15
g16
sg17
g18
sg19
g20
sS'*'
g21
sg22
g23
sg24
g23
sg25
g26
sg27
g23
ssg28
g577
sg30
I00
sg31
I00
sg32
Nsg33
g238
sg35
I01
sg36
I01
sg37
I00
sg38
Nsg39
Nsg40
Nsg41
Nsg42
I00
sg43
S'/home/grogan/Chaste/cell_based/src/cell/cycle/UniformCellCycleModel.hpp'
p617
sg45
I00
sba(iwrapper_utilities.class_info
CppClassInfo
p618
(dp619
g4
Nsg5
(dp620
g7
g8
sg9
g10
sg11
g12
sg13
g14
sg15
g16
sg17
g18
sg19
g20
sS'*'
g21
sg22
g23
sg24
g23
sg25
g26
sg27
g23
ssg28
g580
sg30
I00
sg31
I00
sg32
Nsg33
g238
sg35
I01
sg36
I01
sg37
I00
sg38
Nsg39
Nsg40
Nsg41
Nsg42
I00
sg43
S'/home/grogan/Chaste/cell_based/src/cell/cycle/SimpleOxygenBasedCellCycleModel.hpp'
p621
sg45
I00
sba(iwrapper_utilities.class_info
CppClassInfo
p622
(dp623
g4
Nsg5
(dp624
g7
g8
sg9
g10
sg11
g12
sg13
g14
sg15
g16
sg17
g18
sg19
g20
sS'*'
g21
sg22
g23
sg24
g23
sg25
g26
sg27
g23
ssg28
g583
sg30
I00
sg31
I00
sg32
Nsg33
g238
sg35
I01
sg36
I01
sg37
I00
sg38
Nsg39
Nsg40
Nsg41
Nsg42
I00
sg43
S'/home/grogan/Chaste/cell_based/src/cell/cycle/UniformG1GenerationalCellCycleModel.hpp'
p625
sg45
I00
sba(iwrapper_utilities.class_info
CppClassInfo
p626
(dp627
g4
Nsg5
(dp628
g7
g8
sg9
g10
sg11
g12
sg13
g14
sg15
g16
sg17
g18
sg19
g20
sS'*'
g21
sg22
g23
sg24
g23
sg25
g26
sg27
g23
ssg28
g586
sg30
I00
sg31
I00
sg32
Nsg33
g238
sg35
I01
sg36
I01
sg37
I00
sg38
Nsg39
Nsg40
Nsg41
Nsg42
I00
sg43
S'/home/grogan/Chaste/cell_based/src/cell/cycle/NoCellCycleModel.hpp'
p629
sg45
I00
sba(iwrapper_utilities.class_info
CppClassInfo
p630
(dp631
g4
Nsg5
(dp632
g7
g8
sg9
g10
sg11
g12
sg13
g14
sg15
g16
sg17
g18
sg19
g20
sS'*'
g21
sg22
g23
sg24
g23
sg25
g26
sg27
g23
ssg28
S'AbstractCellProperty'
p633
sg30
I00
sg31
I00
sg32
Nsg33
g238
sg35
I01
sg36
I01
sg37
I00
sg38
Nsg39
Nsg40
(lp634
S'IsType'
p635
asg41
Nsg42
I01
sg43
S'/home/grogan/Chaste/cell_based/src/cell/properties/AbstractCellProperty.hpp'
p636
sg45
I00
sba(iwrapper_utilities.class_info
CppClassInfo
p637
(dp638
g4
Nsg5
(dp639
g7
g8
sg9
g10
sg11
g12
sg13
g14
sg15
g16
sg17
g18
sg19
g20
sS'*'
g21
sg22
g23
sg24
g23
sg25
g26
sg27
g23
ssg28
S'CellPropertyCollection'
p640
sg30
I00
sg31
I00
sg32
Nsg33
g238
sg35
I01
sg36
I01
sg37
I00
sg38
Nsg39
Nsg40
(lp641
S'GetCellPropertyRegistry'
p642
asg41
Nsg42
I00
sg43
S'/home/grogan/Chaste/cell_based/src/cell/properties/CellPropertyCollection.hpp'
p643
sg45
I00
sba(iwrapper_utilities.class_info
CppClassInfo
p644
(dp645
g4
Nsg5
(dp646
g7
g8
sg9
g10
sg11
g12
sg13
g14
sg15
g16
sg17
g18
sg19
g20
sS'*'
g21
sg22
g23
sg24
g23
sg25
g26
sg27
g23
ssg28
S'AbstractCellProliferativeType'
p647
sg30
I00
sg31
I00
sg32
Nsg33
g238
sg35
I01
sg36
I01
sg37
I00
sg38
Nsg39
Nsg40
Nsg41
Nsg42
I00
sg43
S'/home/grogan/Chaste/cell_based/src/cell/properties/proliferative_types/AbstractCellProliferativeType.hpp'
p648
sg45
I00
sba(iwrapper_utilities.class_info
CppClassInfo
p649
(dp650
g4
Nsg5
(dp651
g7
g8
sg9
g10
sg11
g12
sg13
g14
sg15
g16
sg17
g18
sg19
g20
sS'*'
g21
sg22
g23
sg24
g23
sg25
g26
sg27
g23
ssg28
S'StemCellProliferativeType'
p652
sg30
I00
sg31
I00
sg32
Nsg33
g238
sg35
I01
sg36
I01
sg37
I00
sg38
Nsg39
Nsg40
Nsg41
Nsg42
I00
sg43
S'/home/grogan/Chaste/cell_based/src/cell/properties/proliferative_types/StemCellProliferativeType.hpp'
p653
sg45
I00
sba(iwrapper_utilities.class_info
CppClassInfo
p654
(dp655
g4
Nsg5
(dp656
g7
g8
sg9
g10
sg11
g12
sg13
g14
sg15
g16
sg17
g18
sg19
g20
sS'*'
g21
sg22
g23
sg24
g23
sg25
g26
sg27
g23
ssg28
S'DefaultCellProliferativeType'
p657
sg30
I00
sg31
I00
sg32
Nsg33
g238
sg35
I01
sg36
I01
sg37
I00
sg38
Nsg39
Nsg40
Nsg41
Nsg42
I00
sg43
S'/home/grogan/Chaste/cell_based/src/cell/properties/proliferative_types/DefaultCellProliferativeType.hpp'
p658
sg45
I00
sba(iwrapper_utilities.class_info
CppClassInfo
p659
(dp660
g4
Nsg5
(dp661
g7
g8
sg9
g10
sg11
g12
sg13
g14
sg15
g16
sg17
g18
sg19
g20
sS'*'
g21
sg22
g23
sg24
g23
sg25
g26
sg27
g23
ssg28
S'TransitCellProliferativeType'
p662
sg30
I00
sg31
I00
sg32
Nsg33
g238
sg35
I01
sg36
I01
sg37
I00
sg38
Nsg39
Nsg40
Nsg41
Nsg42
I00
sg43
S'/home/grogan/Chaste/cell_based/src/cell/properties/proliferative_types/TransitCellProliferativeType.hpp'
p663
sg45
I00
sba(iwrapper_utilities.class_info
CppClassInfo
p664
(dp665
g4
Nsg5
(dp666
g7
g8
sg9
g10
sg11
g12
sg13
g14
sg15
g16
sg17
g18
sg19
g20
sS'*'
g21
sg22
g23
sg24
g23
sg25
g26
sg27
g23
ssg28
S'DifferentiatedCellProliferativeType'
p667
sg30
I00
sg31
I00
sg32
Nsg33
g238
sg35
I01
sg36
I01
sg37
I00
sg38
Nsg39
Nsg40
Nsg41
Nsg42
I00
sg43
S'/home/grogan/Chaste/cell_based/src/cell/properties/proliferative_types/DifferentiatedCellProliferativeType.hpp'
p668
sg45
I00
sba(iwrapper_utilities.class_info
CppClassInfo
p669
(dp670
g4
Nsg5
(dp671
g7
g8
sg9
g10
sg11
g12
sg13
g14
sg15
g16
sg17
g18
sg19
g20
sS'*'
g21
sg22
g23
sg24
g23
sg25
g26
sg27
g23
ssg28
S'AbstractCellMutationState'
p672
sg30
I00
sg31
I00
sg32
Nsg33
g238
sg35
I01
sg36
I01
sg37
I00
sg38
Nsg39
Nsg40
Nsg41
Nsg42
I00
sg43
S'/home/grogan/Chaste/cell_based/src/cell/properties/mutations/AbstractCellMutationState.hpp'
p673
sg45
I00
sba(iwrapper_utilities.class_info
CppClassInfo
p674
(dp675
g4
Nsg5
(dp676
g7
g8
sg9
g10
sg11
g12
sg13
g14
sg15
g16
sg17
g18
sg19
g20
sS'*'
g21
sg22
g23
sg24
g23
sg25
g26
sg27
g23
ssg28
S'ApcOneHitCellMutationState'
p677
sg30
I00
sg31
I00
sg32
Nsg33
g238
sg35
I01
sg36
I01
sg37
I00
sg38
Nsg39
Nsg40
Nsg41
Nsg42
I00
sg43
S'/home/grogan/Chaste/cell_based/src/cell/properties/mutations/ApcOneHitCellMutationState.hpp'
p678
sg45
I00
sba(iwrapper_utilities.class_info
CppClassInfo
p679
(dp680
g4
Nsg5
(dp681
g7
g8
sg9
g10
sg11
g12
sg13
g14
sg15
g16
sg17
g18
sg19
g20
sS'*'
g21
sg22
g23
sg24
g23
sg25
g26
sg27
g23
ssg28
S'ApcTwoHitCellMutationState'
p682
sg30
I00
sg31
I00
sg32
Nsg33
g238
sg35
I01
sg36
I01
sg37
I00
sg38
Nsg39
Nsg40
Nsg41
Nsg42
I00
sg43
S'/home/grogan/Chaste/cell_based/src/cell/properties/mutations/ApcTwoHitCellMutationState.hpp'
p683
sg45
I00
sba(iwrapper_utilities.class_info
CppClassInfo
p684
(dp685
g4
Nsg5
(dp686
g7
g8
sg9
g10
sg11
g12
sg13
g14
sg15
g16
sg17
g18
sg19
g20
sS'*'
g21
sg22
g23
sg24
g23
sg25
g26
sg27
g23
ssg28
S'BetaCateninOneHitCellMutationState'
p687
sg30
I00
sg31
I00
sg32
Nsg33
g238
sg35
I01
sg36
I01
sg37
I00
sg38
Nsg39
Nsg40
Nsg41
Nsg42
I00
sg43
S'/home/grogan/Chaste/cell_based/src/cell/properties/mutations/BetaCateninOneHitCellMutationState.hpp'
p688
sg45
I00
sba(iwrapper_utilities.class_info
CppClassInfo
p689
(dp690
g4
Nsg5
(dp691
g7
g8
sg9
g10
sg11
g12
sg13
g14
sg15
g16
sg17
g18
sg19
g20
sS'*'
g21
sg22
g23
sg24
g23
sg25
g26
sg27
g23
ssg28
S'WildTypeCellMutationState'
p692
sg30
I00
sg31
I00
sg32
Nsg33
g238
sg35
I01
sg36
I01
sg37
I00
sg38
Nsg39
Nsg40
Nsg41
Nsg42
I00
sg43
S'/home/grogan/Chaste/cell_based/src/cell/properties/mutations/WildTypeCellMutationState.hpp'
p693
sg45
I00
sba(iwrapper_utilities.class_info
CppClassInfo
p694
(dp695
g4
Nsg5
(dp696
g7
g8
sg9
g10
sg11
g12
sg13
g14
sg15
g16
sg17
g18
sg19
g20
sS'*'
g21
sg22
g23
sg24
g23
sg25
g26
sg27
g23
ssg28
S'ApoptoticCellProperty'
p697
sg30
I00
sg31
I00
sg32
Nsg33
g238
sg35
I01
sg36
I01
sg37
I00
sg38
Nsg39
Nsg40
Nsg41
Nsg42
I00
sg43
S'/home/grogan/Chaste/cell_based/src/cell/properties/ApoptoticCellProperty.hpp'
p698
sg45
I00
sba(iwrapper_utilities.class_info
CppClassInfo
p699
(dp700
g4
Nsg5
(dp701
g7
g8
sg9
g10
sg11
g12
sg13
g14
sg15
g16
sg17
g18
sg19
g20
sS'*'
g21
sg22
g23
sg24
g23
sg25
g26
sg27
g23
ssg28
S'CellData'
p702
sg30
I00
sg31
I00
sg32
Nsg33
g238
sg35
I01
sg36
I01
sg37
I00
sg38
Nsg39
Nsg40
Nsg41
Nsg42
I00
sg43
S'/home/grogan/Chaste/cell_based/src/cell/properties/CellData.hpp'
p703
sg45
I00
sba(iwrapper_utilities.class_info
CppClassInfo
p704
(dp705
g4
Nsg5
(dp706
g7
g8
sg9
g10
sg11
g12
sg13
g14
sg15
g16
sg17
g18
sg19
g20
sS'*'
g21
sg22
g23
sg24
g23
sg25
g26
sg27
g23
ssg28
S'CellLabel'
p707
sg30
I00
sg31
I00
sg32
Nsg33
g238
sg35
I01
sg36
I01
sg37
I00
sg38
Nsg39
Nsg40
Nsg41
Nsg42
I00
sg43
S'/home/grogan/Chaste/cell_based/src/cell/properties/CellLabel.hpp'
p708
sg45
I00
sba(iwrapper_utilities.class_info
CppClassInfo
p709
(dp710
g4
Nsg5
(dp711
g7
g8
sg9
g10
sg11
g12
sg13
g14
sg15
g16
sg17
g18
sg19
g20
sS'*'
g21
sg22
g23
sg24
g23
sg25
g26
sg27
g23
ssg28
S'CellAncestor'
p712
sg30
I00
sg31
I00
sg32
Nsg33
g238
sg35
I01
sg36
I01
sg37
I00
sg38
Nsg39
Nsg40
Nsg41
Nsg42
I00
sg43
S'/home/grogan/Chaste/cell_based/src/cell/properties/CellAncestor.hpp'
p713
sg45
I00
sba(iwrapper_utilities.class_info
CppClassInfo
p714
(dp715
g4
Nsg5
(dp716
g7
g8
sg9
g10
sg11
g12
sg13
g14
sg15
g16
sg17
g18
sg19
g20
sS'*'
g21
sg22
g23
sg24
g23
sg25
g26
sg27
g23
ssg28
S'CellId'
p717
sg30
I00
sg31
I00
sg32
Nsg33
g238
sg35
I01
sg36
I01
sg37
I00
sg38
Nsg39
Nsg40
Nsg41
Nsg42
I00
sg43
S'/home/grogan/Chaste/cell_based/src/cell/properties/CellId.hpp'
p718
sg45
I00
sba(iwrapper_utilities.class_info
CppClassInfo
p719
(dp720
g4
Nsg5
(dp721
g7
g8
sg9
g10
sg11
g12
sg13
g14
sg15
g16
sg17
g18
sg19
g20
sS'*'
g21
sg22
g23
sg24
g23
sg25
g26
sg27
g23
ssg28
S'CellPropertyRegistry'
p722
sg30
I00
sg31
I00
sg32
Nsg33
g238
sg35
I01
sg36
I01
sg37
I00
sg38
Nsg39
Nsg40
(lp723
S'rGetAllCellProperties'
p724
aS'TakeOwnership'
p725
aS'Get'
p726
asg41
Nsg42
I00
sg43
S'/home/grogan/Chaste/cell_based/src/cell/properties/CellPropertyRegistry.hpp'
p727
sg45
I00
sba(iwrapper_utilities.class_info
CppClassInfo
p728
(dp729
g4
Nsg5
(dp730
g7
g8
sg9
g10
sg11
g12
sg13
g14
sg15
g16
sg17
g18
sg19
g20
sS'*'
g21
sg22
g23
sg24
g23
sg25
g26
sg27
g23
ssg28
S'AbstractSrnModel'
p731
sg30
I00
sg31
I00
sg32
Nsg33
g238
sg35
I01
sg36
I01
sg37
I00
sg38
Nsg39
Nsg40
Nsg41
Nsg42
I00
sg43
S'/home/grogan/Chaste/cell_based/src/cell/srn/AbstractSrnModel.hpp'
p732
sg45
I00
sba(iwrapper_utilities.class_info
CppClassInfo
p733
(dp734
g4
(lp735
(lp736
S'CreateSrnModel'
p737
aS'reference_existing_object'
p738
aasg5
(dp739
g7
g8
sg9
g10
sg11
g12
sg13
g14
sg15
g16
sg17
g18
sg19
g20
sS'*'
g21
sg22
g23
sg24
g23
sg25
g26
sg27
g23
ssg28
S'NullSrnModel'
p740
sg30
I00
sg31
I00
sg32
Nsg33
g238
sg35
I01
sg36
I01
sg37
I00
sg38
Nsg39
Nsg40
Nsg41
Nsg42
I00
sg43
S'/home/grogan/Chaste/cell_based/src/cell/srn/NullSrnModel.hpp'
p741
sg45
I00
sba(iwrapper_utilities.class_info
CppClassInfo
p742
(dp743
g4
Nsg5
(dp744
g7
g8
sg9
g10
sg11
g12
sg13
g14
sg15
g16
sg17
g18
sg19
g20
sS'*'
g21
sg22
g23
sg24
g23
sg25
g26
sg27
g23
ssg28
S'AbstractTargetAreaModifier'
p745
sg30
I00
sg31
I00
sg32
Nsg33
g238
sg35
I01
sg36
I01
sg37
I00
sg38
Nsg39
g172
sg40
Nsg41
Nsg42
I00
sg43
S'/home/grogan/Chaste/cell_based/src/simulation/modifiers/AbstractTargetAreaModifier.hpp'
p746
sg45
I00
sba(iwrapper_utilities.class_info
CppClassInfo
p747
(dp748
g4
Nsg5
(dp749
g7
g8
sg9
g10
sg11
g12
sg13
g14
sg15
g16
sg17
g18
sg19
g20
sS'*'
g21
sg22
g23
sg24
g23
sg25
g26
sg27
g23
ssg28
S'SimpleTargetAreaModifier'
p750
sg30
I00
sg31
I00
sg32
Nsg33
g238
sg35
I01
sg36
I01
sg37
I00
sg38
Nsg39
g172
sg40
Nsg41
Nsg42
I00
sg43
S'/home/grogan/Chaste/cell_based/src/simulation/modifiers/SimpleTargetAreaModifier.hpp'
p751
sg45
I00
sba(iwrapper_utilities.class_info
CppClassInfo
p752
(dp753
g4
Nsg5
(dp754
g7
g8
sg9
g10
sg11
g12
sg13
g14
sg15
g16
sg17
g18
sg19
g20
sS'*'
g21
sg22
g23
sg24
g23
sg25
g26
sg27
g23
ssg28
S'VtkSceneModifier'
p755
sg30
I00
sg31
I00
sg32
Nsg33
g238
sg35
I01
sg36
I01
sg37
I00
sg38
Nsg39
g172
sg40
Nsg41
Nsg42
I00
sg43
S'/home/grogan/Chaste/projects/PyChaste/src/cell_based/VtkSceneModifier.hpp'
p756
sg45
I00
sba(iwrapper_utilities.class_info
CppClassInfo
p757
(dp758
g4
Nsg5
(dp759
g7
g8
sg9
g10
sg11
g12
sg13
g14
sg15
g16
sg17
g18
sg19
g20
sS'*'
g21
sg22
g23
sg24
g23
sg25
g26
sg27
g23
ssg28
S'AbstractCellBasedSimulationModifier'
p760
sg30
I00
sg31
I00
sg32
Nsg33
g238
sg35
I01
sg36
I01
sg37
I00
sg38
Nsg39
g215
sg40
Nsg41
Nsg42
I00
sg43
S'/home/grogan/Chaste/cell_based/src/simulation/modifiers/AbstractCellBasedSimulationModifier.hpp'
p761
sg45
I00
sba(iwrapper_utilities.class_info
CppClassInfo
p762
(dp763
g4
Nsg5
(dp764
g7
g8
sg9
g10
sg11
g12
sg13
g14
sg15
g16
sg17
g18
sg19
g20
sS'*'
g21
sg22
g23
sg24
g23
sg25
g26
sg27
g23
ssg28
S'Hello'
p765
sg30
I00
sg31
I00
sg32
Nsg33
S'tutorial'
p766
sg35
I01
sg36
I01
sg37
I00
sg38
Nsg39
Nsg40
Nsg41
Nsg42
I00
sg43
S'/home/grogan/Chaste/projects/PyChaste/src/tutorial/Hello.hpp'
p767
sg45
I00
sba(iwrapper_utilities.class_info
CppClassInfo
p768
(dp769
g4
Nsg5
(dp770
g7
g8
sg9
g10
sg11
g12
sg13
g14
sg15
g16
sg17
g18
sg19
g20
sS'*'
g21
sg22
g23
sg24
g23
sg25
g26
sg27
g23
ssg28
S'VtkScene'
p771
sg30
I00
sg31
I00
sg32
Nsg33
S'visualization'
p772
sg35
I01
sg36
I01
sg37
I00
sg38
Nsg39
g172
sg40
Nsg41
Nsg42
I00
sg43
S'/home/grogan/Chaste/projects/PyChaste/src/visualization/VtkScene.hpp'
p773
sg45
I00
sba(iwrapper_utilities.class_info
CppClassInfo
p774
(dp775
g4
Nsg5
(dp776
g7
g8
sg9
g10
sg11
g12
sg13
g14
sg15
g16
sg17
g18
sg19
g20
sS'*'
g21
sg22
g23
sg24
g23
sg25
g26
sg27
g23
ssg28
S'AbstractPyChasteActorGenerator'
p777
sg30
I00
sg31
I00
sg32
Nsg33
g772
sg35
I01
sg36
I01
sg37
I00
sg38
Nsg39
g172
sg40
Nsg41
Nsg42
I00
sg43
S'/home/grogan/Chaste/projects/PyChaste/src/visualization/AbstractPyChasteActorGenerator.hpp'
p778
sg45
I00
sba(iwrapper_utilities.class_info
CppClassInfo
p779
(dp780
g4
Nsg5
(dp781
g7
g8
sg9
g10
sg11
g12
sg13
g14
sg15
g16
sg17
g18
sg19
g20
sS'*'
g21
sg22
g23
sg24
g23
sg25
g26
sg27
g23
ssg28
S'CellPopulationPyChasteActorGenerator'
p782
sg30
I00
sg31
I00
sg32
Nsg33
g772
sg35
I01
sg36
I01
sg37
I00
sg38
Nsg39
g172
sg40
Nsg41
Nsg42
I00
sg43
S'/home/grogan/Chaste/projects/PyChaste/src/visualization/CellPopulationPyChasteActorGenerator.hpp'
p783
sg45
I00
sba.