(lp1
(iwrapper_utilities.class_info
CppClassInfo
p2
(dp3
S'pointer_return_methods'
p4
NsS'constructor_arg_type_excludes'
p5
(lp6
sS'name'
p7
S'Identifiable'
p8
sS'include_ptr_self'
p9
I00
sS'include_raw_ptr_self'
p10
I00
sS'declaration_code'
p11
NsS'component'
p12
S'core'
p13
sS'needs_include_file'
p14
I01
sS'needs_instantiation'
p15
I01
sS'skip_wrapping'
p16
I00
sS'excluded_variables'
p17
NsS'template_args'
p18
NsS'excluded_methods'
p19
NsS'name_replacements'
p20
(dp21
S'std::string'
p22
S'String'
p23
sS'c_vector'
p24
S'CVector'
p25
sS'std::set'
p26
S'Set'
p27
sS'std::pair'
p28
S'Pair'
p29
sS'std::map'
p30
S'Map'
p31
sS'boost::shared_ptr'
p32
S'SharedPtr'
p33
sS'std::vector'
p34
S'Vector'
p35
sS'*'
S'Ptr'
p36
sS'unsigned'
p37
S'Unsigned'
p38
sS'unsigned int'
p39
g38
sS'double'
p40
S'Double'
p41
sS'Unsigned int'
p42
g38
ssS'name_override'
p43
NsS'include_vec_ptr_self'
p44
I00
sS'full_path'
p45
S'/home/grogan/Chaste/global/src/checkpointing/Identifiable.hpp'
p46
sS'include_file_only'
p47
I00
sba(iwrapper_utilities.class_info
CppClassInfo
p48
(dp49
g4
Nsg5
(lp50
sg7
S'PetscTools'
p51
sg9
I00
sg10
I00
sg11
Nsg12
g13
sg14
I01
sg15
I01
sg16
I00
sg17
(lp52
S'MASTER_RANK'
p53
asg18
Nsg19
(lp54
S'GetWorld'
p55
asg20
(dp56
g22
g23
sg24
g25
sg26
g27
sg28
g29
sg30
g31
sg32
g33
sg34
g35
sS'*'
g36
sg37
g38
sg39
g38
sg40
g41
sg42
g38
ssg43
Nsg44
I00
sg45
S'/home/grogan/Chaste/global/src/parallel/PetscTools.hpp'
p57
sg47
I00
sba(iwrapper_utilities.class_info
CppClassInfo
p58
(dp59
g4
Nsg5
(lp60
sg7
S'ReplicatableVector'
p61
sg9
I00
sg10
I00
sg11
Nsg12
g13
sg14
I01
sg15
I01
sg16
I00
sg17
Nsg18
Nsg19
Nsg20
(dp62
g22
g23
sg24
g25
sg26
g27
sg28
g29
sg30
g31
sg32
g33
sg34
g35
sS'*'
g36
sg37
g38
sg39
g38
sg40
g41
sg42
g38
ssg43
Nsg44
I00
sg45
S'/home/grogan/Chaste/global/src/parallel/ReplicatableVector.hpp'
p63
sg47
I00
sba(iwrapper_utilities.class_info
CppClassInfo
p64
(dp65
g4
Nsg5
(lp66
sg7
S'Timer'
p67
sg9
I00
sg10
I00
sg11
Nsg12
g13
sg14
I01
sg15
I01
sg16
I00
sg17
Nsg18
Nsg19
Nsg20
(dp68
g22
g23
sg24
g25
sg26
g27
sg28
g29
sg30
g31
sg32
g33
sg34
g35
sS'*'
g36
sg37
g38
sg39
g38
sg40
g41
sg42
g38
ssg43
Nsg44
I00
sg45
S'/home/grogan/Chaste/global/src/timing/Timer.hpp'
p69
sg47
I00
sba(iwrapper_utilities.class_info
CppClassInfo
p70
(dp71
g4
Nsg5
(lp72
sg7
S'BoostFilesystem'
p73
sg9
I00
sg10
I00
sg11
Nsg12
g13
sg14
I01
sg15
I01
sg16
I00
sg17
Nsg18
Nsg19
Nsg20
(dp74
g22
g23
sg24
g25
sg26
g27
sg28
g29
sg30
g31
sg32
g33
sg34
g35
sS'*'
g36
sg37
g38
sg39
g38
sg40
g41
sg42
g38
ssg43
Nsg44
I00
sg45
S'/home/grogan/Chaste/global/src/BoostFilesystem.hpp'
p75
sg47
I00
sba(iwrapper_utilities.class_info
CppClassInfo
p76
(dp77
g4
Nsg5
(lp78
sg7
S'RelativeTo'
p79
sg9
I00
sg10
I00
sg11
Nsg12
g13
sg14
I01
sg15
I01
sg16
I00
sg17
Nsg18
Nsg19
Nsg20
(dp80
g22
g23
sg24
g25
sg26
g27
sg28
g29
sg30
g31
sg32
g33
sg34
g35
sS'*'
g36
sg37
g38
sg39
g38
sg40
g41
sg42
g38
ssg43
Nsg44
I00
sg45
Nsg47
I00
sba(iwrapper_utilities.class_info
CppClassInfo
p81
(dp82
g4
Nsg5
(lp83
sg7
S'FileFinder'
p84
sg9
I00
sg10
I00
sg11
Nsg12
g13
sg14
I01
sg15
I01
sg16
I00
sg17
Nsg18
Nsg19
Nsg20
(dp85
g22
g23
sg24
g25
sg26
g27
sg28
g29
sg30
g31
sg32
g33
sg34
g35
sS'*'
g36
sg37
g38
sg39
g38
sg40
g41
sg42
g38
ssg43
Nsg44
I00
sg45
S'/home/grogan/Chaste/global/src/FileFinder.hpp'
p86
sg47
I00
sba(iwrapper_utilities.class_info
CppClassInfo
p87
(dp88
g4
Nsg5
(lp89
sg7
S'OutputFileHandler'
p90
sg9
I00
sg10
I00
sg11
Nsg12
g13
sg14
I01
sg15
I01
sg16
I00
sg17
Nsg18
Nsg19
(lp91
S'OpenOutputFile'
p92
asg20
(dp93
g22
g23
sg24
g25
sg26
g27
sg28
g29
sg30
g31
sg32
g33
sg34
g35
sS'*'
g36
sg37
g38
sg39
g38
sg40
g41
sg42
g38
ssg43
Nsg44
I00
sg45
S'/home/grogan/Chaste/global/src/OutputFileHandler.hpp'
p94
sg47
I00
sba(iwrapper_utilities.class_info
CppClassInfo
p95
(dp96
g4
Nsg5
(lp97
sg7
S'ProgressReporter'
p98
sg9
I00
sg10
I00
sg11
Nsg12
g13
sg14
I01
sg15
I01
sg16
I00
sg17
Nsg18
Nsg19
Nsg20
(dp99
g22
g23
sg24
g25
sg26
g27
sg28
g29
sg30
g31
sg32
g33
sg34
g35
sS'*'
g36
sg37
g38
sg39
g38
sg40
g41
sg42
g38
ssg43
Nsg44
I00
sg45
S'/home/grogan/Chaste/global/src/ProgressReporter.hpp'
p100
sg47
I00
sba(iwrapper_utilities.class_info
CppClassInfo
p101
(dp102
g4
Nsg5
(lp103
sg7
S'RandomNumberGenerator'
p104
sg9
I00
sg10
I00
sg11
Nsg12
g13
sg14
I01
sg15
I01
sg16
I00
sg17
Nsg18
Nsg19
Nsg20
(dp105
g22
g23
sg24
g25
sg26
g27
sg28
g29
sg30
g31
sg32
g33
sg34
g35
sS'*'
g36
sg37
g38
sg39
g38
sg40
g41
sg42
g38
ssg43
Nsg44
I00
sg45
S'/home/grogan/Chaste/global/src/RandomNumberGenerator.hpp'
p106
sg47
I00
sba(iwrapper_utilities.class_info
CppClassInfo
p107
(dp108
g4
Nsg5
(lp109
sg7
S'SmartPointers'
p110
sg9
I00
sg10
I00
sg11
Nsg12
g13
sg14
I01
sg15
I01
sg16
I00
sg17
Nsg18
Nsg19
Nsg20
(dp111
g22
g23
sg24
g25
sg26
g27
sg28
g29
sg30
g31
sg32
g33
sg34
g35
sS'*'
g36
sg37
g38
sg39
g38
sg40
g41
sg42
g38
ssg43
Nsg44
I00
sg45
S'/home/grogan/Chaste/global/src/SmartPointers.hpp'
p112
sg47
I00
sba(iwrapper_utilities.class_info
CppClassInfo
p113
(dp114
g4
Nsg5
(lp115
sg7
S'TimeStepper'
p116
sg9
I00
sg10
I00
sg11
Nsg12
g13
sg14
I01
sg15
I01
sg16
I00
sg17
Nsg18
Nsg19
Nsg20
(dp117
g22
g23
sg24
g25
sg26
g27
sg28
g29
sg30
g31
sg32
g33
sg34
g35
sS'*'
g36
sg37
g38
sg39
g38
sg40
g41
sg42
g38
ssg43
Nsg44
I00
sg45
S'/home/grogan/Chaste/global/src/TimeStepper.hpp'
p118
sg47
I00
sba(iwrapper_utilities.class_info
CppClassInfo
p119
(dp120
g4
Nsg5
(lp121
sg7
S'Version'
p122
sg9
I00
sg10
I00
sg11
Nsg12
g13
sg14
I01
sg15
I01
sg16
I00
sg17
Nsg18
Nsg19
Nsg20
(dp123
g22
g23
sg24
g25
sg26
g27
sg28
g29
sg30
g31
sg32
g33
sg34
g35
sS'*'
g36
sg37
g38
sg39
g38
sg40
g41
sg42
g38
ssg43
Nsg44
I00
sg45
S'/home/grogan/Chaste/global/src/Version.hpp'
p124
sg47
I00
sba(iwrapper_utilities.class_info
CppClassInfo
p125
(dp126
g4
Nsg5
(lp127
sg7
S'UblasIncludes'
p128
sg9
I00
sg10
I00
sg11
Nsg12
g13
sg14
I01
sg15
I01
sg16
I00
sg17
Nsg18
Nsg19
Nsg20
(dp129
g22
g23
sg24
g25
sg26
g27
sg28
g29
sg30
g31
sg32
g33
sg34
g35
sS'*'
g36
sg37
g38
sg39
g38
sg40
g41
sg42
g38
ssg43
Nsg44
I00
sg45
S'/home/grogan/Chaste/linalg/src/UblasIncludes.hpp'
p130
sg47
I00
sba(iwrapper_utilities.class_info
CppClassInfo
p131
(dp132
g4
Nsg5
(lp133
sg7
S'AbstractOdeSystemInformation'
p134
sg9
I00
sg10
I00
sg11
Nsg12
S'ode'
p135
sg14
I01
sg15
I01
sg16
I00
sg17
Nsg18
Nsg19
Nsg20
(dp136
g22
g23
sg24
g25
sg26
g27
sg28
g29
sg30
g31
sg32
g33
sg34
g35
sS'*'
g36
sg37
g38
sg39
g38
sg40
g41
sg42
g38
ssg43
Nsg44
I00
sg45
S'/home/grogan/Chaste/ode/src/common/AbstractOdeSystemInformation.hpp'
p137
sg47
I00
sba(iwrapper_utilities.class_info
CppClassInfo
p138
(dp139
g4
Nsg5
(lp140
sg7
S'AbstractPythonOdeSystemInformation'
p141
sg9
I00
sg10
I00
sg11
Nsg12
g135
sg14
I01
sg15
I01
sg16
I00
sg17
Nsg18
Nsg19
Nsg20
(dp142
g22
g23
sg24
g25
sg26
g27
sg28
g29
sg30
g31
sg32
g33
sg34
g35
sS'*'
g36
sg37
g38
sg39
g38
sg40
g41
sg42
g38
ssg43
Nsg44
I00
sg45
S'/home/grogan/Chaste/projects/PyChaste/src/ode/AbstractPythonOdeSystemInformation.hpp'
p143
sg47
I00
sba(iwrapper_utilities.class_info
CppClassInfo
p144
(dp145
g4
Nsg5
(lp146
sg7
S'AbstractOdeSystem'
p147
sg9
I00
sg10
I00
sg11
Nsg12
g135
sg14
I01
sg15
I01
sg16
I00
sg17
Nsg18
Nsg19
Nsg20
(dp148
g22
g23
sg24
g25
sg26
g27
sg28
g29
sg30
g31
sg32
g33
sg34
g35
sS'*'
g36
sg37
g38
sg39
g38
sg40
g41
sg42
g38
ssg43
Nsg44
I00
sg45
S'/home/grogan/Chaste/ode/src/common/AbstractOdeSystem.hpp'
p149
sg47
I00
sba(iwrapper_utilities.class_info
CppClassInfo
p150
(dp151
g4
Nsg5
(lp152
sg7
S'AbstractLinearPde'
p153
sg9
I00
sg10
I00
sg11
Nsg12
Nsg14
I01
sg15
I01
sg16
I00
sg17
Nsg18
Nsg19
Nsg20
(dp154
g22
g23
sg24
g25
sg26
g27
sg28
g29
sg30
g31
sg32
g33
sg34
g35
sS'*'
g36
sg37
g38
sg39
g38
sg40
g41
sg42
g38
ssg43
Nsg44
I00
sg45
Nsg47
I00
sba(iwrapper_utilities.class_info
CppClassInfo
p155
(dp156
g4
Nsg5
(lp157
sg7
S'AbstractLinearParabolicPde'
p158
sg9
I00
sg10
I00
sg11
Nsg12
Nsg14
I01
sg15
I01
sg16
I00
sg17
Nsg18
Nsg19
Nsg20
(dp159
g22
g23
sg24
g25
sg26
g27
sg28
g29
sg30
g31
sg32
g33
sg34
g35
sS'*'
g36
sg37
g38
sg39
g38
sg40
g41
sg42
g38
ssg43
Nsg44
I00
sg45
Nsg47
I00
sba(iwrapper_utilities.class_info
CppClassInfo
p160
(dp161
g4
Nsg5
(lp162
sg7
S'AbstractLinearEllipticPde'
p163
sg9
I00
sg10
I00
sg11
Nsg12
Nsg14
I01
sg15
I01
sg16
I00
sg17
Nsg18
Nsg19
Nsg20
(dp164
g22
g23
sg24
g25
sg26
g27
sg28
g29
sg30
g31
sg32
g33
sg34
g35
sS'*'
g36
sg37
g38
sg39
g38
sg40
g41
sg42
g38
ssg43
Nsg44
I00
sg45
Nsg47
I00
sba(iwrapper_utilities.class_info
CppClassInfo
p165
(dp166
g4
Nsg5
(lp167
sg7
S'AbstractNonlinearEllipticPde'
p168
sg9
I00
sg10
I00
sg11
Nsg12
S'pde'
p169
sg14
I01
sg15
I01
sg16
I00
sg17
Nsg18
(lp170
(lp171
I2
aa(lp172
I3
aasg19
Nsg20
(dp173
g22
g23
sg24
g25
sg26
g27
sg28
g29
sg30
g31
sg32
g33
sg34
g35
sS'*'
g36
sg37
g38
sg39
g38
sg40
g41
sg42
g38
ssg43
Nsg44
I00
sg45
S'/home/grogan/Chaste/pde/src/problem/AbstractNonlinearEllipticPde.hpp'
p174
sg47
I00
sba(iwrapper_utilities.class_info
CppClassInfo
p175
(dp176
g4
Nsg5
(lp177
sg7
S'AbstractBoundaryCondition'
p178
sg9
I00
sg10
I00
sg11
Nsg12
g169
sg14
I01
sg15
I01
sg16
I00
sg17
Nsg18
g170
sg19
Nsg20
(dp179
g22
g23
sg24
g25
sg26
g27
sg28
g29
sg30
g31
sg32
g33
sg34
g35
sS'*'
g36
sg37
g38
sg39
g38
sg40
g41
sg42
g38
ssg43
Nsg44
I00
sg45
S'/home/grogan/Chaste/pde/src/common/AbstractBoundaryCondition.hpp'
p180
sg47
I00
sba(iwrapper_utilities.class_info
CppClassInfo
p181
(dp182
g4
Nsg5
(lp183
sg7
S'ConstBoundaryCondition'
p184
sg9
I00
sg10
I00
sg11
Nsg12
g169
sg14
I01
sg15
I01
sg16
I00
sg17
Nsg18
g170
sg19
Nsg20
(dp185
g22
g23
sg24
g25
sg26
g27
sg28
g29
sg30
g31
sg32
g33
sg34
g35
sS'*'
g36
sg37
g38
sg39
g38
sg40
g41
sg42
g38
ssg43
Nsg44
I00
sg45
S'/home/grogan/Chaste/pde/src/common/ConstBoundaryCondition.hpp'
p186
sg47
I00
sba(iwrapper_utilities.class_info
CppClassInfo
p187
(dp188
g4
Nsg5
(lp189
sg7
S'PdeSimulationTime'
p190
sg9
I00
sg10
I00
sg11
Nsg12
g169
sg14
I01
sg15
I01
sg16
I00
sg17
Nsg18
Nsg19
Nsg20
(dp191
g22
g23
sg24
g25
sg26
g27
sg28
g29
sg30
g31
sg32
g33
sg34
g35
sS'*'
g36
sg37
g38
sg39
g38
sg40
g41
sg42
g38
ssg43
Nsg44
I00
sg45
S'/home/grogan/Chaste/pde/src/common/PdeSimulationTime.hpp'
p192
sg47
I00
sba(iwrapper_utilities.class_info
CppClassInfo
p193
(dp194
g4
Nsg5
(lp195
sg7
S'ChastePoint'
p196
sg9
I00
sg10
I00
sg11
Nsg12
S'mesh'
p197
sg14
I01
sg15
I01
sg16
I00
sg17
Nsg18
g170
sg19
Nsg20
(dp198
g22
g23
sg24
g25
sg26
g27
sg28
g29
sg30
g31
sg32
g33
sg34
g35
sS'*'
g36
sg37
g38
sg39
g38
sg40
g41
sg42
g38
ssg43
Nsg44
I00
sg45
S'/home/grogan/Chaste/mesh/src/common/ChastePoint.hpp'
p199
sg47
I00
sba(iwrapper_utilities.class_info
CppClassInfo
p200
(dp201
g4
Nsg5
(lp202
sg7
S'NodeAttributes'
p203
sg9
I00
sg10
I00
sg11
Nsg12
g197
sg14
I01
sg15
I01
sg16
I00
sg17
Nsg18
g170
sg19
Nsg20
(dp204
g22
g23
sg24
g25
sg26
g27
sg28
g29
sg30
g31
sg32
g33
sg34
g35
sS'*'
g36
sg37
g38
sg39
g38
sg40
g41
sg42
g38
ssg43
Nsg44
I00
sg45
S'/home/grogan/Chaste/mesh/src/common/NodeAttributes.hpp'
p205
sg47
I00
sba(iwrapper_utilities.class_info
CppClassInfo
p206
(dp207
g4
Nsg5
(lp208
sg7
S'Node'
p209
sg9
I00
sg10
I00
sg11
Nsg12
g197
sg14
I01
sg15
I01
sg16
I00
sg17
Nsg18
g170
sg19
Nsg20
(dp210
g22
g23
sg24
g25
sg26
g27
sg28
g29
sg30
g31
sg32
g33
sg34
g35
sS'*'
g36
sg37
g38
sg39
g38
sg40
g41
sg42
g38
ssg43
Nsg44
I00
sg45
S'/home/grogan/Chaste/mesh/src/common/Node.hpp'
p211
sg47
I00
sba(iwrapper_utilities.class_info
CppClassInfo
p212
(dp213
g4
Nsg5
(lp214
sg7
S'Element'
p215
sg9
I00
sg10
I00
sg11
Nsg12
g197
sg14
I01
sg15
I01
sg16
I00
sg17
Nsg18
(lp216
(lp217
I2
aI2
aa(lp218
I3
aI3
aasg19
(lp219
S'CalculateCircumsphereVolume'
p220
asg20
(dp221
g22
g23
sg24
g25
sg26
g27
sg28
g29
sg30
g31
sg32
g33
sg34
g35
sS'*'
g36
sg37
g38
sg39
g38
sg40
g41
sg42
g38
ssg43
Nsg44
I00
sg45
S'/home/grogan/Chaste/mesh/src/common/Element.hpp'
p222
sg47
I00
sba(iwrapper_utilities.class_info
CppClassInfo
p223
(dp224
g4
Nsg5
(lp225
sg7
S'NodesOnlyMesh'
p226
sg9
I00
sg10
I00
sg11
Nsg12
g197
sg14
I01
sg15
I01
sg16
I00
sg17
Nsg18
g170
sg19
Nsg20
(dp227
g22
g23
sg24
g25
sg26
g27
sg28
g29
sg30
g31
sg32
g33
sg34
g35
sS'*'
g36
sg37
g38
sg39
g38
sg40
g41
sg42
g38
ssg43
Nsg44
I00
sg45
S'/home/grogan/Chaste/mesh/src/common/NodesOnlyMesh.hpp'
p228
sg47
I00
sba(iwrapper_utilities.class_info
CppClassInfo
p229
(dp230
g4
Nsg5
(lp231
sg7
S'MutableMesh'
p232
sg9
I00
sg10
I00
sg11
Nsg12
g197
sg14
I01
sg15
I01
sg16
I00
sg17
Nsg18
g216
sg19
(lp233
S'SplitLongEdges'
p234
aS'RescaleMeshFromBoundaryNode'
p235
asg20
(dp236
g22
g23
sg24
g25
sg26
g27
sg28
g29
sg30
g31
sg32
g33
sg34
g35
sS'*'
g36
sg37
g38
sg39
g38
sg40
g41
sg42
g38
ssg43
Nsg44
I00
sg45
S'/home/grogan/Chaste/mesh/src/common/MutableMesh.hpp'
p237
sg47
I00
sba(iwrapper_utilities.class_info
CppClassInfo
p238
(dp239
g4
Nsg5
(lp240
sg7
S'PottsMesh'
p241
sg9
I00
sg10
I00
sg11
Nsg12
S'cell_based'
p242
sg14
I01
sg15
I01
sg16
I00
sg17
Nsg18
g170
sg19
Nsg20
(dp243
g22
g23
sg24
g25
sg26
g27
sg28
g29
sg30
g31
sg32
g33
sg34
g35
sS'*'
g36
sg37
g38
sg39
g38
sg40
g41
sg42
g38
ssg43
Nsg44
I00
sg45
S'/home/grogan/Chaste/cell_based/src/mesh/PottsMesh.hpp'
p244
sg47
I00
sba(iwrapper_utilities.class_info
CppClassInfo
p245
(dp246
g4
Nsg5
(lp247
sg7
S'SharedPottsMeshGenerator'
p248
sg9
I00
sg10
I00
sg11
Nsg12
g197
sg14
I01
sg15
I01
sg16
I00
sg17
Nsg18
g170
sg19
Nsg20
(dp249
g22
g23
sg24
g25
sg26
g27
sg28
g29
sg30
g31
sg32
g33
sg34
g35
sS'*'
g36
sg37
g38
sg39
g38
sg40
g41
sg42
g38
ssg43
S'PottsMeshGenerator'
p250
sg44
I00
sg45
S'/home/grogan/Chaste/projects/PyChaste/src/mesh/SharedPottsMeshGenerator.hpp'
p251
sg47
I00
sba(iwrapper_utilities.class_info
CppClassInfo
p252
(dp253
g4
Nsg5
(lp254
sg7
S'PottsElement'
p255
sg9
I00
sg10
I00
sg11
Nsg12
g242
sg14
I01
sg15
I01
sg16
I00
sg17
Nsg18
g170
sg19
Nsg20
(dp256
g22
g23
sg24
g25
sg26
g27
sg28
g29
sg30
g31
sg32
g33
sg34
g35
sS'*'
g36
sg37
g38
sg39
g38
sg40
g41
sg42
g38
ssg43
Nsg44
I00
sg45
S'/home/grogan/Chaste/cell_based/src/mesh/PottsElement.hpp'
p257
sg47
I00
sba(iwrapper_utilities.class_info
CppClassInfo
p258
(dp259
g4
Nsg5
(lp260
sg7
S'TetrahedralMesh'
p261
sg9
I00
sg10
I00
sg11
Nsg12
g197
sg14
I01
sg15
I01
sg16
I00
sg17
Nsg18
g216
sg19
(lp262
S'FreeTriangulateIo'
p263
aS'InitialiseTriangulateIo'
p264
asg20
(dp265
g22
g23
sg24
g25
sg26
g27
sg28
g29
sg30
g31
sg32
g33
sg34
g35
sS'*'
g36
sg37
g38
sg39
g38
sg40
g41
sg42
g38
ssg43
Nsg44
I00
sg45
S'/home/grogan/Chaste/mesh/src/common/TetrahedralMesh.hpp'
p266
sg47
I00
sba(iwrapper_utilities.class_info
CppClassInfo
p267
(dp268
g4
Nsg5
(lp269
sg7
S'AbstractTetrahedralMesh'
p270
sg9
I00
sg10
I00
sg11
Nsg12
g197
sg14
I01
sg15
I01
sg16
I00
sg17
Nsg18
g216
sg19
Nsg20
(dp271
g22
g23
sg24
g25
sg26
g27
sg28
g29
sg30
g31
sg32
g33
sg34
g35
sS'*'
g36
sg37
g38
sg39
g38
sg40
g41
sg42
g38
ssg43
Nsg44
I00
sg45
S'/home/grogan/Chaste/mesh/src/common/AbstractTetrahedralMesh.hpp'
p272
sg47
I00
sba(iwrapper_utilities.class_info
CppClassInfo
p273
(dp274
g4
Nsg5
(lp275
sg7
S'AbstractMesh'
p276
sg9
I00
sg10
I00
sg11
Nsg12
g197
sg14
I01
sg15
I01
sg16
I00
sg17
Nsg18
g216
sg19
Nsg20
(dp277
g22
g23
sg24
g25
sg26
g27
sg28
g29
sg30
g31
sg32
g33
sg34
g35
sS'*'
g36
sg37
g38
sg39
g38
sg40
g41
sg42
g38
ssg43
Nsg44
I00
sg45
S'/home/grogan/Chaste/mesh/src/common/AbstractMesh.hpp'
p278
sg47
I00
sba(iwrapper_utilities.class_info
CppClassInfo
p279
(dp280
g4
Nsg5
(lp281
S'TetrahedralMesh<3, 3>'
p282
aS'TetrahedralMesh<2, 2>'
p283
asg7
S'VertexMesh'
p284
sg9
I00
sg10
I00
sg11
Nsg12
g197
sg14
I01
sg15
I01
sg16
I00
sg17
Nsg18
g216
sg19
(lp285
S'GetFace'
p286
asg20
(dp287
g22
g23
sg24
g25
sg26
g27
sg28
g29
sg30
g31
sg32
g33
sg34
g35
sS'*'
g36
sg37
g38
sg39
g38
sg40
g41
sg42
g38
ssg43
Nsg44
I00
sg45
S'/home/grogan/Chaste/mesh/src/vertex/VertexMesh.hpp'
p288
sg47
I00
sba(iwrapper_utilities.class_info
CppClassInfo
p289
(dp290
g4
Nsg5
(lp291
sg7
S'MutableVertexMesh'
p292
sg9
I00
sg10
I00
sg11
Nsg12
g197
sg14
I01
sg15
I01
sg16
I00
sg17
Nsg18
g216
sg19
Nsg20
(dp293
g22
g23
sg24
g25
sg26
g27
sg28
g29
sg30
g31
sg32
g33
sg34
g35
sS'*'
g36
sg37
g38
sg39
g38
sg40
g41
sg42
g38
ssg43
Nsg44
I00
sg45
S'/home/grogan/Chaste/mesh/src/vertex/MutableVertexMesh.hpp'
p294
sg47
I00
sba(iwrapper_utilities.class_info
CppClassInfo
p295
(dp296
g4
Nsg5
(lp297
sg7
S'Cylindrical2dVertexMesh'
p298
sg9
I00
sg10
I00
sg11
Nsg12
g197
sg14
I01
sg15
I01
sg16
I00
sg17
Nsg18
Nsg19
Nsg20
(dp299
g22
g23
sg24
g25
sg26
g27
sg28
g29
sg30
g31
sg32
g33
sg34
g35
sS'*'
g36
sg37
g38
sg39
g38
sg40
g41
sg42
g38
ssg43
Nsg44
I00
sg45
S'/home/grogan/Chaste/mesh/src/vertex/Cylindrical2dVertexMesh.hpp'
p300
sg47
I00
sba(iwrapper_utilities.class_info
CppClassInfo
p301
(dp302
g4
Nsg5
(lp303
sg7
S'SharedHoneycombMeshGenerator'
p304
sg9
I00
sg10
I00
sg11
Nsg12
g197
sg14
I01
sg15
I01
sg16
I00
sg17
Nsg18
Nsg19
Nsg20
(dp305
g22
g23
sg24
g25
sg26
g27
sg28
g29
sg30
g31
sg32
g33
sg34
g35
sS'*'
g36
sg37
g38
sg39
g38
sg40
g41
sg42
g38
ssg43
S'HoneycombMeshGenerator'
p306
sg44
I00
sg45
S'/home/grogan/Chaste/projects/PyChaste/src/mesh/SharedHoneycombMeshGenerator.hpp'
p307
sg47
I00
sba(iwrapper_utilities.class_info
CppClassInfo
p308
(dp309
g4
Nsg5
(lp310
sg7
S'SharedHoneycombVertexMeshGenerator'
p311
sg9
I00
sg10
I00
sg11
Nsg12
g197
sg14
I01
sg15
I01
sg16
I00
sg17
Nsg18
Nsg19
Nsg20
(dp312
g22
g23
sg24
g25
sg26
g27
sg28
g29
sg30
g31
sg32
g33
sg34
g35
sS'*'
g36
sg37
g38
sg39
g38
sg40
g41
sg42
g38
ssg43
S'HoneycombVertexMeshGenerator'
p313
sg44
I00
sg45
S'/home/grogan/Chaste/projects/PyChaste/src/mesh/SharedHoneycombVertexMeshGenerator.hpp'
p314
sg47
I00
sba(iwrapper_utilities.class_info
CppClassInfo
p315
(dp316
g4
Nsg5
(lp317
sg7
S'SharedCylindricalHoneycombVertexMeshGenerator'
p318
sg9
I00
sg10
I00
sg11
Nsg12
g197
sg14
I01
sg15
I01
sg16
I00
sg17
Nsg18
Nsg19
Nsg20
(dp319
g22
g23
sg24
g25
sg26
g27
sg28
g29
sg30
g31
sg32
g33
sg34
g35
sS'*'
g36
sg37
g38
sg39
g38
sg40
g41
sg42
g38
ssg43
S'CylindricalHoneycombVertexMeshGenerator'
p320
sg44
I00
sg45
S'/home/grogan/Chaste/projects/PyChaste/src/mesh/SharedCylindricalHoneycombVertexMeshGenerator.hpp'
p321
sg47
I00
sba(iwrapper_utilities.class_info
CppClassInfo
p322
(dp323
g4
Nsg5
(lp324
sg7
S'AbstractCellCycleModel'
p325
sg9
I00
sg10
I00
sg11
Nsg12
g242
sg14
I01
sg15
I01
sg16
I00
sg17
Nsg18
Nsg19
Nsg20
(dp326
g22
g23
sg24
g25
sg26
g27
sg28
g29
sg30
g31
sg32
g33
sg34
g35
sS'*'
g36
sg37
g38
sg39
g38
sg40
g41
sg42
g38
ssg43
Nsg44
I00
sg45
S'/home/grogan/Chaste/cell_based/src/cell/cycle/AbstractCellCycleModel.hpp'
p327
sg47
I00
sba(iwrapper_utilities.class_info
CppClassInfo
p328
(dp329
g4
Nsg5
(lp330
sg7
S'AbstractPhaseBasedCellCycleModel'
p331
sg9
I00
sg10
I00
sg11
Nsg12
g242
sg14
I01
sg15
I01
sg16
I00
sg17
Nsg18
Nsg19
Nsg20
(dp332
g22
g23
sg24
g25
sg26
g27
sg28
g29
sg30
g31
sg32
g33
sg34
g35
sS'*'
g36
sg37
g38
sg39
g38
sg40
g41
sg42
g38
ssg43
Nsg44
I00
sg45
S'/home/grogan/Chaste/cell_based/src/cell/cycle/AbstractPhaseBasedCellCycleModel.hpp'
p333
sg47
I00
sba(iwrapper_utilities.class_info
CppClassInfo
p334
(dp335
g4
Nsg5
(lp336
sg7
S'AbstractSimpleCellCycleModel'
p337
sg9
I00
sg10
I00
sg11
Nsg12
g242
sg14
I01
sg15
I01
sg16
I00
sg17
Nsg18
Nsg19
Nsg20
(dp338
g22
g23
sg24
g25
sg26
g27
sg28
g29
sg30
g31
sg32
g33
sg34
g35
sS'*'
g36
sg37
g38
sg39
g38
sg40
g41
sg42
g38
ssg43
Nsg44
I00
sg45
S'/home/grogan/Chaste/cell_based/src/cell/cycle/AbstractSimpleCellCycleModel.hpp'
p339
sg47
I00
sba(iwrapper_utilities.class_info
CppClassInfo
p340
(dp341
g4
Nsg5
(lp342
sg7
S'AbstractSimplePhaseBasedCellCycleModel'
p343
sg9
I00
sg10
I00
sg11
Nsg12
g242
sg14
I01
sg15
I01
sg16
I00
sg17
Nsg18
Nsg19
Nsg20
(dp344
g22
g23
sg24
g25
sg26
g27
sg28
g29
sg30
g31
sg32
g33
sg34
g35
sS'*'
g36
sg37
g38
sg39
g38
sg40
g41
sg42
g38
ssg43
Nsg44
I00
sg45
S'/home/grogan/Chaste/cell_based/src/cell/cycle/AbstractSimplePhaseBasedCellCycleModel.hpp'
p345
sg47
I00
sba(iwrapper_utilities.class_info
CppClassInfo
p346
(dp347
g4
Nsg5
(lp348
sg7
S'AbstractSimpleGenerationalCellCycleModel'
p349
sg9
I00
sg10
I00
sg11
Nsg12
g242
sg14
I01
sg15
I01
sg16
I00
sg17
Nsg18
Nsg19
Nsg20
(dp350
g22
g23
sg24
g25
sg26
g27
sg28
g29
sg30
g31
sg32
g33
sg34
g35
sS'*'
g36
sg37
g38
sg39
g38
sg40
g41
sg42
g38
ssg43
Nsg44
I00
sg45
S'/home/grogan/Chaste/cell_based/src/cell/cycle/AbstractSimpleGenerationalCellCycleModel.hpp'
p351
sg47
I00
sba(iwrapper_utilities.class_info
CppClassInfo
p352
(dp353
g4
Nsg5
(lp354
sg7
S'UniformCellCycleModel'
p355
sg9
I00
sg10
I00
sg11
Nsg12
g242
sg14
I01
sg15
I01
sg16
I00
sg17
Nsg18
Nsg19
Nsg20
(dp356
g22
g23
sg24
g25
sg26
g27
sg28
g29
sg30
g31
sg32
g33
sg34
g35
sS'*'
g36
sg37
g38
sg39
g38
sg40
g41
sg42
g38
ssg43
Nsg44
I00
sg45
S'/home/grogan/Chaste/cell_based/src/cell/cycle/UniformCellCycleModel.hpp'
p357
sg47
I00
sba(iwrapper_utilities.class_info
CppClassInfo
p358
(dp359
g4
Nsg5
(lp360
sg7
S'SimpleOxygenBasedCellCycleModel'
p361
sg9
I00
sg10
I00
sg11
Nsg12
g242
sg14
I01
sg15
I01
sg16
I00
sg17
Nsg18
Nsg19
Nsg20
(dp362
g22
g23
sg24
g25
sg26
g27
sg28
g29
sg30
g31
sg32
g33
sg34
g35
sS'*'
g36
sg37
g38
sg39
g38
sg40
g41
sg42
g38
ssg43
Nsg44
I00
sg45
S'/home/grogan/Chaste/cell_based/src/cell/cycle/SimpleOxygenBasedCellCycleModel.hpp'
p363
sg47
I00
sba(iwrapper_utilities.class_info
CppClassInfo
p364
(dp365
g4
Nsg5
(lp366
sg7
S'UniformG1GenerationalCellCycleModel'
p367
sg9
I00
sg10
I00
sg11
Nsg12
g242
sg14
I01
sg15
I01
sg16
I00
sg17
Nsg18
Nsg19
Nsg20
(dp368
g22
g23
sg24
g25
sg26
g27
sg28
g29
sg30
g31
sg32
g33
sg34
g35
sS'*'
g36
sg37
g38
sg39
g38
sg40
g41
sg42
g38
ssg43
Nsg44
I00
sg45
S'/home/grogan/Chaste/cell_based/src/cell/cycle/UniformG1GenerationalCellCycleModel.hpp'
p369
sg47
I00
sba(iwrapper_utilities.class_info
CppClassInfo
p370
(dp371
g4
Nsg5
(lp372
sg7
S'NoCellCycleModel'
p373
sg9
I00
sg10
I00
sg11
Nsg12
g242
sg14
I01
sg15
I01
sg16
I00
sg17
Nsg18
Nsg19
Nsg20
(dp374
g22
g23
sg24
g25
sg26
g27
sg28
g29
sg30
g31
sg32
g33
sg34
g35
sS'*'
g36
sg37
g38
sg39
g38
sg40
g41
sg42
g38
ssg43
Nsg44
I00
sg45
S'/home/grogan/Chaste/cell_based/src/cell/cycle/NoCellCycleModel.hpp'
p375
sg47
I00
sba(iwrapper_utilities.class_info
CppClassInfo
p376
(dp377
g4
Nsg5
(lp378
sg7
S'AbstractCellProperty'
p379
sg9
I00
sg10
I00
sg11
Nsg12
Nsg14
I01
sg15
I01
sg16
I00
sg17
Nsg18
Nsg19
(lp380
S'IsType'
p381
asg20
(dp382
g22
g23
sg24
g25
sg26
g27
sg28
g29
sg30
g31
sg32
g33
sg34
g35
sS'*'
g36
sg37
g38
sg39
g38
sg40
g41
sg42
g38
ssg43
Nsg44
I00
sg45
Nsg47
I00
sba(iwrapper_utilities.class_info
CppClassInfo
p383
(dp384
g4
Nsg5
(lp385
sg7
g379
sg9
I00
sg10
I00
sg11
Nsg12
g242
sg14
I01
sg15
I01
sg16
I00
sg17
Nsg18
Nsg19
(lp386
g381
asg20
(dp387
g22
g23
sg24
g25
sg26
g27
sg28
g29
sg30
g31
sg32
g33
sg34
g35
sS'*'
g36
sg37
g38
sg39
g38
sg40
g41
sg42
g38
ssg43
Nsg44
I00
sg45
S'/home/grogan/Chaste/cell_based/src/cell/properties/AbstractCellProperty.hpp'
p388
sg47
I00
sba(iwrapper_utilities.class_info
CppClassInfo
p389
(dp390
g4
Nsg5
(lp391
sg7
S'CellPropertyCollection'
p392
sg9
I00
sg10
I00
sg11
Nsg12
g242
sg14
I01
sg15
I01
sg16
I00
sg17
Nsg18
Nsg19
(lp393
S'GetCellPropertyRegistry'
p394
asg20
(dp395
g22
g23
sg24
g25
sg26
g27
sg28
g29
sg30
g31
sg32
g33
sg34
g35
sS'*'
g36
sg37
g38
sg39
g38
sg40
g41
sg42
g38
ssg43
Nsg44
I00
sg45
S'/home/grogan/Chaste/cell_based/src/cell/properties/CellPropertyCollection.hpp'
p396
sg47
I00
sba(iwrapper_utilities.class_info
CppClassInfo
p397
(dp398
g4
Nsg5
(lp399
sg7
S'AbstractCellProliferativeType'
p400
sg9
I00
sg10
I00
sg11
Nsg12
g242
sg14
I01
sg15
I01
sg16
I00
sg17
Nsg18
Nsg19
Nsg20
(dp401
g22
g23
sg24
g25
sg26
g27
sg28
g29
sg30
g31
sg32
g33
sg34
g35
sS'*'
g36
sg37
g38
sg39
g38
sg40
g41
sg42
g38
ssg43
Nsg44
I00
sg45
S'/home/grogan/Chaste/cell_based/src/cell/properties/proliferative_types/AbstractCellProliferativeType.hpp'
p402
sg47
I00
sba(iwrapper_utilities.class_info
CppClassInfo
p403
(dp404
g4
Nsg5
(lp405
sg7
S'StemCellProliferativeType'
p406
sg9
I00
sg10
I00
sg11
Nsg12
g242
sg14
I01
sg15
I01
sg16
I00
sg17
Nsg18
Nsg19
Nsg20
(dp407
g22
g23
sg24
g25
sg26
g27
sg28
g29
sg30
g31
sg32
g33
sg34
g35
sS'*'
g36
sg37
g38
sg39
g38
sg40
g41
sg42
g38
ssg43
Nsg44
I00
sg45
S'/home/grogan/Chaste/cell_based/src/cell/properties/proliferative_types/StemCellProliferativeType.hpp'
p408
sg47
I00
sba(iwrapper_utilities.class_info
CppClassInfo
p409
(dp410
g4
Nsg5
(lp411
sg7
S'DefaultCellProliferativeType'
p412
sg9
I00
sg10
I00
sg11
Nsg12
g242
sg14
I01
sg15
I01
sg16
I00
sg17
Nsg18
Nsg19
Nsg20
(dp413
g22
g23
sg24
g25
sg26
g27
sg28
g29
sg30
g31
sg32
g33
sg34
g35
sS'*'
g36
sg37
g38
sg39
g38
sg40
g41
sg42
g38
ssg43
Nsg44
I00
sg45
S'/home/grogan/Chaste/cell_based/src/cell/properties/proliferative_types/DefaultCellProliferativeType.hpp'
p414
sg47
I00
sba(iwrapper_utilities.class_info
CppClassInfo
p415
(dp416
g4
Nsg5
(lp417
sg7
S'TransitCellProliferativeType'
p418
sg9
I00
sg10
I00
sg11
Nsg12
g242
sg14
I01
sg15
I01
sg16
I00
sg17
Nsg18
Nsg19
Nsg20
(dp419
g22
g23
sg24
g25
sg26
g27
sg28
g29
sg30
g31
sg32
g33
sg34
g35
sS'*'
g36
sg37
g38
sg39
g38
sg40
g41
sg42
g38
ssg43
Nsg44
I00
sg45
S'/home/grogan/Chaste/cell_based/src/cell/properties/proliferative_types/TransitCellProliferativeType.hpp'
p420
sg47
I00
sba(iwrapper_utilities.class_info
CppClassInfo
p421
(dp422
g4
Nsg5
(lp423
sg7
S'DifferentiatedCellProliferativeType'
p424
sg9
I00
sg10
I00
sg11
Nsg12
g242
sg14
I01
sg15
I01
sg16
I00
sg17
Nsg18
Nsg19
Nsg20
(dp425
g22
g23
sg24
g25
sg26
g27
sg28
g29
sg30
g31
sg32
g33
sg34
g35
sS'*'
g36
sg37
g38
sg39
g38
sg40
g41
sg42
g38
ssg43
Nsg44
I00
sg45
S'/home/grogan/Chaste/cell_based/src/cell/properties/proliferative_types/DifferentiatedCellProliferativeType.hpp'
p426
sg47
I00
sba(iwrapper_utilities.class_info
CppClassInfo
p427
(dp428
g4
Nsg5
(lp429
sg7
S'AbstractCellMutationState'
p430
sg9
I00
sg10
I00
sg11
Nsg12
g242
sg14
I01
sg15
I01
sg16
I00
sg17
Nsg18
Nsg19
Nsg20
(dp431
g22
g23
sg24
g25
sg26
g27
sg28
g29
sg30
g31
sg32
g33
sg34
g35
sS'*'
g36
sg37
g38
sg39
g38
sg40
g41
sg42
g38
ssg43
Nsg44
I00
sg45
S'/home/grogan/Chaste/cell_based/src/cell/properties/mutations/AbstractCellMutationState.hpp'
p432
sg47
I00
sba(iwrapper_utilities.class_info
CppClassInfo
p433
(dp434
g4
Nsg5
(lp435
sg7
S'ApcOneHitCellMutationState'
p436
sg9
I00
sg10
I00
sg11
Nsg12
g242
sg14
I01
sg15
I01
sg16
I00
sg17
Nsg18
Nsg19
Nsg20
(dp437
g22
g23
sg24
g25
sg26
g27
sg28
g29
sg30
g31
sg32
g33
sg34
g35
sS'*'
g36
sg37
g38
sg39
g38
sg40
g41
sg42
g38
ssg43
Nsg44
I00
sg45
S'/home/grogan/Chaste/cell_based/src/cell/properties/mutations/ApcOneHitCellMutationState.hpp'
p438
sg47
I00
sba(iwrapper_utilities.class_info
CppClassInfo
p439
(dp440
g4
Nsg5
(lp441
sg7
S'ApcTwoHitCellMutationState'
p442
sg9
I00
sg10
I00
sg11
Nsg12
g242
sg14
I01
sg15
I01
sg16
I00
sg17
Nsg18
Nsg19
Nsg20
(dp443
g22
g23
sg24
g25
sg26
g27
sg28
g29
sg30
g31
sg32
g33
sg34
g35
sS'*'
g36
sg37
g38
sg39
g38
sg40
g41
sg42
g38
ssg43
Nsg44
I00
sg45
S'/home/grogan/Chaste/cell_based/src/cell/properties/mutations/ApcTwoHitCellMutationState.hpp'
p444
sg47
I00
sba(iwrapper_utilities.class_info
CppClassInfo
p445
(dp446
g4
Nsg5
(lp447
sg7
S'BetaCateninOneHitCellMutationState'
p448
sg9
I00
sg10
I00
sg11
Nsg12
g242
sg14
I01
sg15
I01
sg16
I00
sg17
Nsg18
Nsg19
Nsg20
(dp449
g22
g23
sg24
g25
sg26
g27
sg28
g29
sg30
g31
sg32
g33
sg34
g35
sS'*'
g36
sg37
g38
sg39
g38
sg40
g41
sg42
g38
ssg43
Nsg44
I00
sg45
S'/home/grogan/Chaste/cell_based/src/cell/properties/mutations/BetaCateninOneHitCellMutationState.hpp'
p450
sg47
I00
sba(iwrapper_utilities.class_info
CppClassInfo
p451
(dp452
g4
Nsg5
(lp453
sg7
S'WildTypeCellMutationState'
p454
sg9
I00
sg10
I00
sg11
Nsg12
g242
sg14
I01
sg15
I01
sg16
I00
sg17
Nsg18
Nsg19
Nsg20
(dp455
g22
g23
sg24
g25
sg26
g27
sg28
g29
sg30
g31
sg32
g33
sg34
g35
sS'*'
g36
sg37
g38
sg39
g38
sg40
g41
sg42
g38
ssg43
Nsg44
I00
sg45
S'/home/grogan/Chaste/cell_based/src/cell/properties/mutations/WildTypeCellMutationState.hpp'
p456
sg47
I00
sba(iwrapper_utilities.class_info
CppClassInfo
p457
(dp458
g4
Nsg5
(lp459
sg7
S'ApoptoticCellProperty'
p460
sg9
I00
sg10
I00
sg11
Nsg12
g242
sg14
I01
sg15
I01
sg16
I00
sg17
Nsg18
Nsg19
Nsg20
(dp461
g22
g23
sg24
g25
sg26
g27
sg28
g29
sg30
g31
sg32
g33
sg34
g35
sS'*'
g36
sg37
g38
sg39
g38
sg40
g41
sg42
g38
ssg43
Nsg44
I00
sg45
S'/home/grogan/Chaste/cell_based/src/cell/properties/ApoptoticCellProperty.hpp'
p462
sg47
I00
sba(iwrapper_utilities.class_info
CppClassInfo
p463
(dp464
g4
Nsg5
(lp465
sg7
S'CellData'
p466
sg9
I00
sg10
I00
sg11
Nsg12
g242
sg14
I01
sg15
I01
sg16
I00
sg17
Nsg18
Nsg19
Nsg20
(dp467
g22
g23
sg24
g25
sg26
g27
sg28
g29
sg30
g31
sg32
g33
sg34
g35
sS'*'
g36
sg37
g38
sg39
g38
sg40
g41
sg42
g38
ssg43
Nsg44
I00
sg45
S'/home/grogan/Chaste/cell_based/src/cell/properties/CellData.hpp'
p468
sg47
I00
sba(iwrapper_utilities.class_info
CppClassInfo
p469
(dp470
g4
Nsg5
(lp471
sg7
S'CellLabel'
p472
sg9
I00
sg10
I00
sg11
Nsg12
g242
sg14
I01
sg15
I01
sg16
I00
sg17
Nsg18
Nsg19
Nsg20
(dp473
g22
g23
sg24
g25
sg26
g27
sg28
g29
sg30
g31
sg32
g33
sg34
g35
sS'*'
g36
sg37
g38
sg39
g38
sg40
g41
sg42
g38
ssg43
Nsg44
I00
sg45
S'/home/grogan/Chaste/cell_based/src/cell/properties/CellLabel.hpp'
p474
sg47
I00
sba(iwrapper_utilities.class_info
CppClassInfo
p475
(dp476
g4
Nsg5
(lp477
sg7
S'CellAncestor'
p478
sg9
I00
sg10
I00
sg11
Nsg12
g242
sg14
I01
sg15
I01
sg16
I00
sg17
Nsg18
Nsg19
Nsg20
(dp479
g22
g23
sg24
g25
sg26
g27
sg28
g29
sg30
g31
sg32
g33
sg34
g35
sS'*'
g36
sg37
g38
sg39
g38
sg40
g41
sg42
g38
ssg43
Nsg44
I00
sg45
S'/home/grogan/Chaste/cell_based/src/cell/properties/CellAncestor.hpp'
p480
sg47
I00
sba(iwrapper_utilities.class_info
CppClassInfo
p481
(dp482
g4
Nsg5
(lp483
sg7
S'CellId'
p484
sg9
I00
sg10
I00
sg11
Nsg12
g242
sg14
I01
sg15
I01
sg16
I00
sg17
Nsg18
Nsg19
Nsg20
(dp485
g22
g23
sg24
g25
sg26
g27
sg28
g29
sg30
g31
sg32
g33
sg34
g35
sS'*'
g36
sg37
g38
sg39
g38
sg40
g41
sg42
g38
ssg43
Nsg44
I00
sg45
S'/home/grogan/Chaste/cell_based/src/cell/properties/CellId.hpp'
p486
sg47
I00
sba(iwrapper_utilities.class_info
CppClassInfo
p487
(dp488
g4
Nsg5
(lp489
sg7
S'CellPropertyRegistry'
p490
sg9
I00
sg10
I00
sg11
Nsg12
g242
sg14
I01
sg15
I01
sg16
I00
sg17
Nsg18
Nsg19
(lp491
S'rGetAllCellProperties'
p492
aS'TakeOwnership'
p493
aS'Get'
p494
asg20
(dp495
g22
g23
sg24
g25
sg26
g27
sg28
g29
sg30
g31
sg32
g33
sg34
g35
sS'*'
g36
sg37
g38
sg39
g38
sg40
g41
sg42
g38
ssg43
Nsg44
I00
sg45
S'/home/grogan/Chaste/cell_based/src/cell/properties/CellPropertyRegistry.hpp'
p496
sg47
I00
sba(iwrapper_utilities.class_info
CppClassInfo
p497
(dp498
g4
Nsg5
(lp499
sg7
S'AbstractSrnModel'
p500
sg9
I00
sg10
I00
sg11
Nsg12
g242
sg14
I01
sg15
I01
sg16
I00
sg17
Nsg18
Nsg19
Nsg20
(dp501
g22
g23
sg24
g25
sg26
g27
sg28
g29
sg30
g31
sg32
g33
sg34
g35
sS'*'
g36
sg37
g38
sg39
g38
sg40
g41
sg42
g38
ssg43
Nsg44
I00
sg45
S'/home/grogan/Chaste/cell_based/src/cell/srn/AbstractSrnModel.hpp'
p502
sg47
I00
sba(iwrapper_utilities.class_info
CppClassInfo
p503
(dp504
g4
(lp505
(lp506
S'CreateSrnModel'
p507
aS'reference_existing_object'
p508
aasg5
(lp509
sg7
S'NullSrnModel'
p510
sg9
I00
sg10
I00
sg11
Nsg12
g242
sg14
I01
sg15
I01
sg16
I00
sg17
Nsg18
Nsg19
Nsg20
(dp511
g22
g23
sg24
g25
sg26
g27
sg28
g29
sg30
g31
sg32
g33
sg34
g35
sS'*'
g36
sg37
g38
sg39
g38
sg40
g41
sg42
g38
ssg43
Nsg44
I00
sg45
S'/home/grogan/Chaste/cell_based/src/cell/srn/NullSrnModel.hpp'
p512
sg47
I00
sba(iwrapper_utilities.class_info
CppClassInfo
p513
(dp514
g4
Nsg5
(lp515
sg7
S'Cell'
p516
sg9
I00
sg10
I00
sg11
Nsg12
g242
sg14
I01
sg15
I01
sg16
I00
sg17
Nsg18
Nsg19
(lp517
S'rGetCellPropertyCollection'
p518
aS'GetSrnModel'
p519
asg20
(dp520
g22
g23
sg24
g25
sg26
g27
sg28
g29
sg30
g31
sg32
g33
sg34
g35
sS'*'
g36
sg37
g38
sg39
g38
sg40
g41
sg42
g38
ssg43
Nsg44
I00
sg45
S'/home/grogan/Chaste/cell_based/src/cell/Cell.hpp'
p521
sg47
I00
sba(iwrapper_utilities.class_info
CppClassInfo
p522
(dp523
g4
Nsg5
(lp524
sg7
S'CellsGenerator'
p525
sg9
I00
sg10
I00
sg11
Nsg12
g242
sg14
I01
sg15
I01
sg16
I00
sg17
Nsg18
(lp526
(lp527
g355
aI2
aa(lp528
g355
aI3
aa(lp529
g361
aI2
aa(lp530
g361
aI3
aa(lp531
g367
aI2
aa(lp532
g367
aI3
aa(lp533
g373
aI2
aa(lp534
g373
aI3
aasg19
Nsg20
(dp535
g22
g23
sg24
g25
sg26
g27
sg28
g29
sg30
g31
sg32
g33
sg34
g35
sS'*'
g36
sg37
g38
sg39
g38
sg40
g41
sg42
g38
ssg43
Nsg44
I00
sg45
S'/home/grogan/Chaste/cell_based/src/cell/CellsGenerator.hpp'
p536
sg47
I00
sba(iwrapper_utilities.class_info
CppClassInfo
p537
(dp538
g4
Nsg5
(lp539
sg7
g153
sg9
I00
sg10
I00
sg11
Nsg12
g242
sg14
I00
sg15
I00
sg16
I00
sg17
Nsg18
g216
sg19
Nsg20
(dp540
g22
g23
sg24
g25
sg26
g27
sg28
g29
sg30
g31
sg32
g33
sg34
g35
sS'*'
g36
sg37
g38
sg39
g38
sg40
g41
sg42
g38
ssg43
Nsg44
I00
sg45
S'/home/grogan/Chaste/pde/src/problem/AbstractLinearPde.hpp'
p541
sg47
I00
sba(iwrapper_utilities.class_info
CppClassInfo
p542
(dp543
g4
Nsg5
(lp544
sg7
g158
sg9
I00
sg10
I00
sg11
Nsg12
g242
sg14
I00
sg15
I00
sg16
I00
sg17
Nsg18
g216
sg19
Nsg20
(dp545
g22
g23
sg24
g25
sg26
g27
sg28
g29
sg30
g31
sg32
g33
sg34
g35
sS'*'
g36
sg37
g38
sg39
g38
sg40
g41
sg42
g38
ssg43
Nsg44
I00
sg45
S'/home/grogan/Chaste/pde/src/problem/AbstractLinearParabolicPde.hpp'
p546
sg47
I00
sba(iwrapper_utilities.class_info
CppClassInfo
p547
(dp548
g4
Nsg5
(lp549
sg7
g163
sg9
I00
sg10
I00
sg11
Nsg12
g242
sg14
I00
sg15
I00
sg16
I00
sg17
Nsg18
g216
sg19
Nsg20
(dp550
g22
g23
sg24
g25
sg26
g27
sg28
g29
sg30
g31
sg32
g33
sg34
g35
sS'*'
g36
sg37
g38
sg39
g38
sg40
g41
sg42
g38
ssg43
Nsg44
I00
sg45
S'/home/grogan/Chaste/pde/src/problem/AbstractLinearEllipticPde.hpp'
p551
sg47
I00
sba(iwrapper_utilities.class_info
CppClassInfo
p552
(dp553
g4
Nsg5
(lp554
sg7
S'CellwiseSourceEllipticPde'
p555
sg9
I00
sg10
I00
sg11
Nsg12
g242
sg14
I01
sg15
I01
sg16
I00
sg17
Nsg18
g170
sg19
Nsg20
(dp556
g22
g23
sg24
g25
sg26
g27
sg28
g29
sg30
g31
sg32
g33
sg34
g35
sS'*'
g36
sg37
g38
sg39
g38
sg40
g41
sg42
g38
ssg43
Nsg44
I00
sg45
S'/home/grogan/Chaste/cell_based/src/cell_based_pde/pdes/CellwiseSourceEllipticPde.hpp'
p557
sg47
I00
sba(iwrapper_utilities.class_info
CppClassInfo
p558
(dp559
g4
Nsg5
(lp560
sg7
S'AveragedSourceEllipticPde'
p561
sg9
I00
sg10
I00
sg11
Nsg12
g242
sg14
I01
sg15
I01
sg16
I00
sg17
Nsg18
g170
sg19
Nsg20
(dp562
g22
g23
sg24
g25
sg26
g27
sg28
g29
sg30
g31
sg32
g33
sg34
g35
sS'*'
g36
sg37
g38
sg39
g38
sg40
g41
sg42
g38
ssg43
Nsg44
I00
sg45
S'/home/grogan/Chaste/cell_based/src/cell_based_pde/pdes/AveragedSourceEllipticPde.hpp'
p563
sg47
I00
sba(iwrapper_utilities.class_info
CppClassInfo
p564
(dp565
g4
Nsg5
(lp566
sg7
S'AveragedSourceParabolicPde'
p567
sg9
I00
sg10
I00
sg11
Nsg12
g242
sg14
I01
sg15
I01
sg16
I00
sg17
Nsg18
g170
sg19
Nsg20
(dp568
g22
g23
sg24
g25
sg26
g27
sg28
g29
sg30
g31
sg32
g33
sg34
g35
sS'*'
g36
sg37
g38
sg39
g38
sg40
g41
sg42
g38
ssg43
Nsg44
I00
sg45
S'/home/grogan/Chaste/cell_based/src/cell_based_pde/pdes/AveragedSourceParabolicPde.hpp'
p569
sg47
I00
sba(iwrapper_utilities.class_info
CppClassInfo
p570
(dp571
g4
Nsg5
(lp572
sg7
S'CellwiseSourceParabolicPde'
p573
sg9
I00
sg10
I00
sg11
Nsg12
g242
sg14
I01
sg15
I01
sg16
I00
sg17
Nsg18
g170
sg19
Nsg20
(dp574
g22
g23
sg24
g25
sg26
g27
sg28
g29
sg30
g31
sg32
g33
sg34
g35
sS'*'
g36
sg37
g38
sg39
g38
sg40
g41
sg42
g38
ssg43
Nsg44
I00
sg45
S'/home/grogan/Chaste/cell_based/src/cell_based_pde/pdes/CellwiseSourceParabolicPde.hpp'
p575
sg47
I00
sba(iwrapper_utilities.class_info
CppClassInfo
p576
(dp577
g4
Nsg5
(lp578
sg7
S'AbstractPdeModifier'
p579
sg9
I00
sg10
I00
sg11
Nsg12
g242
sg14
I01
sg15
I01
sg16
I00
sg17
Nsg18
g170
sg19
(lp580
S'GetSolution'
p581
aS'GetFeMesh'
p582
asg20
(dp583
g22
g23
sg24
g25
sg26
g27
sg28
g29
sg30
g31
sg32
g33
sg34
g35
sS'*'
g36
sg37
g38
sg39
g38
sg40
g41
sg42
g38
ssg43
Nsg44
I00
sg45
S'/home/grogan/Chaste/cell_based/src/cell_based_pde/AbstractPdeModifier.hpp'
p584
sg47
I00
sba(iwrapper_utilities.class_info
CppClassInfo
p585
(dp586
g4
Nsg5
(lp587
sg7
S'AbstractGrowingDomainPdeModifier'
p588
sg9
I00
sg10
I00
sg11
Nsg12
g242
sg14
I01
sg15
I01
sg16
I00
sg17
Nsg18
g170
sg19
Nsg20
(dp589
g22
g23
sg24
g25
sg26
g27
sg28
g29
sg30
g31
sg32
g33
sg34
g35
sS'*'
g36
sg37
g38
sg39
g38
sg40
g41
sg42
g38
ssg43
Nsg44
I00
sg45
S'/home/grogan/Chaste/cell_based/src/cell_based_pde/AbstractGrowingDomainPdeModifier.hpp'
p590
sg47
I00
sba(iwrapper_utilities.class_info
CppClassInfo
p591
(dp592
g4
Nsg5
(lp593
sg7
S'EllipticGrowingDomainPdeModifier'
p594
sg9
I00
sg10
I00
sg11
Nsg12
g242
sg14
I01
sg15
I01
sg16
I00
sg17
Nsg18
g170
sg19
(lp595
S'ConstructBoundaryConditionsContainer'
p596
asg20
(dp597
g22
g23
sg24
g25
sg26
g27
sg28
g29
sg30
g31
sg32
g33
sg34
g35
sS'*'
g36
sg37
g38
sg39
g38
sg40
g41
sg42
g38
ssg43
Nsg44
I00
sg45
S'/home/grogan/Chaste/cell_based/src/cell_based_pde/EllipticGrowingDomainPdeModifier.hpp'
p598
sg47
I00
sba(iwrapper_utilities.class_info
CppClassInfo
p599
(dp600
g4
Nsg5
(lp601
sg7
S'VoronoiDataWriter'
p602
sg9
I00
sg10
I00
sg11
Nsg12
g242
sg14
I01
sg15
I01
sg16
I00
sg17
Nsg18
g216
sg19
Nsg20
(dp603
g22
g23
sg24
g25
sg26
g27
sg28
g29
sg30
g31
sg32
g33
sg34
g35
sS'*'
g36
sg37
g38
sg39
g38
sg40
g41
sg42
g38
ssg43
Nsg44
I00
sg45
S'/home/grogan/Chaste/cell_based/src/writers/population_writers/VoronoiDataWriter.hpp'
p604
sg47
I00
sba(iwrapper_utilities.class_info
CppClassInfo
p605
(dp606
g4
Nsg5
(lp607
sg7
S'CellLabelWriter'
p608
sg9
I00
sg10
I00
sg11
Nsg12
g242
sg14
I01
sg15
I01
sg16
I00
sg17
Nsg18
g216
sg19
Nsg20
(dp609
g22
g23
sg24
g25
sg26
g27
sg28
g29
sg30
g31
sg32
g33
sg34
g35
sS'*'
g36
sg37
g38
sg39
g38
sg40
g41
sg42
g38
ssg43
Nsg44
I00
sg45
S'/home/grogan/Chaste/cell_based/src/writers/cell_writers/CellLabelWriter.hpp'
p610
sg47
I00
sba(iwrapper_utilities.class_info
CppClassInfo
p611
(dp612
g4
Nsg5
(lp613
sg7
S'AbstractCaUpdateRule'
p614
sg9
I00
sg10
I00
sg11
Nsg12
g242
sg14
I01
sg15
I01
sg16
I00
sg17
Nsg18
g170
sg19
Nsg20
(dp615
g22
g23
sg24
g25
sg26
g27
sg28
g29
sg30
g31
sg32
g33
sg34
g35
sS'*'
g36
sg37
g38
sg39
g38
sg40
g41
sg42
g38
ssg43
Nsg44
I00
sg45
S'/home/grogan/Chaste/cell_based/src/population/update_rules/AbstractCaUpdateRule.hpp'
p616
sg47
I00
sba(iwrapper_utilities.class_info
CppClassInfo
p617
(dp618
g4
Nsg5
(lp619
sg7
S'AbstractUpdateRule'
p620
sg9
I00
sg10
I00
sg11
Nsg12
g242
sg14
I01
sg15
I01
sg16
I00
sg17
Nsg18
g170
sg19
Nsg20
(dp621
g22
g23
sg24
g25
sg26
g27
sg28
g29
sg30
g31
sg32
g33
sg34
g35
sS'*'
g36
sg37
g38
sg39
g38
sg40
g41
sg42
g38
ssg43
Nsg44
I00
sg45
S'/home/grogan/Chaste/cell_based/src/population/update_rules/AbstractUpdateRule.hpp'
p622
sg47
I00
sba(iwrapper_utilities.class_info
CppClassInfo
p623
(dp624
g4
Nsg5
(lp625
sg7
S'DiffusionCaUpdateRule'
p626
sg9
I00
sg10
I00
sg11
Nsg12
g242
sg14
I01
sg15
I01
sg16
I00
sg17
Nsg18
g170
sg19
Nsg20
(dp627
g22
g23
sg24
g25
sg26
g27
sg28
g29
sg30
g31
sg32
g33
sg34
g35
sS'*'
g36
sg37
g38
sg39
g38
sg40
g41
sg42
g38
ssg43
Nsg44
I00
sg45
S'/home/grogan/Chaste/cell_based/src/population/update_rules/DiffusionCaUpdateRule.hpp'
p628
sg47
I00
sba(iwrapper_utilities.class_info
CppClassInfo
p629
(dp630
g4
Nsg5
(lp631
sg7
S'AbstractPottsUpdateRule'
p632
sg9
I00
sg10
I00
sg11
Nsg12
g242
sg14
I01
sg15
I01
sg16
I00
sg17
Nsg18
g170
sg19
Nsg20
(dp633
g22
g23
sg24
g25
sg26
g27
sg28
g29
sg30
g31
sg32
g33
sg34
g35
sS'*'
g36
sg37
g38
sg39
g38
sg40
g41
sg42
g38
ssg43
Nsg44
I00
sg45
S'/home/grogan/Chaste/cell_based/src/population/update_rules/AbstractPottsUpdateRule.hpp'
p634
sg47
I00
sba(iwrapper_utilities.class_info
CppClassInfo
p635
(dp636
g4
Nsg5
(lp637
sg7
S'VolumeConstraintPottsUpdateRule'
p638
sg9
I00
sg10
I00
sg11
Nsg12
g242
sg14
I01
sg15
I01
sg16
I00
sg17
Nsg18
g170
sg19
Nsg20
(dp639
g22
g23
sg24
g25
sg26
g27
sg28
g29
sg30
g31
sg32
g33
sg34
g35
sS'*'
g36
sg37
g38
sg39
g38
sg40
g41
sg42
g38
ssg43
Nsg44
I00
sg45
S'/home/grogan/Chaste/cell_based/src/population/update_rules/VolumeConstraintPottsUpdateRule.hpp'
p640
sg47
I00
sba(iwrapper_utilities.class_info
CppClassInfo
p641
(dp642
g4
Nsg5
(lp643
sg7
S'SurfaceAreaConstraintPottsUpdateRule'
p644
sg9
I00
sg10
I00
sg11
Nsg12
g242
sg14
I01
sg15
I01
sg16
I00
sg17
Nsg18
g170
sg19
Nsg20
(dp645
g22
g23
sg24
g25
sg26
g27
sg28
g29
sg30
g31
sg32
g33
sg34
g35
sS'*'
g36
sg37
g38
sg39
g38
sg40
g41
sg42
g38
ssg43
Nsg44
I00
sg45
S'/home/grogan/Chaste/cell_based/src/population/update_rules/SurfaceAreaConstraintPottsUpdateRule.hpp'
p646
sg47
I00
sba(iwrapper_utilities.class_info
CppClassInfo
p647
(dp648
g4
Nsg5
(lp649
sg7
S'DifferentialAdhesionPottsUpdateRule'
p650
sg9
I00
sg10
I00
sg11
Nsg12
g242
sg14
I01
sg15
I01
sg16
I00
sg17
Nsg18
g170
sg19
Nsg20
(dp651
g22
g23
sg24
g25
sg26
g27
sg28
g29
sg30
g31
sg32
g33
sg34
g35
sS'*'
g36
sg37
g38
sg39
g38
sg40
g41
sg42
g38
ssg43
Nsg44
I00
sg45
S'/home/grogan/Chaste/cell_based/src/population/update_rules/DifferentialAdhesionPottsUpdateRule.hpp'
p652
sg47
I00
sba(iwrapper_utilities.class_info
CppClassInfo
p653
(dp654
g4
Nsg5
(lp655
sg7
S'AdhesionPottsUpdateRule'
p656
sg9
I00
sg10
I00
sg11
Nsg12
g242
sg14
I01
sg15
I01
sg16
I00
sg17
Nsg18
g170
sg19
Nsg20
(dp657
g22
g23
sg24
g25
sg26
g27
sg28
g29
sg30
g31
sg32
g33
sg34
g35
sS'*'
g36
sg37
g38
sg39
g38
sg40
g41
sg42
g38
ssg43
Nsg44
I00
sg45
S'/home/grogan/Chaste/cell_based/src/population/update_rules/AdhesionPottsUpdateRule.hpp'
p658
sg47
I00
sba(iwrapper_utilities.class_info
CppClassInfo
p659
(dp660
g4
Nsg5
(lp661
sg7
S'AbstractVertexBasedDivisionRule'
p662
sg9
I00
sg10
I00
sg11
Nsg12
g242
sg14
I01
sg15
I01
sg16
I00
sg17
Nsg18
g170
sg19
Nsg20
(dp663
g22
g23
sg24
g25
sg26
g27
sg28
g29
sg30
g31
sg32
g33
sg34
g35
sS'*'
g36
sg37
g38
sg39
g38
sg40
g41
sg42
g38
ssg43
Nsg44
I00
sg45
S'/home/grogan/Chaste/cell_based/src/population/division_rules/AbstractVertexBasedDivisionRule.hpp'
p664
sg47
I00
sba(iwrapper_utilities.class_info
CppClassInfo
p665
(dp666
g4
Nsg5
(lp667
sg7
S'AbstractForce'
p668
sg9
I00
sg10
I00
sg11
Nsg12
g242
sg14
I01
sg15
I01
sg16
I00
sg17
Nsg18
g216
sg19
Nsg20
(dp669
g22
g23
sg24
g25
sg26
g27
sg28
g29
sg30
g31
sg32
g33
sg34
g35
sS'*'
g36
sg37
g38
sg39
g38
sg40
g41
sg42
g38
ssg43
Nsg44
I00
sg45
S'/home/grogan/Chaste/cell_based/src/population/forces/AbstractForce.hpp'
p670
sg47
I00
sba(iwrapper_utilities.class_info
CppClassInfo
p671
(dp672
g4
Nsg5
(lp673
sg7
S'AbstractTwoBodyInteractionForce'
p674
sg9
I00
sg10
I00
sg11
Nsg12
g242
sg14
I01
sg15
I01
sg16
I00
sg17
Nsg18
g216
sg19
Nsg20
(dp675
g22
g23
sg24
g25
sg26
g27
sg28
g29
sg30
g31
sg32
g33
sg34
g35
sS'*'
g36
sg37
g38
sg39
g38
sg40
g41
sg42
g38
ssg43
Nsg44
I00
sg45
S'/home/grogan/Chaste/cell_based/src/population/forces/AbstractTwoBodyInteractionForce.hpp'
p676
sg47
I00
sba(iwrapper_utilities.class_info
CppClassInfo
p677
(dp678
g4
Nsg5
(lp679
sg7
S'GeneralisedLinearSpringForce'
p680
sg9
I00
sg10
I00
sg11
Nsg12
g242
sg14
I01
sg15
I01
sg16
I00
sg17
Nsg18
g216
sg19
Nsg20
(dp681
g22
g23
sg24
g25
sg26
g27
sg28
g29
sg30
g31
sg32
g33
sg34
g35
sS'*'
g36
sg37
g38
sg39
g38
sg40
g41
sg42
g38
ssg43
Nsg44
I00
sg45
S'/home/grogan/Chaste/cell_based/src/population/forces/GeneralisedLinearSpringForce.hpp'
p682
sg47
I00
sba(iwrapper_utilities.class_info
CppClassInfo
p683
(dp684
g4
Nsg5
(lp685
sg7
S'NagaiHondaForce'
p686
sg9
I00
sg10
I00
sg11
Nsg12
g242
sg14
I01
sg15
I01
sg16
I00
sg17
Nsg18
g170
sg19
Nsg20
(dp687
g22
g23
sg24
g25
sg26
g27
sg28
g29
sg30
g31
sg32
g33
sg34
g35
sS'*'
g36
sg37
g38
sg39
g38
sg40
g41
sg42
g38
ssg43
Nsg44
I00
sg45
S'/home/grogan/Chaste/cell_based/src/population/forces/NagaiHondaForce.hpp'
p688
sg47
I00
sba(iwrapper_utilities.class_info
CppClassInfo
p689
(dp690
g4
Nsg5
(lp691
sg7
S'AbstractCellKiller'
p692
sg9
I00
sg10
I00
sg11
Nsg12
g242
sg14
I01
sg15
I01
sg16
I00
sg17
Nsg18
g170
sg19
Nsg20
(dp693
g22
g23
sg24
g25
sg26
g27
sg28
g29
sg30
g31
sg32
g33
sg34
g35
sS'*'
g36
sg37
g38
sg39
g38
sg40
g41
sg42
g38
ssg43
Nsg44
I00
sg45
S'/home/grogan/Chaste/cell_based/src/population/killers/AbstractCellKiller.hpp'
p694
sg47
I00
sba(iwrapper_utilities.class_info
CppClassInfo
p695
(dp696
g4
Nsg5
(lp697
sg7
S'PlaneBasedCellKiller'
p698
sg9
I00
sg10
I00
sg11
Nsg12
g242
sg14
I01
sg15
I01
sg16
I00
sg17
Nsg18
g170
sg19
Nsg20
(dp699
g22
g23
sg24
g25
sg26
g27
sg28
g29
sg30
g31
sg32
g33
sg34
g35
sS'*'
g36
sg37
g38
sg39
g38
sg40
g41
sg42
g38
ssg43
Nsg44
I00
sg45
S'/home/grogan/Chaste/cell_based/src/population/killers/PlaneBasedCellKiller.hpp'
p700
sg47
I00
sba(iwrapper_utilities.class_info
CppClassInfo
p701
(dp702
g4
Nsg5
(lp703
sg7
S'ApoptoticCellKiller'
p704
sg9
I00
sg10
I00
sg11
Nsg12
g242
sg14
I01
sg15
I01
sg16
I00
sg17
Nsg18
g170
sg19
Nsg20
(dp705
g22
g23
sg24
g25
sg26
g27
sg28
g29
sg30
g31
sg32
g33
sg34
g35
sS'*'
g36
sg37
g38
sg39
g38
sg40
g41
sg42
g38
ssg43
Nsg44
I00
sg45
S'/home/grogan/Chaste/cell_based/src/population/killers/ApoptoticCellKiller.hpp'
p706
sg47
I00
sba(iwrapper_utilities.class_info
CppClassInfo
p707
(dp708
g4
Nsg5
(lp709
sg7
S'AbstractCellPopulationBoundaryCondition'
p710
sg9
I00
sg10
I00
sg11
Nsg12
g242
sg14
I01
sg15
I01
sg16
I00
sg17
Nsg18
g216
sg19
Nsg20
(dp711
g22
g23
sg24
g25
sg26
g27
sg28
g29
sg30
g31
sg32
g33
sg34
g35
sS'*'
g36
sg37
g38
sg39
g38
sg40
g41
sg42
g38
ssg43
Nsg44
I00
sg45
S'/home/grogan/Chaste/cell_based/src/population/boundary_conditions/AbstractCellPopulationBoundaryCondition.hpp'
p712
sg47
I00
sba(iwrapper_utilities.class_info
CppClassInfo
p713
(dp714
g4
Nsg5
(lp715
sg7
S'PlaneBoundaryCondition'
p716
sg9
I00
sg10
I00
sg11
Nsg12
g242
sg14
I01
sg15
I01
sg16
I00
sg17
Nsg18
g216
sg19
Nsg20
(dp717
g22
g23
sg24
g25
sg26
g27
sg28
g29
sg30
g31
sg32
g33
sg34
g35
sS'*'
g36
sg37
g38
sg39
g38
sg40
g41
sg42
g38
ssg43
Nsg44
I00
sg45
S'/home/grogan/Chaste/cell_based/src/population/boundary_conditions/PlaneBoundaryCondition.hpp'
p718
sg47
I00
sba(iwrapper_utilities.class_info
CppClassInfo
p719
(dp720
g4
(lp721
(lp722
S'rGetNormalToPlane'
p723
aS'copy_const_reference'
p724
aa(lp725
S'rGetPointOnPlane'
p726
ag724
aasg5
(lp727
sg7
S'AttractingPlaneBoundaryCondition'
p728
sg9
I00
sg10
I00
sg11
Nsg12
g242
sg14
I01
sg15
I01
sg16
I00
sg17
Nsg18
g216
sg19
Nsg20
(dp729
g22
g23
sg24
g25
sg26
g27
sg28
g29
sg30
g31
sg32
g33
sg34
g35
sS'*'
g36
sg37
g38
sg39
g38
sg40
g41
sg42
g38
ssg43
Nsg44
I00
sg45
S'/home/grogan/Chaste/projects/PyChaste/src/cell_based/AttractingPlaneBoundaryCondition.hpp'
p730
sg47
I00
sba(iwrapper_utilities.class_info
CppClassInfo
p731
(dp732
g4
Nsg5
(lp733
sg7
S'SphereGeometryBoundaryCondition'
p734
sg9
I00
sg10
I00
sg11
Nsg12
g242
sg14
I01
sg15
I01
sg16
I00
sg17
Nsg18
g170
sg19
Nsg20
(dp735
g22
g23
sg24
g25
sg26
g27
sg28
g29
sg30
g31
sg32
g33
sg34
g35
sS'*'
g36
sg37
g38
sg39
g38
sg40
g41
sg42
g38
ssg43
Nsg44
I00
sg45
S'/home/grogan/Chaste/cell_based/src/population/boundary_conditions/SphereGeometryBoundaryCondition.hpp'
p736
sg47
I00
sba(iwrapper_utilities.class_info
CppClassInfo
p737
(dp738
g4
Nsg5
(lp739
sg7
S'AbstractCellPopulation'
p740
sg9
I00
sg10
I00
sg11
Nsg12
g242
sg14
I01
sg15
I01
sg16
I00
sg17
Nsg18
g216
sg19
(lp741
S'rGetCells'
p742
asg20
(dp743
g22
g23
sg24
g25
sg26
g27
sg28
g29
sg30
g31
sg32
g33
sg34
g35
sS'*'
g36
sg37
g38
sg39
g38
sg40
g41
sg42
g38
ssg43
Nsg44
I00
sg45
S'/home/grogan/Chaste/cell_based/src/population/AbstractCellPopulation.hpp'
p744
sg47
I00
sba(iwrapper_utilities.class_info
CppClassInfo
p745
(dp746
g4
Nsg5
(lp747
sg7
S'AbstractOnLatticeCellPopulation'
p748
sg9
I00
sg10
I00
sg11
Nsg12
g242
sg14
I01
sg15
I01
sg16
I00
sg17
Nsg18
g170
sg19
Nsg20
(dp749
g22
g23
sg24
g25
sg26
g27
sg28
g29
sg30
g31
sg32
g33
sg34
g35
sS'*'
g36
sg37
g38
sg39
g38
sg40
g41
sg42
g38
ssg43
Nsg44
I00
sg45
S'/home/grogan/Chaste/cell_based/src/population/AbstractOnLatticeCellPopulation.hpp'
p750
sg47
I00
sba(iwrapper_utilities.class_info
CppClassInfo
p751
(dp752
g4
Nsg5
(lp753
sg7
S'AbstractCentreBasedCellPopulation'
p754
sg9
I00
sg10
I00
sg11
Nsg12
g242
sg14
I01
sg15
I01
sg16
I00
sg17
Nsg18
g216
sg19
(lp755
S'GetNodeCorrespondingToCell'
p756
aS'MarkSpring'
p757
aS'UnmarkSpring'
p758
asg20
(dp759
g22
g23
sg24
g25
sg26
g27
sg28
g29
sg30
g31
sg32
g33
sg34
g35
sS'*'
g36
sg37
g38
sg39
g38
sg40
g41
sg42
g38
ssg43
Nsg44
I00
sg45
S'/home/grogan/Chaste/cell_based/src/population/AbstractCentreBasedCellPopulation.hpp'
p760
sg47
I00
sba(iwrapper_utilities.class_info
CppClassInfo
p761
(dp762
g4
Nsg5
(lp763
sg7
S'AbstractOffLatticeCellPopulation'
p764
sg9
I00
sg10
I00
sg11
Nsg12
g242
sg14
I01
sg15
I01
sg16
I00
sg17
Nsg18
g216
sg19
Nsg20
(dp765
g22
g23
sg24
g25
sg26
g27
sg28
g29
sg30
g31
sg32
g33
sg34
g35
sS'*'
g36
sg37
g38
sg39
g38
sg40
g41
sg42
g38
ssg43
Nsg44
I00
sg45
S'/home/grogan/Chaste/cell_based/src/population/AbstractOffLatticeCellPopulation.hpp'
p766
sg47
I00
sba(iwrapper_utilities.class_info
CppClassInfo
p767
(dp768
g4
Nsg5
(lp769
sg7
S'CaBasedCellPopulation'
p770
sg9
I00
sg10
I00
sg11
Nsg12
g242
sg14
I01
sg15
I01
sg16
I00
sg17
Nsg18
g170
sg19
(lp771
S'rGetMesh'
p772
aS'GetTetrahedralMeshForPdeModifier'
p773
ag756
aS'rGetAvailableSpaces'
p774
asg20
(dp775
g22
g23
sg24
g25
sg26
g27
sg28
g29
sg30
g31
sg32
g33
sg34
g35
sS'*'
g36
sg37
g38
sg39
g38
sg40
g41
sg42
g38
ssg43
Nsg44
I00
sg45
S'/home/grogan/Chaste/cell_based/src/population/CaBasedCellPopulation.hpp'
p776
sg47
I00
sba(iwrapper_utilities.class_info
CppClassInfo
p777
(dp778
g4
Nsg5
(lp779
sg7
S'MeshBasedCellPopulation'
p780
sg9
I00
sg10
I00
sg11
Nsg12
g242
sg14
I01
sg15
I01
sg16
I00
sg17
Nsg18
g216
sg19
(lp781
S'GetVoronoiTessellation'
p782
aS'rGetNodePairs'
p783
ag773
ag772
asg20
(dp784
g22
g23
sg24
g25
sg26
g27
sg28
g29
sg30
g31
sg32
g33
sg34
g35
sS'*'
g36
sg37
g38
sg39
g38
sg40
g41
sg42
g38
ssg43
Nsg44
I00
sg45
S'/home/grogan/Chaste/cell_based/src/population/MeshBasedCellPopulation.hpp'
p785
sg47
I00
sba(iwrapper_utilities.class_info
CppClassInfo
p786
(dp787
g4
Nsg5
(lp788
sg7
S'MeshBasedCellPopulationWithGhostNodes'
p789
sg9
I00
sg10
I00
sg11
Nsg12
g242
sg14
I01
sg15
I01
sg16
I00
sg17
Nsg18
g170
sg19
Nsg20
(dp790
g22
g23
sg24
g25
sg26
g27
sg28
g29
sg30
g31
sg32
g33
sg34
g35
sS'*'
g36
sg37
g38
sg39
g38
sg40
g41
sg42
g38
ssg43
Nsg44
I00
sg45
S'/home/grogan/Chaste/cell_based/src/population/MeshBasedCellPopulationWithGhostNodes.hpp'
p791
sg47
I00
sba(iwrapper_utilities.class_info
CppClassInfo
p792
(dp793
g4
Nsg5
(lp794
sg7
S'VertexBasedCellPopulation'
p795
sg9
I00
sg10
I00
sg11
Nsg12
g242
sg14
I01
sg15
I01
sg16
I00
sg17
Nsg18
g170
sg19
(lp796
g772
ag773
aS'GetElement'
p797
aS'GetElementCorrespondingToCell'
p798
asg20
(dp799
g22
g23
sg24
g25
sg26
g27
sg28
g29
sg30
g31
sg32
g33
sg34
g35
sS'*'
g36
sg37
g38
sg39
g38
sg40
g41
sg42
g38
ssg43
Nsg44
I00
sg45
S'/home/grogan/Chaste/cell_based/src/population/VertexBasedCellPopulation.hpp'
p800
sg47
I00
sba(iwrapper_utilities.class_info
CppClassInfo
p801
(dp802
g4
Nsg5
(lp803
sg7
S'PottsBasedCellPopulation'
p804
sg9
I00
sg10
I00
sg11
Nsg12
g242
sg14
I01
sg15
I01
sg16
I00
sg17
Nsg18
g170
sg19
(lp805
g772
ag773
ag797
ag798
aS'GetElementTessellation'
p806
aS'GetMutableMesh'
p807
asg20
(dp808
g22
g23
sg24
g25
sg26
g27
sg28
g29
sg30
g31
sg32
g33
sg34
g35
sS'*'
g36
sg37
g38
sg39
g38
sg40
g41
sg42
g38
ssg43
Nsg44
I00
sg45
S'/home/grogan/Chaste/cell_based/src/population/PottsBasedCellPopulation.hpp'
p809
sg47
I00
sba(iwrapper_utilities.class_info
CppClassInfo
p810
(dp811
g4
Nsg5
(lp812
sg7
S'NodeBasedCellPopulation'
p813
sg9
I00
sg10
I00
sg11
Nsg12
g242
sg14
I01
sg15
I01
sg16
I00
sg17
Nsg18
g170
sg19
(lp814
g772
ag773
ag783
asg20
(dp815
g22
g23
sg24
g25
sg26
g27
sg28
g29
sg30
g31
sg32
g33
sg34
g35
sS'*'
g36
sg37
g38
sg39
g38
sg40
g41
sg42
g38
ssg43
Nsg44
I00
sg45
S'/home/grogan/Chaste/cell_based/src/population/NodeBasedCellPopulation.hpp'
p816
sg47
I00
sba(iwrapper_utilities.class_info
CppClassInfo
p817
(dp818
g4
Nsg5
(lp819
sg7
S'AbstractTargetAreaModifier'
p820
sg9
I00
sg10
I00
sg11
Nsg12
g242
sg14
I01
sg15
I01
sg16
I00
sg17
Nsg18
g170
sg19
Nsg20
(dp821
g22
g23
sg24
g25
sg26
g27
sg28
g29
sg30
g31
sg32
g33
sg34
g35
sS'*'
g36
sg37
g38
sg39
g38
sg40
g41
sg42
g38
ssg43
Nsg44
I00
sg45
S'/home/grogan/Chaste/cell_based/src/simulation/modifiers/AbstractTargetAreaModifier.hpp'
p822
sg47
I00
sba(iwrapper_utilities.class_info
CppClassInfo
p823
(dp824
g4
Nsg5
(lp825
sg7
S'SimpleTargetAreaModifier'
p826
sg9
I00
sg10
I00
sg11
Nsg12
g242
sg14
I01
sg15
I01
sg16
I00
sg17
Nsg18
g170
sg19
Nsg20
(dp827
g22
g23
sg24
g25
sg26
g27
sg28
g29
sg30
g31
sg32
g33
sg34
g35
sS'*'
g36
sg37
g38
sg39
g38
sg40
g41
sg42
g38
ssg43
Nsg44
I00
sg45
S'/home/grogan/Chaste/cell_based/src/simulation/modifiers/SimpleTargetAreaModifier.hpp'
p828
sg47
I00
sba(iwrapper_utilities.class_info
CppClassInfo
p829
(dp830
g4
Nsg5
(lp831
sg7
S'VtkSceneModifier'
p832
sg9
I00
sg10
I00
sg11
Nsg12
g242
sg14
I01
sg15
I01
sg16
I00
sg17
Nsg18
g170
sg19
Nsg20
(dp833
g22
g23
sg24
g25
sg26
g27
sg28
g29
sg30
g31
sg32
g33
sg34
g35
sS'*'
g36
sg37
g38
sg39
g38
sg40
g41
sg42
g38
ssg43
Nsg44
I00
sg45
S'/home/grogan/Chaste/projects/PyChaste/src/cell_based/VtkSceneModifier.hpp'
p834
sg47
I00
sba(iwrapper_utilities.class_info
CppClassInfo
p835
(dp836
g4
Nsg5
(lp837
sg7
S'AbstractCellBasedSimulationModifier'
p838
sg9
I00
sg10
I00
sg11
Nsg12
g242
sg14
I01
sg15
I01
sg16
I00
sg17
Nsg18
g216
sg19
Nsg20
(dp839
g22
g23
sg24
g25
sg26
g27
sg28
g29
sg30
g31
sg32
g33
sg34
g35
sS'*'
g36
sg37
g38
sg39
g38
sg40
g41
sg42
g38
ssg43
Nsg44
I00
sg45
S'/home/grogan/Chaste/cell_based/src/simulation/modifiers/AbstractCellBasedSimulationModifier.hpp'
p840
sg47
I00
sba(iwrapper_utilities.class_info
CppClassInfo
p841
(dp842
g4
Nsg5
(lp843
sg7
S'AbstractCellBasedSimulation'
p844
sg9
I00
sg10
I00
sg11
Nsg12
g242
sg14
I01
sg15
I01
sg16
I00
sg17
Nsg18
g216
sg19
(lp845
S'GetSimulationModifiers'
p846
asg20
(dp847
g22
g23
sg24
g25
sg26
g27
sg28
g29
sg30
g31
sg32
g33
sg34
g35
sS'*'
g36
sg37
g38
sg39
g38
sg40
g41
sg42
g38
ssg43
Nsg44
I00
sg45
S'/home/grogan/Chaste/cell_based/src/simulation/AbstractCellBasedSimulation.hpp'
p848
sg47
I00
sba(iwrapper_utilities.class_info
CppClassInfo
p849
(dp850
g4
Nsg5
(lp851
sg7
S'SimulationTime'
p852
sg9
I00
sg10
I00
sg11
Nsg12
g242
sg14
I01
sg15
I01
sg16
I00
sg17
Nsg18
Nsg19
Nsg20
(dp853
g22
g23
sg24
g25
sg26
g27
sg28
g29
sg30
g31
sg32
g33
sg34
g35
sS'*'
g36
sg37
g38
sg39
g38
sg40
g41
sg42
g38
ssg43
Nsg44
I00
sg45
S'/home/grogan/Chaste/cell_based/src/common/SimulationTime.hpp'
p854
sg47
I00
sba(iwrapper_utilities.class_info
CppClassInfo
p855
(dp856
g4
Nsg5
(lp857
sg7
S'OnLatticeSimulation'
p858
sg9
I00
sg10
I00
sg11
Nsg12
g242
sg14
I01
sg15
I01
sg16
I00
sg17
Nsg18
g170
sg19
Nsg20
(dp859
g22
g23
sg24
g25
sg26
g27
sg28
g29
sg30
g31
sg32
g33
sg34
g35
sS'*'
g36
sg37
g38
sg39
g38
sg40
g41
sg42
g38
ssg43
Nsg44
I00
sg45
S'/home/grogan/Chaste/cell_based/src/simulation/OnLatticeSimulation.hpp'
p860
sg47
I00
sba(iwrapper_utilities.class_info
CppClassInfo
p861
(dp862
g4
Nsg5
(lp863
sg7
S'OffLatticeSimulation'
p864
sg9
I00
sg10
I00
sg11
Nsg12
g242
sg14
I01
sg15
I01
sg16
I00
sg17
Nsg18
g216
sg19
Nsg20
(dp865
g22
g23
sg24
g25
sg26
g27
sg28
g29
sg30
g31
sg32
g33
sg34
g35
sS'*'
g36
sg37
g38
sg39
g38
sg40
g41
sg42
g38
ssg43
Nsg44
I00
sg45
S'/home/grogan/Chaste/cell_based/src/simulation/OffLatticeSimulation.hpp'
p866
sg47
I00
sba(iwrapper_utilities.class_info
CppClassInfo
p867
(dp868
g4
Nsg5
(lp869
sg7
S'Hello'
p870
sg9
I00
sg10
I00
sg11
Nsg12
S'tutorial'
p871
sg14
I01
sg15
I01
sg16
I00
sg17
Nsg18
Nsg19
Nsg20
(dp872
g22
g23
sg24
g25
sg26
g27
sg28
g29
sg30
g31
sg32
g33
sg34
g35
sS'*'
g36
sg37
g38
sg39
g38
sg40
g41
sg42
g38
ssg43
Nsg44
I00
sg45
S'/home/grogan/Chaste/projects/PyChaste/src/tutorial/Hello.hpp'
p873
sg47
I00
sba(iwrapper_utilities.class_info
CppClassInfo
p874
(dp875
g4
Nsg5
(lp876
sg7
S'VtkScene'
p877
sg9
I00
sg10
I00
sg11
Nsg12
S'visualization'
p878
sg14
I01
sg15
I01
sg16
I00
sg17
Nsg18
g170
sg19
Nsg20
(dp879
g22
g23
sg24
g25
sg26
g27
sg28
g29
sg30
g31
sg32
g33
sg34
g35
sS'*'
g36
sg37
g38
sg39
g38
sg40
g41
sg42
g38
ssg43
Nsg44
I00
sg45
S'/home/grogan/Chaste/projects/PyChaste/src/visualization/VtkScene.hpp'
p880
sg47
I00
sba(iwrapper_utilities.class_info
CppClassInfo
p881
(dp882
g4
Nsg5
(lp883
sg7
S'AbstractPyChasteActorGenerator'
p884
sg9
I00
sg10
I00
sg11
Nsg12
g878
sg14
I01
sg15
I01
sg16
I00
sg17
Nsg18
g170
sg19
Nsg20
(dp885
g22
g23
sg24
g25
sg26
g27
sg28
g29
sg30
g31
sg32
g33
sg34
g35
sS'*'
g36
sg37
g38
sg39
g38
sg40
g41
sg42
g38
ssg43
Nsg44
I00
sg45
S'/home/grogan/Chaste/projects/PyChaste/src/visualization/AbstractPyChasteActorGenerator.hpp'
p886
sg47
I00
sba(iwrapper_utilities.class_info
CppClassInfo
p887
(dp888
g4
Nsg5
(lp889
sg7
S'CellPopulationPyChasteActorGenerator'
p890
sg9
I00
sg10
I00
sg11
Nsg12
g878
sg14
I01
sg15
I01
sg16
I00
sg17
Nsg18
g170
sg19
Nsg20
(dp891
g22
g23
sg24
g25
sg26
g27
sg28
g29
sg30
g31
sg32
g33
sg34
g35
sS'*'
g36
sg37
g38
sg39
g38
sg40
g41
sg42
g38
ssg43
Nsg44
I00
sg45
S'/home/grogan/Chaste/projects/PyChaste/src/visualization/CellPopulationPyChasteActorGenerator.hpp'
p892
sg47
I00
sba.