(lp1
(iwrapper_utilities.class_info
CppClassInfo
p2
(dp3
S'pointer_return_methods'
p4
NsS'name_replacements'
p5
(dp6
S'std::string'
p7
S'String'
p8
sS'c_vector'
p9
S'CVector'
p10
sS'std::set'
p11
S'Set'
p12
sS'std::pair'
p13
S'Pair'
p14
sS'std::map'
p15
S'Map'
p16
sS'boost::shared_ptr'
p17
S'SharedPtr'
p18
sS'std::vector'
p19
S'Vector'
p20
sS'*'
S'Ptr'
p21
sS'unsigned'
p22
S'Unsigned'
p23
sS'unsigned int'
p24
g23
sS'double'
p25
S'Double'
p26
sS'Unsigned int'
p27
g23
ssS'name'
p28
S'BoostFilesystem'
p29
sS'include_ptr_self'
p30
I00
sS'include_raw_ptr_self'
p31
I00
sS'declaration_code'
p32
NsS'component'
p33
S'core'
p34
sS'needs_include_file'
p35
I01
sS'needs_instantiation'
p36
I01
sS'skip_wrapping'
p37
I00
sS'excluded_variables'
p38
NsS'template_args'
p39
NsS'excluded_methods'
p40
NsS'name_override'
p41
NsS'include_vec_ptr_self'
p42
I00
sS'full_path'
p43
S'/home/grogan/Chaste/global/src/BoostFilesystem.hpp'
p44
sS'include_file_only'
p45
I01
sba(iwrapper_utilities.class_info
CppClassInfo
p46
(dp47
g4
Nsg5
(dp48
g7
g8
sg9
g10
sg11
g12
sg13
g14
sg15
g16
sg17
g18
sg19
g20
sS'*'
g21
sg22
g23
sg24
g23
sg25
g26
sg27
g23
ssg28
S'RelativeTo'
p49
sg30
I00
sg31
I00
sg32
Nsg33
g34
sg35
I00
sg36
I01
sg37
I00
sg38
Nsg39
Nsg40
Nsg41
Nsg42
I00
sg43
Nsg45
I00
sba(iwrapper_utilities.class_info
CppClassInfo
p50
(dp51
g4
Nsg5
(dp52
g7
g8
sg9
g10
sg11
g12
sg13
g14
sg15
g16
sg17
g18
sg19
g20
sS'*'
g21
sg22
g23
sg24
g23
sg25
g26
sg27
g23
ssg28
S'FileFinder'
p53
sg30
I00
sg31
I00
sg32
Nsg33
g34
sg35
I01
sg36
I01
sg37
I00
sg38
Nsg39
Nsg40
Nsg41
Nsg42
I00
sg43
S'/home/grogan/Chaste/global/src/FileFinder.hpp'
p54
sg45
I00
sba(iwrapper_utilities.class_info
CppClassInfo
p55
(dp56
g4
Nsg5
(dp57
g7
g8
sg9
g10
sg11
g12
sg13
g14
sg15
g16
sg17
g18
sg19
g20
sS'*'
g21
sg22
g23
sg24
g23
sg25
g26
sg27
g23
ssg28
S'OutputFileHandler'
p58
sg30
I00
sg31
I00
sg32
Nsg33
g34
sg35
I01
sg36
I01
sg37
I00
sg38
Nsg39
Nsg40
(lp59
S'OpenOutputFile'
p60
asg41
Nsg42
I00
sg43
S'/home/grogan/Chaste/global/src/OutputFileHandler.hpp'
p61
sg45
I00
sba(iwrapper_utilities.class_info
CppClassInfo
p62
(dp63
g4
Nsg5
(dp64
g7
g8
sg9
g10
sg11
g12
sg13
g14
sg15
g16
sg17
g18
sg19
g20
sS'*'
g21
sg22
g23
sg24
g23
sg25
g26
sg27
g23
ssg28
S'ProgressReporter'
p65
sg30
I00
sg31
I00
sg32
Nsg33
g34
sg35
I01
sg36
I01
sg37
I00
sg38
Nsg39
Nsg40
Nsg41
Nsg42
I00
sg43
S'/home/grogan/Chaste/global/src/ProgressReporter.hpp'
p66
sg45
I00
sba(iwrapper_utilities.class_info
CppClassInfo
p67
(dp68
g4
Nsg5
(dp69
g7
g8
sg9
g10
sg11
g12
sg13
g14
sg15
g16
sg17
g18
sg19
g20
sS'*'
g21
sg22
g23
sg24
g23
sg25
g26
sg27
g23
ssg28
S'RandomNumberGenerator'
p70
sg30
I00
sg31
I00
sg32
Nsg33
g34
sg35
I01
sg36
I01
sg37
I00
sg38
Nsg39
Nsg40
Nsg41
Nsg42
I00
sg43
S'/home/grogan/Chaste/global/src/RandomNumberGenerator.hpp'
p71
sg45
I00
sba(iwrapper_utilities.class_info
CppClassInfo
p72
(dp73
g4
Nsg5
(dp74
g7
g8
sg9
g10
sg11
g12
sg13
g14
sg15
g16
sg17
g18
sg19
g20
sS'*'
g21
sg22
g23
sg24
g23
sg25
g26
sg27
g23
ssg28
S'SmartPointers'
p75
sg30
I00
sg31
I00
sg32
Nsg33
g34
sg35
I01
sg36
I01
sg37
I00
sg38
Nsg39
Nsg40
Nsg41
Nsg42
I00
sg43
S'/home/grogan/Chaste/global/src/SmartPointers.hpp'
p76
sg45
I01
sba(iwrapper_utilities.class_info
CppClassInfo
p77
(dp78
g4
Nsg5
(dp79
g7
g8
sg9
g10
sg11
g12
sg13
g14
sg15
g16
sg17
g18
sg19
g20
sS'*'
g21
sg22
g23
sg24
g23
sg25
g26
sg27
g23
ssg28
S'TimeStepper'
p80
sg30
I00
sg31
I00
sg32
Nsg33
g34
sg35
I01
sg36
I01
sg37
I00
sg38
Nsg39
Nsg40
Nsg41
Nsg42
I00
sg43
S'/home/grogan/Chaste/global/src/TimeStepper.hpp'
p81
sg45
I00
sba(iwrapper_utilities.class_info
CppClassInfo
p82
(dp83
g4
Nsg5
(dp84
g7
g8
sg9
g10
sg11
g12
sg13
g14
sg15
g16
sg17
g18
sg19
g20
sS'*'
g21
sg22
g23
sg24
g23
sg25
g26
sg27
g23
ssg28
S'Version'
p85
sg30
I00
sg31
I00
sg32
Nsg33
g34
sg35
I01
sg36
I01
sg37
I00
sg38
Nsg39
Nsg40
Nsg41
Nsg42
I00
sg43
S'/home/grogan/Chaste/global/src/Version.hpp'
p86
sg45
I01
sba(iwrapper_utilities.class_info
CppClassInfo
p87
(dp88
g4
(lp89
(lp90
S'GetBuildInformation'
p91
aS''
aa(lp92
S'GetBuildTime'
p93
aS''
aa(lp94
S'GetBuilderUnameInfo'
p95
aS''
aa(lp96
S'GetCompilerFlags'
p97
aS''
aa(lp98
S'GetCompilerType'
p99
aS''
aa(lp100
S'GetCompilerVersion'
p101
aS''
aa(lp102
S'GetCurrentTime'
p103
aS''
aa(lp104
S'GetRootDir'
p105
aS''
aa(lp106
S'GetXsdVersion'
p107
aS''
aasg5
(dp108
g7
g8
sg9
g10
sg11
g12
sg13
g14
sg15
g16
sg17
g18
sg19
g20
sS'*'
g21
sg22
g23
sg24
g23
sg25
g26
sg27
g23
ssg28
S'ChasteBuildInfo'
p109
sg30
I00
sg31
I00
sg32
Nsg33
g34
sg35
I00
sg36
I01
sg37
I00
sg38
Nsg39
Nsg40
Nsg41
Nsg42
I00
sg43
Nsg45
I00
sba(iwrapper_utilities.class_info
CppClassInfo
p110
(dp111
g4
Nsg5
(dp112
g7
g8
sg9
g10
sg11
g12
sg13
g14
sg15
g16
sg17
g18
sg19
g20
sS'*'
g21
sg22
g23
sg24
g23
sg25
g26
sg27
g23
ssg28
S'Identifiable'
p113
sg30
I00
sg31
I00
sg32
Nsg33
g34
sg35
I01
sg36
I01
sg37
I00
sg38
Nsg39
Nsg40
Nsg41
Nsg42
I00
sg43
S'/home/grogan/Chaste/global/src/checkpointing/Identifiable.hpp'
p114
sg45
I01
sba(iwrapper_utilities.class_info
CppClassInfo
p115
(dp116
g4
Nsg5
(dp117
g7
g8
sg9
g10
sg11
g12
sg13
g14
sg15
g16
sg17
g18
sg19
g20
sS'*'
g21
sg22
g23
sg24
g23
sg25
g26
sg27
g23
ssg28
S'PetscTools'
p118
sg30
I00
sg31
I00
sg32
Nsg33
g34
sg35
I01
sg36
I01
sg37
I00
sg38
(lp119
S'MASTER_RANK'
p120
asg39
Nsg40
(lp121
S'GetWorld'
p122
asg41
Nsg42
I00
sg43
S'/home/grogan/Chaste/global/src/parallel/PetscTools.hpp'
p123
sg45
I00
sba(iwrapper_utilities.class_info
CppClassInfo
p124
(dp125
g4
Nsg5
(dp126
g7
g8
sg9
g10
sg11
g12
sg13
g14
sg15
g16
sg17
g18
sg19
g20
sS'*'
g21
sg22
g23
sg24
g23
sg25
g26
sg27
g23
ssg28
S'ReplicatableVector'
p127
sg30
I00
sg31
I00
sg32
Nsg33
g34
sg35
I01
sg36
I01
sg37
I00
sg38
Nsg39
Nsg40
Nsg41
Nsg42
I00
sg43
S'/home/grogan/Chaste/global/src/parallel/ReplicatableVector.hpp'
p128
sg45
I00
sba(iwrapper_utilities.class_info
CppClassInfo
p129
(dp130
g4
Nsg5
(dp131
g7
g8
sg9
g10
sg11
g12
sg13
g14
sg15
g16
sg17
g18
sg19
g20
sS'*'
g21
sg22
g23
sg24
g23
sg25
g26
sg27
g23
ssg28
S'Timer'
p132
sg30
I00
sg31
I00
sg32
Nsg33
g34
sg35
I01
sg36
I01
sg37
I00
sg38
Nsg39
Nsg40
Nsg41
Nsg42
I00
sg43
S'/home/grogan/Chaste/global/src/timing/Timer.hpp'
p133
sg45
I00
sba(iwrapper_utilities.class_info
CppClassInfo
p134
(dp135
g4
Nsg5
(dp136
g7
g8
sg9
g10
sg11
g12
sg13
g14
sg15
g16
sg17
g18
sg19
g20
sS'*'
g21
sg22
g23
sg24
g23
sg25
g26
sg27
g23
ssg28
S'UblasIncludes'
p137
sg30
I00
sg31
I00
sg32
Nsg33
g34
sg35
I01
sg36
I01
sg37
I00
sg38
Nsg39
Nsg40
Nsg41
Nsg42
I00
sg43
S'/home/grogan/Chaste/linalg/src/UblasIncludes.hpp'
p138
sg45
I01
sba(iwrapper_utilities.class_info
CppClassInfo
p139
(dp140
g4
Nsg5
(dp141
g7
g8
sg9
g10
sg11
g12
sg13
g14
sg15
g16
sg17
g18
sg19
g20
sS'*'
g21
sg22
g23
sg24
g23
sg25
g26
sg27
g23
ssg28
S'AbstractOdeSystemInformation'
p142
sg30
I00
sg31
I00
sg32
Nsg33
S'ode'
p143
sg35
I01
sg36
I01
sg37
I00
sg38
Nsg39
Nsg40
Nsg41
Nsg42
I00
sg43
S'/home/grogan/Chaste/ode/src/common/AbstractOdeSystemInformation.hpp'
p144
sg45
I00
sba(iwrapper_utilities.class_info
CppClassInfo
p145
(dp146
g4
Nsg5
(dp147
g7
g8
sg9
g10
sg11
g12
sg13
g14
sg15
g16
sg17
g18
sg19
g20
sS'*'
g21
sg22
g23
sg24
g23
sg25
g26
sg27
g23
ssg28
S'AbstractPythonOdeSystemInformation'
p148
sg30
I00
sg31
I00
sg32
Nsg33
g143
sg35
I01
sg36
I01
sg37
I00
sg38
Nsg39
Nsg40
Nsg41
Nsg42
I00
sg43
S'/home/grogan/Chaste/projects/PyChaste/src/ode/AbstractPythonOdeSystemInformation.hpp'
p149
sg45
I00
sba(iwrapper_utilities.class_info
CppClassInfo
p150
(dp151
g4
Nsg5
(dp152
g7
g8
sg9
g10
sg11
g12
sg13
g14
sg15
g16
sg17
g18
sg19
g20
sS'*'
g21
sg22
g23
sg24
g23
sg25
g26
sg27
g23
ssg28
S'AbstractOdeSystem'
p153
sg30
I00
sg31
I00
sg32
Nsg33
g143
sg35
I01
sg36
I01
sg37
I00
sg38
Nsg39
Nsg40
Nsg41
Nsg42
I00
sg43
S'/home/grogan/Chaste/ode/src/common/AbstractOdeSystem.hpp'
p154
sg45
I00
sba(iwrapper_utilities.class_info
CppClassInfo
p155
(dp156
g4
Nsg5
(dp157
g7
g8
sg9
g10
sg11
g12
sg13
g14
sg15
g16
sg17
g18
sg19
g20
sS'*'
g21
sg22
g23
sg24
g23
sg25
g26
sg27
g23
ssg28
S'AbstractLinearPde'
p158
sg30
I00
sg31
I00
sg32
Nsg33
Nsg35
I01
sg36
I01
sg37
I00
sg38
Nsg39
Nsg40
Nsg41
Nsg42
I00
sg43
Nsg45
I00
sba(iwrapper_utilities.class_info
CppClassInfo
p159
(dp160
g4
Nsg5
(dp161
g7
g8
sg9
g10
sg11
g12
sg13
g14
sg15
g16
sg17
g18
sg19
g20
sS'*'
g21
sg22
g23
sg24
g23
sg25
g26
sg27
g23
ssg28
S'AbstractLinearParabolicPde'
p162
sg30
I00
sg31
I00
sg32
Nsg33
Nsg35
I01
sg36
I01
sg37
I00
sg38
Nsg39
Nsg40
Nsg41
Nsg42
I00
sg43
Nsg45
I00
sba(iwrapper_utilities.class_info
CppClassInfo
p163
(dp164
g4
Nsg5
(dp165
g7
g8
sg9
g10
sg11
g12
sg13
g14
sg15
g16
sg17
g18
sg19
g20
sS'*'
g21
sg22
g23
sg24
g23
sg25
g26
sg27
g23
ssg28
S'AbstractLinearEllipticPde'
p166
sg30
I00
sg31
I00
sg32
Nsg33
Nsg35
I01
sg36
I01
sg37
I00
sg38
Nsg39
Nsg40
Nsg41
Nsg42
I00
sg43
Nsg45
I00
sba(iwrapper_utilities.class_info
CppClassInfo
p167
(dp168
g4
Nsg5
(dp169
g7
g8
sg9
g10
sg11
g12
sg13
g14
sg15
g16
sg17
g18
sg19
g20
sS'*'
g21
sg22
g23
sg24
g23
sg25
g26
sg27
g23
ssg28
S'AbstractNonlinearEllipticPde'
p170
sg30
I00
sg31
I00
sg32
Nsg33
S'pde'
p171
sg35
I01
sg36
I01
sg37
I00
sg38
Nsg39
(lp172
(lp173
I2
aa(lp174
I3
aasg40
Nsg41
Nsg42
I00
sg43
S'/home/grogan/Chaste/pde/src/problem/AbstractNonlinearEllipticPde.hpp'
p175
sg45
I00
sba(iwrapper_utilities.class_info
CppClassInfo
p176
(dp177
g4
Nsg5
(dp178
g7
g8
sg9
g10
sg11
g12
sg13
g14
sg15
g16
sg17
g18
sg19
g20
sS'*'
g21
sg22
g23
sg24
g23
sg25
g26
sg27
g23
ssg28
S'AbstractBoundaryCondition'
p179
sg30
I00
sg31
I00
sg32
Nsg33
g171
sg35
I01
sg36
I01
sg37
I00
sg38
Nsg39
g172
sg40
Nsg41
Nsg42
I00
sg43
S'/home/grogan/Chaste/pde/src/common/AbstractBoundaryCondition.hpp'
p180
sg45
I00
sba(iwrapper_utilities.class_info
CppClassInfo
p181
(dp182
g4
Nsg5
(dp183
g7
g8
sg9
g10
sg11
g12
sg13
g14
sg15
g16
sg17
g18
sg19
g20
sS'*'
g21
sg22
g23
sg24
g23
sg25
g26
sg27
g23
ssg28
S'ConstBoundaryCondition'
p184
sg30
I00
sg31
I00
sg32
Nsg33
g171
sg35
I01
sg36
I01
sg37
I00
sg38
Nsg39
g172
sg40
Nsg41
Nsg42
I00
sg43
S'/home/grogan/Chaste/pde/src/common/ConstBoundaryCondition.hpp'
p185
sg45
I00
sba(iwrapper_utilities.class_info
CppClassInfo
p186
(dp187
g4
Nsg5
(dp188
g7
g8
sg9
g10
sg11
g12
sg13
g14
sg15
g16
sg17
g18
sg19
g20
sS'*'
g21
sg22
g23
sg24
g23
sg25
g26
sg27
g23
ssg28
S'PdeSimulationTime'
p189
sg30
I00
sg31
I00
sg32
Nsg33
g171
sg35
I01
sg36
I01
sg37
I00
sg38
Nsg39
Nsg40
Nsg41
Nsg42
I00
sg43
S'/home/grogan/Chaste/pde/src/common/PdeSimulationTime.hpp'
p190
sg45
I00
sba(iwrapper_utilities.class_info
CppClassInfo
p191
(dp192
g4
(lp193
(lp194
S'rGetLocation'
p195
aS'copy_const_reference'
p196
aasg5
(dp197
g7
g8
sg9
g10
sg11
g12
sg13
g14
sg15
g16
sg17
g18
sg19
g20
sS'*'
g21
sg22
g23
sg24
g23
sg25
g26
sg27
g23
ssg28
S'ChastePoint'
p198
sg30
I00
sg31
I00
sg32
Nsg33
S'mesh'
p199
sg35
I01
sg36
I01
sg37
I00
sg38
Nsg39
g172
sg40
Nsg41
Nsg42
I00
sg43
S'/home/grogan/Chaste/mesh/src/common/ChastePoint.hpp'
p200
sg45
I00
sba(iwrapper_utilities.class_info
CppClassInfo
p201
(dp202
g4
Nsg5
(dp203
g7
g8
sg9
g10
sg11
g12
sg13
g14
sg15
g16
sg17
g18
sg19
g20
sS'*'
g21
sg22
g23
sg24
g23
sg25
g26
sg27
g23
ssg28
S'NodeAttributes'
p204
sg30
I00
sg31
I00
sg32
Nsg33
g199
sg35
I01
sg36
I01
sg37
I00
sg38
Nsg39
g172
sg40
Nsg41
Nsg42
I00
sg43
S'/home/grogan/Chaste/mesh/src/common/NodeAttributes.hpp'
p205
sg45
I00
sba(iwrapper_utilities.class_info
CppClassInfo
p206
(dp207
g4
Nsg5
(dp208
g7
g8
sg9
g10
sg11
g12
sg13
g14
sg15
g16
sg17
g18
sg19
g20
sS'*'
g21
sg22
g23
sg24
g23
sg25
g26
sg27
g23
ssg28
S'Node'
p209
sg30
I00
sg31
I00
sg32
Nsg33
g199
sg35
I01
sg36
I01
sg37
I00
sg38
Nsg39
g172
sg40
Nsg41
Nsg42
I01
sg43
S'/home/grogan/Chaste/mesh/src/common/Node.hpp'
p210
sg45
I00
sba(iwrapper_utilities.class_info
CppClassInfo
p211
(dp212
g4
Nsg5
(dp213
g7
g8
sg9
g10
sg11
g12
sg13
g14
sg15
g16
sg17
g18
sg19
g20
sS'*'
g21
sg22
g23
sg24
g23
sg25
g26
sg27
g23
ssg28
S'Element'
p214
sg30
I00
sg31
I00
sg32
Nsg33
g199
sg35
I01
sg36
I01
sg37
I00
sg38
Nsg39
(lp215
(lp216
I2
aI2
aa(lp217
I3
aI3
aasg40
(lp218
S'CalculateCircumsphereVolume'
p219
asg41
Nsg42
I01
sg43
S'/home/grogan/Chaste/mesh/src/common/Element.hpp'
p220
sg45
I00
sba(iwrapper_utilities.class_info
CppClassInfo
p221
(dp222
g4
Nsg5
(dp223
g7
g8
sg9
g10
sg11
g12
sg13
g14
sg15
g16
sg17
g18
sg19
g20
sS'*'
g21
sg22
g23
sg24
g23
sg25
g26
sg27
g23
ssg28
S'NodesOnlyMesh'
p224
sg30
I00
sg31
I00
sg32
Nsg33
g199
sg35
I01
sg36
I01
sg37
I00
sg38
Nsg39
g172
sg40
Nsg41
Nsg42
I00
sg43
S'/home/grogan/Chaste/mesh/src/common/NodesOnlyMesh.hpp'
p225
sg45
I00
sba(iwrapper_utilities.class_info
CppClassInfo
p226
(dp227
g4
Nsg5
(dp228
g7
g8
sg9
g10
sg11
g12
sg13
g14
sg15
g16
sg17
g18
sg19
g20
sS'*'
g21
sg22
g23
sg24
g23
sg25
g26
sg27
g23
ssg28
S'MutableMesh'
p229
sg30
I00
sg31
I00
sg32
Nsg33
g199
sg35
I01
sg36
I01
sg37
I00
sg38
Nsg39
g215
sg40
(lp230
S'SplitLongEdges'
p231
aS'RescaleMeshFromBoundaryNode'
p232
asg41
Nsg42
I00
sg43
S'/home/grogan/Chaste/mesh/src/common/MutableMesh.hpp'
p233
sg45
I00
sba(iwrapper_utilities.class_info
CppClassInfo
p234
(dp235
g4
Nsg5
(dp236
g7
g8
sg9
g10
sg11
g12
sg13
g14
sg15
g16
sg17
g18
sg19
g20
sS'*'
g21
sg22
g23
sg24
g23
sg25
g26
sg27
g23
ssg28
S'PottsMesh'
p237
sg30
I00
sg31
I00
sg32
Nsg33
S'cell_based'
p238
sg35
I01
sg36
I01
sg37
I00
sg38
Nsg39
g172
sg40
Nsg41
Nsg42
I00
sg43
S'/home/grogan/Chaste/cell_based/src/mesh/PottsMesh.hpp'
p239
sg45
I00
sba(iwrapper_utilities.class_info
CppClassInfo
p240
(dp241
g4
Nsg5
(dp242
g7
g8
sg9
g10
sg11
g12
sg13
g14
sg15
g16
sg17
g18
sg19
g20
sS'*'
g21
sg22
g23
sg24
g23
sg25
g26
sg27
g23
ssg28
S'SharedPottsMeshGenerator'
p243
sg30
I00
sg31
I00
sg32
Nsg33
g199
sg35
I01
sg36
I01
sg37
I00
sg38
Nsg39
g172
sg40
Nsg41
S'PottsMeshGenerator'
p244
sg42
I00
sg43
S'/home/grogan/Chaste/projects/PyChaste/src/mesh/SharedPottsMeshGenerator.hpp'
p245
sg45
I00
sba(iwrapper_utilities.class_info
CppClassInfo
p246
(dp247
g4
Nsg5
(dp248
g7
g8
sg9
g10
sg11
g12
sg13
g14
sg15
g16
sg17
g18
sg19
g20
sS'*'
g21
sg22
g23
sg24
g23
sg25
g26
sg27
g23
ssg28
S'PottsElement'
p249
sg30
I00
sg31
I00
sg32
Nsg33
g238
sg35
I01
sg36
I01
sg37
I00
sg38
Nsg39
g172
sg40
Nsg41
Nsg42
I01
sg43
S'/home/grogan/Chaste/cell_based/src/mesh/PottsElement.hpp'
p250
sg45
I00
sba(iwrapper_utilities.class_info
CppClassInfo
p251
(dp252
g4
Nsg5
(dp253
g7
g8
sg9
g10
sg11
g12
sg13
g14
sg15
g16
sg17
g18
sg19
g20
sS'*'
g21
sg22
g23
sg24
g23
sg25
g26
sg27
g23
ssg28
S'TetrahedralMesh'
p254
sg30
I00
sg31
I00
sg32
Nsg33
g199
sg35
I01
sg36
I01
sg37
I00
sg38
Nsg39
g215
sg40
(lp255
S'FreeTriangulateIo'
p256
aS'InitialiseTriangulateIo'
p257
asg41
Nsg42
I00
sg43
S'/home/grogan/Chaste/mesh/src/common/TetrahedralMesh.hpp'
p258
sg45
I00
sba(iwrapper_utilities.class_info
CppClassInfo
p259
(dp260
g4
Nsg5
(dp261
g7
g8
sg9
g10
sg11
g12
sg13
g14
sg15
g16
sg17
g18
sg19
g20
sS'*'
g21
sg22
g23
sg24
g23
sg25
g26
sg27
g23
ssg28
S'AbstractTetrahedralMesh'
p262
sg30
I00
sg31
I00
sg32
Nsg33
g199
sg35
I01
sg36
I01
sg37
I00
sg38
Nsg39
g215
sg40
Nsg41
Nsg42
I00
sg43
S'/home/grogan/Chaste/mesh/src/common/AbstractTetrahedralMesh.hpp'
p263
sg45
I00
sba(iwrapper_utilities.class_info
CppClassInfo
p264
(dp265
g4
Nsg5
(dp266
g7
g8
sg9
g10
sg11
g12
sg13
g14
sg15
g16
sg17
g18
sg19
g20
sS'*'
g21
sg22
g23
sg24
g23
sg25
g26
sg27
g23
ssg28
S'AbstractMesh'
p267
sg30
I00
sg31
I00
sg32
Nsg33
g199
sg35
I01
sg36
I01
sg37
I00
sg38
Nsg39
g215
sg40
Nsg41
Nsg42
I00
sg43
S'/home/grogan/Chaste/mesh/src/common/AbstractMesh.hpp'
p268
sg45
I00
sba(iwrapper_utilities.class_info
CppClassInfo
p269
(dp270
g4
Nsg5
(dp271
g7
g8
sg9
g10
sg11
g12
sg13
g14
sg15
g16
sg17
g18
sg19
g20
sS'*'
g21
sg22
g23
sg24
g23
sg25
g26
sg27
g23
ssg28
S'VertexMesh'
p272
sg30
I00
sg31
I00
sg32
Nsg33
g199
sg35
I01
sg36
I01
sg37
I00
sg38
Nsg39
g215
sg40
(lp273
S'GetFace'
p274
asg41
Nsg42
I00
sg43
S'/home/grogan/Chaste/mesh/src/vertex/VertexMesh.hpp'
p275
sg45
I00
sba(iwrapper_utilities.class_info
CppClassInfo
p276
(dp277
g4
Nsg5
(dp278
g7
g8
sg9
g10
sg11
g12
sg13
g14
sg15
g16
sg17
g18
sg19
g20
sS'*'
g21
sg22
g23
sg24
g23
sg25
g26
sg27
g23
ssg28
S'MutableVertexMesh'
p279
sg30
I00
sg31
I00
sg32
Nsg33
g199
sg35
I01
sg36
I01
sg37
I00
sg38
Nsg39
g215
sg40
Nsg41
Nsg42
I00
sg43
S'/home/grogan/Chaste/mesh/src/vertex/MutableVertexMesh.hpp'
p280
sg45
I00
sba(iwrapper_utilities.class_info
CppClassInfo
p281
(dp282
g4
Nsg5
(dp283
g7
g8
sg9
g10
sg11
g12
sg13
g14
sg15
g16
sg17
g18
sg19
g20
sS'*'
g21
sg22
g23
sg24
g23
sg25
g26
sg27
g23
ssg28
S'Cylindrical2dVertexMesh'
p284
sg30
I00
sg31
I00
sg32
Nsg33
g199
sg35
I01
sg36
I01
sg37
I00
sg38
Nsg39
Nsg40
Nsg41
Nsg42
I00
sg43
S'/home/grogan/Chaste/mesh/src/vertex/Cylindrical2dVertexMesh.hpp'
p285
sg45
I00
sba(iwrapper_utilities.class_info
CppClassInfo
p286
(dp287
g4
Nsg5
(dp288
g7
g8
sg9
g10
sg11
g12
sg13
g14
sg15
g16
sg17
g18
sg19
g20
sS'*'
g21
sg22
g23
sg24
g23
sg25
g26
sg27
g23
ssg28
S'SharedHoneycombMeshGenerator'
p289
sg30
I00
sg31
I00
sg32
Nsg33
g199
sg35
I01
sg36
I01
sg37
I00
sg38
Nsg39
Nsg40
Nsg41
S'HoneycombMeshGenerator'
p290
sg42
I00
sg43
S'/home/grogan/Chaste/projects/PyChaste/src/mesh/SharedHoneycombMeshGenerator.hpp'
p291
sg45
I00
sba(iwrapper_utilities.class_info
CppClassInfo
p292
(dp293
g4
Nsg5
(dp294
g7
g8
sg9
g10
sg11
g12
sg13
g14
sg15
g16
sg17
g18
sg19
g20
sS'*'
g21
sg22
g23
sg24
g23
sg25
g26
sg27
g23
ssg28
S'SharedHoneycombVertexMeshGenerator'
p295
sg30
I00
sg31
I00
sg32
Nsg33
g199
sg35
I01
sg36
I01
sg37
I00
sg38
Nsg39
Nsg40
Nsg41
S'HoneycombVertexMeshGenerator'
p296
sg42
I00
sg43
S'/home/grogan/Chaste/projects/PyChaste/src/mesh/SharedHoneycombVertexMeshGenerator.hpp'
p297
sg45
I00
sba(iwrapper_utilities.class_info
CppClassInfo
p298
(dp299
g4
Nsg5
(dp300
g7
g8
sg9
g10
sg11
g12
sg13
g14
sg15
g16
sg17
g18
sg19
g20
sS'*'
g21
sg22
g23
sg24
g23
sg25
g26
sg27
g23
ssg28
S'SharedCylindricalHoneycombVertexMeshGenerator'
p301
sg30
I00
sg31
I00
sg32
Nsg33
g199
sg35
I01
sg36
I01
sg37
I00
sg38
Nsg39
Nsg40
Nsg41
S'CylindricalHoneycombVertexMeshGenerator'
p302
sg42
I00
sg43
S'/home/grogan/Chaste/projects/PyChaste/src/mesh/SharedCylindricalHoneycombVertexMeshGenerator.hpp'
p303
sg45
I00
sba(iwrapper_utilities.class_info
CppClassInfo
p304
(dp305
g4
Nsg5
(dp306
g7
g8
sg9
g10
sg11
g12
sg13
g14
sg15
g16
sg17
g18
sg19
g20
sS'*'
g21
sg22
g23
sg24
g23
sg25
g26
sg27
g23
ssg28
S'AbstractCellBasedSimulation'
p307
sg30
I00
sg31
I00
sg32
Nsg33
g238
sg35
I01
sg36
I01
sg37
I00
sg38
Nsg39
g215
sg40
(lp308
S'GetSimulationModifiers'
p309
asg41
Nsg42
I00
sg43
S'/home/grogan/Chaste/cell_based/src/simulation/AbstractCellBasedSimulation.hpp'
p310
sg45
I00
sba(iwrapper_utilities.class_info
CppClassInfo
p311
(dp312
g4
Nsg5
(dp313
g7
g8
sg9
g10
sg11
g12
sg13
g14
sg15
g16
sg17
g18
sg19
g20
sS'*'
g21
sg22
g23
sg24
g23
sg25
g26
sg27
g23
ssg28
S'SimulationTime'
p314
sg30
I00
sg31
I00
sg32
Nsg33
g238
sg35
I01
sg36
I01
sg37
I00
sg38
Nsg39
Nsg40
Nsg41
Nsg42
I00
sg43
S'/home/grogan/Chaste/cell_based/src/common/SimulationTime.hpp'
p315
sg45
I00
sba(iwrapper_utilities.class_info
CppClassInfo
p316
(dp317
g4
Nsg5
(dp318
g7
g8
sg9
g10
sg11
g12
sg13
g14
sg15
g16
sg17
g18
sg19
g20
sS'*'
g21
sg22
g23
sg24
g23
sg25
g26
sg27
g23
ssg28
S'OnLatticeSimulation'
p319
sg30
I00
sg31
I00
sg32
Nsg33
g238
sg35
I01
sg36
I01
sg37
I00
sg38
Nsg39
g172
sg40
Nsg41
Nsg42
I00
sg43
S'/home/grogan/Chaste/cell_based/src/simulation/OnLatticeSimulation.hpp'
p320
sg45
I00
sba(iwrapper_utilities.class_info
CppClassInfo
p321
(dp322
g4
Nsg5
(dp323
g7
g8
sg9
g10
sg11
g12
sg13
g14
sg15
g16
sg17
g18
sg19
g20
sS'*'
g21
sg22
g23
sg24
g23
sg25
g26
sg27
g23
ssg28
S'OffLatticeSimulation'
p324
sg30
I00
sg31
I00
sg32
Nsg33
g238
sg35
I01
sg36
I01
sg37
I00
sg38
Nsg39
g215
sg40
Nsg41
Nsg42
I00
sg43
S'/home/grogan/Chaste/cell_based/src/simulation/OffLatticeSimulation.hpp'
p325
sg45
I00
sba(iwrapper_utilities.class_info
CppClassInfo
p326
(dp327
g4
Nsg5
(dp328
g7
g8
sg9
g10
sg11
g12
sg13
g14
sg15
g16
sg17
g18
sg19
g20
sS'*'
g21
sg22
g23
sg24
g23
sg25
g26
sg27
g23
ssg28
S'AbstractCellPopulation'
p329
sg30
I00
sg31
I00
sg32
Nsg33
g238
sg35
I01
sg36
I01
sg37
I00
sg38
Nsg39
g215
sg40
(lp330
S'rGetCells'
p331
asg41
Nsg42
I00
sg43
S'/home/grogan/Chaste/cell_based/src/population/AbstractCellPopulation.hpp'
p332
sg45
I00
sba(iwrapper_utilities.class_info
CppClassInfo
p333
(dp334
g4
Nsg5
(dp335
g7
g8
sg9
g10
sg11
g12
sg13
g14
sg15
g16
sg17
g18
sg19
g20
sS'*'
g21
sg22
g23
sg24
g23
sg25
g26
sg27
g23
ssg28
S'AbstractOnLatticeCellPopulation'
p336
sg30
I00
sg31
I00
sg32
Nsg33
g238
sg35
I01
sg36
I01
sg37
I00
sg38
Nsg39
g172
sg40
Nsg41
Nsg42
I00
sg43
S'/home/grogan/Chaste/cell_based/src/population/AbstractOnLatticeCellPopulation.hpp'
p337
sg45
I00
sba(iwrapper_utilities.class_info
CppClassInfo
p338
(dp339
g4
Nsg5
(dp340
g7
g8
sg9
g10
sg11
g12
sg13
g14
sg15
g16
sg17
g18
sg19
g20
sS'*'
g21
sg22
g23
sg24
g23
sg25
g26
sg27
g23
ssg28
S'AbstractCentreBasedCellPopulation'
p341
sg30
I00
sg31
I00
sg32
Nsg33
g238
sg35
I01
sg36
I01
sg37
I00
sg38
Nsg39
g215
sg40
(lp342
S'GetNodeCorrespondingToCell'
p343
asg41
Nsg42
I00
sg43
S'/home/grogan/Chaste/cell_based/src/population/AbstractCentreBasedCellPopulation.hpp'
p344
sg45
I00
sba(iwrapper_utilities.class_info
CppClassInfo
p345
(dp346
g4
Nsg5
(dp347
g7
g8
sg9
g10
sg11
g12
sg13
g14
sg15
g16
sg17
g18
sg19
g20
sS'*'
g21
sg22
g23
sg24
g23
sg25
g26
sg27
g23
ssg28
S'AbstractOffLatticeCellPopulation'
p348
sg30
I00
sg31
I00
sg32
Nsg33
g238
sg35
I01
sg36
I01
sg37
I00
sg38
Nsg39
g215
sg40
Nsg41
Nsg42
I00
sg43
S'/home/grogan/Chaste/cell_based/src/population/AbstractOffLatticeCellPopulation.hpp'
p349
sg45
I00
sba(iwrapper_utilities.class_info
CppClassInfo
p350
(dp351
g4
Nsg5
(dp352
g7
g8
sg9
g10
sg11
g12
sg13
g14
sg15
g16
sg17
g18
sg19
g20
sS'*'
g21
sg22
g23
sg24
g23
sg25
g26
sg27
g23
ssg28
S'CaBasedCellPopulation'
p353
sg30
I00
sg31
I00
sg32
Nsg33
g238
sg35
I01
sg36
I01
sg37
I00
sg38
Nsg39
g172
sg40
(lp354
S'rGetMesh'
p355
aS'GetTetrahedralMeshForPdeModifierGetNodeCorrespondingToCell'
p356
aS'rGetAvailableSpaces'
p357
asg41
Nsg42
I00
sg43
S'/home/grogan/Chaste/cell_based/src/population/CaBasedCellPopulation.hpp'
p358
sg45
I00
sba(iwrapper_utilities.class_info
CppClassInfo
p359
(dp360
g4
Nsg5
(dp361
g7
g8
sg9
g10
sg11
g12
sg13
g14
sg15
g16
sg17
g18
sg19
g20
sS'*'
g21
sg22
g23
sg24
g23
sg25
g26
sg27
g23
ssg28
S'MeshBasedCellPopulation'
p362
sg30
I00
sg31
I00
sg32
Nsg33
g238
sg35
I01
sg36
I01
sg37
I00
sg38
Nsg39
g215
sg40
(lp363
S'GetVoronoiTessellation, rGetNodePairs, GetTetrahedralMeshForPdeModifier'
p364
ag355
asg41
Nsg42
I00
sg43
S'/home/grogan/Chaste/cell_based/src/population/MeshBasedCellPopulation.hpp'
p365
sg45
I00
sba(iwrapper_utilities.class_info
CppClassInfo
p366
(dp367
g4
Nsg5
(dp368
g7
g8
sg9
g10
sg11
g12
sg13
g14
sg15
g16
sg17
g18
sg19
g20
sS'*'
g21
sg22
g23
sg24
g23
sg25
g26
sg27
g23
ssg28
S'MeshBasedCellPopulationWithGhostNodes'
p369
sg30
I00
sg31
I00
sg32
Nsg33
g238
sg35
I01
sg36
I01
sg37
I00
sg38
Nsg39
g172
sg40
Nsg41
Nsg42
I00
sg43
S'/home/grogan/Chaste/cell_based/src/population/MeshBasedCellPopulationWithGhostNodes.hpp'
p370
sg45
I00
sba(iwrapper_utilities.class_info
CppClassInfo
p371
(dp372
g4
Nsg5
(dp373
g7
g8
sg9
g10
sg11
g12
sg13
g14
sg15
g16
sg17
g18
sg19
g20
sS'*'
g21
sg22
g23
sg24
g23
sg25
g26
sg27
g23
ssg28
S'VertexBasedCellPopulation'
p374
sg30
I00
sg31
I00
sg32
Nsg33
g238
sg35
I01
sg36
I01
sg37
I00
sg38
Nsg39
g172
sg40
(lp375
g355
aS'GetTetrahedralMeshForPdeModifier'
p376
aS'GetElement'
p377
aS'GetElementCorrespondingToCell'
p378
asg41
Nsg42
I00
sg43
S'/home/grogan/Chaste/cell_based/src/population/VertexBasedCellPopulation.hpp'
p379
sg45
I00
sba(iwrapper_utilities.class_info
CppClassInfo
p380
(dp381
g4
Nsg5
(dp382
g7
g8
sg9
g10
sg11
g12
sg13
g14
sg15
g16
sg17
g18
sg19
g20
sS'*'
g21
sg22
g23
sg24
g23
sg25
g26
sg27
g23
ssg28
S'PottsBasedCellPopulation'
p383
sg30
I00
sg31
I00
sg32
Nsg33
g238
sg35
I01
sg36
I01
sg37
I00
sg38
Nsg39
g172
sg40
(lp384
g355
ag376
ag377
ag378
aS'GetElementTessellation'
p385
aS'GetMutableMesh'
p386
asg41
Nsg42
I00
sg43
S'/home/grogan/Chaste/cell_based/src/population/PottsBasedCellPopulation.hpp'
p387
sg45
I00
sba(iwrapper_utilities.class_info
CppClassInfo
p388
(dp389
g4
Nsg5
(dp390
g7
g8
sg9
g10
sg11
g12
sg13
g14
sg15
g16
sg17
g18
sg19
g20
sS'*'
g21
sg22
g23
sg24
g23
sg25
g26
sg27
g23
ssg28
S'NodeBasedCellPopulation'
p391
sg30
I00
sg31
I00
sg32
Nsg33
g238
sg35
I01
sg36
I01
sg37
I00
sg38
Nsg39
g172
sg40
(lp392
g355
ag376
aS'rGetNodePairs'
p393
asg41
Nsg42
I00
sg43
S'/home/grogan/Chaste/cell_based/src/population/NodeBasedCellPopulation.hpp'
p394
sg45
I00
sba(iwrapper_utilities.class_info
CppClassInfo
p395
(dp396
g4
Nsg5
(dp397
g7
g8
sg9
g10
sg11
g12
sg13
g14
sg15
g16
sg17
g18
sg19
g20
sS'*'
g21
sg22
g23
sg24
g23
sg25
g26
sg27
g23
ssg28
S'VoronoiDataWriter'
p398
sg30
I00
sg31
I00
sg32
Nsg33
g238
sg35
I01
sg36
I01
sg37
I00
sg38
Nsg39
g215
sg40
Nsg41
Nsg42
I00
sg43
S'/home/grogan/Chaste/cell_based/src/writers/population_writers/VoronoiDataWriter.hpp'
p399
sg45
I00
sba(iwrapper_utilities.class_info
CppClassInfo
p400
(dp401
g4
Nsg5
(dp402
g7
g8
sg9
g10
sg11
g12
sg13
g14
sg15
g16
sg17
g18
sg19
g20
sS'*'
g21
sg22
g23
sg24
g23
sg25
g26
sg27
g23
ssg28
S'CellLabelWriter'
p403
sg30
I00
sg31
I00
sg32
Nsg33
g238
sg35
I01
sg36
I01
sg37
I00
sg38
Nsg39
g215
sg40
Nsg41
Nsg42
I00
sg43
S'/home/grogan/Chaste/cell_based/src/writers/cell_writers/CellLabelWriter.hpp'
p404
sg45
I00
sba(iwrapper_utilities.class_info
CppClassInfo
p405
(dp406
g4
Nsg5
(dp407
g7
g8
sg9
g10
sg11
g12
sg13
g14
sg15
g16
sg17
g18
sg19
g20
sS'*'
g21
sg22
g23
sg24
g23
sg25
g26
sg27
g23
ssg28
S'AbstractCellPopulationBoundaryCondition'
p408
sg30
I00
sg31
I00
sg32
Nsg33
g238
sg35
I01
sg36
I01
sg37
I00
sg38
Nsg39
g215
sg40
Nsg41
Nsg42
I00
sg43
S'/home/grogan/Chaste/cell_based/src/population/boundary_conditions/AbstractCellPopulationBoundaryCondition.hpp'
p409
sg45
I00
sba(iwrapper_utilities.class_info
CppClassInfo
p410
(dp411
g4
Nsg5
(dp412
g7
g8
sg9
g10
sg11
g12
sg13
g14
sg15
g16
sg17
g18
sg19
g20
sS'*'
g21
sg22
g23
sg24
g23
sg25
g26
sg27
g23
ssg28
S'PlaneBoundaryCondition'
p413
sg30
I00
sg31
I00
sg32
Nsg33
g238
sg35
I01
sg36
I01
sg37
I00
sg38
Nsg39
g215
sg40
Nsg41
Nsg42
I00
sg43
S'/home/grogan/Chaste/cell_based/src/population/boundary_conditions/PlaneBoundaryCondition.hpp'
p414
sg45
I00
sba(iwrapper_utilities.class_info
CppClassInfo
p415
(dp416
g4
(lp417
(lp418
S'rGetNormalToPlane'
p419
ag196
aa(lp420
S'rGetPointOnPlane'
p421
ag196
aasg5
(dp422
g7
g8
sg9
g10
sg11
g12
sg13
g14
sg15
g16
sg17
g18
sg19
g20
sS'*'
g21
sg22
g23
sg24
g23
sg25
g26
sg27
g23
ssg28
S'AttractingPlaneBoundaryCondition'
p423
sg30
I00
sg31
I00
sg32
Nsg33
g238
sg35
I01
sg36
I01
sg37
I00
sg38
Nsg39
g215
sg40
Nsg41
Nsg42
I00
sg43
S'/home/grogan/Chaste/projects/PyChaste/src/cell_based/AttractingPlaneBoundaryCondition.hpp'
p424
sg45
I00
sba(iwrapper_utilities.class_info
CppClassInfo
p425
(dp426
g4
Nsg5
(dp427
g7
g8
sg9
g10
sg11
g12
sg13
g14
sg15
g16
sg17
g18
sg19
g20
sS'*'
g21
sg22
g23
sg24
g23
sg25
g26
sg27
g23
ssg28
S'SphereGeometryBoundaryCondition'
p428
sg30
I00
sg31
I00
sg32
Nsg33
g238
sg35
I01
sg36
I01
sg37
I00
sg38
Nsg39
g172
sg40
Nsg41
Nsg42
I00
sg43
S'/home/grogan/Chaste/cell_based/src/population/boundary_conditions/SphereGeometryBoundaryCondition.hpp'
p429
sg45
I00
sba(iwrapper_utilities.class_info
CppClassInfo
p430
(dp431
g4
Nsg5
(dp432
g7
g8
sg9
g10
sg11
g12
sg13
g14
sg15
g16
sg17
g18
sg19
g20
sS'*'
g21
sg22
g23
sg24
g23
sg25
g26
sg27
g23
ssg28
S'AbstractCellKiller'
p433
sg30
I00
sg31
I00
sg32
Nsg33
g238
sg35
I01
sg36
I01
sg37
I00
sg38
Nsg39
g172
sg40
Nsg41
Nsg42
I00
sg43
S'/home/grogan/Chaste/cell_based/src/population/killers/AbstractCellKiller.hpp'
p434
sg45
I00
sba(iwrapper_utilities.class_info
CppClassInfo
p435
(dp436
g4
Nsg5
(dp437
g7
g8
sg9
g10
sg11
g12
sg13
g14
sg15
g16
sg17
g18
sg19
g20
sS'*'
g21
sg22
g23
sg24
g23
sg25
g26
sg27
g23
ssg28
S'PlaneBasedCellKiller'
p438
sg30
I00
sg31
I00
sg32
Nsg33
g238
sg35
I01
sg36
I01
sg37
I00
sg38
Nsg39
g172
sg40
Nsg41
Nsg42
I00
sg43
S'/home/grogan/Chaste/cell_based/src/population/killers/PlaneBasedCellKiller.hpp'
p439
sg45
I00
sba(iwrapper_utilities.class_info
CppClassInfo
p440
(dp441
g4
Nsg5
(dp442
g7
g8
sg9
g10
sg11
g12
sg13
g14
sg15
g16
sg17
g18
sg19
g20
sS'*'
g21
sg22
g23
sg24
g23
sg25
g26
sg27
g23
ssg28
S'ApoptoticCellKiller'
p443
sg30
I00
sg31
I00
sg32
Nsg33
g238
sg35
I01
sg36
I01
sg37
I00
sg38
Nsg39
g172
sg40
Nsg41
Nsg42
I00
sg43
S'/home/grogan/Chaste/cell_based/src/population/killers/ApoptoticCellKiller.hpp'
p444
sg45
I00
sba(iwrapper_utilities.class_info
CppClassInfo
p445
(dp446
g4
Nsg5
(dp447
g7
g8
sg9
g10
sg11
g12
sg13
g14
sg15
g16
sg17
g18
sg19
g20
sS'*'
g21
sg22
g23
sg24
g23
sg25
g26
sg27
g23
ssg28
S'AbstractForce'
p448
sg30
I00
sg31
I00
sg32
Nsg33
g238
sg35
I01
sg36
I01
sg37
I00
sg38
Nsg39
g215
sg40
Nsg41
Nsg42
I01
sg43
S'/home/grogan/Chaste/cell_based/src/population/forces/AbstractForce.hpp'
p449
sg45
I00
sba(iwrapper_utilities.class_info
CppClassInfo
p450
(dp451
g4
Nsg5
(dp452
g7
g8
sg9
g10
sg11
g12
sg13
g14
sg15
g16
sg17
g18
sg19
g20
sS'*'
g21
sg22
g23
sg24
g23
sg25
g26
sg27
g23
ssg28
S'AbstractTwoBodyInteractionForce'
p453
sg30
I00
sg31
I00
sg32
Nsg33
g238
sg35
I01
sg36
I01
sg37
I00
sg38
Nsg39
g215
sg40
Nsg41
Nsg42
I00
sg43
S'/home/grogan/Chaste/cell_based/src/population/forces/AbstractTwoBodyInteractionForce.hpp'
p454
sg45
I00
sba(iwrapper_utilities.class_info
CppClassInfo
p455
(dp456
g4
Nsg5
(dp457
g7
g8
sg9
g10
sg11
g12
sg13
g14
sg15
g16
sg17
g18
sg19
g20
sS'*'
g21
sg22
g23
sg24
g23
sg25
g26
sg27
g23
ssg28
S'GeneralisedLinearSpringForce'
p458
sg30
I00
sg31
I00
sg32
Nsg33
g238
sg35
I01
sg36
I01
sg37
I00
sg38
Nsg39
g215
sg40
Nsg41
Nsg42
I00
sg43
S'/home/grogan/Chaste/cell_based/src/population/forces/GeneralisedLinearSpringForce.hpp'
p459
sg45
I00
sba(iwrapper_utilities.class_info
CppClassInfo
p460
(dp461
g4
Nsg5
(dp462
g7
g8
sg9
g10
sg11
g12
sg13
g14
sg15
g16
sg17
g18
sg19
g20
sS'*'
g21
sg22
g23
sg24
g23
sg25
g26
sg27
g23
ssg28
S'NagaiHondaForce'
p463
sg30
I00
sg31
I00
sg32
Nsg33
g238
sg35
I01
sg36
I01
sg37
I00
sg38
Nsg39
g172
sg40
Nsg41
Nsg42
I00
sg43
S'/home/grogan/Chaste/cell_based/src/population/forces/NagaiHondaForce.hpp'
p464
sg45
I00
sba(iwrapper_utilities.class_info
CppClassInfo
p465
(dp466
g4
Nsg5
(dp467
g7
g8
sg9
g10
sg11
g12
sg13
g14
sg15
g16
sg17
g18
sg19
g20
sS'*'
g21
sg22
g23
sg24
g23
sg25
g26
sg27
g23
ssg28
S'AbstractVertexBasedDivisionRule'
p468
sg30
I00
sg31
I00
sg32
Nsg33
g238
sg35
I01
sg36
I01
sg37
I00
sg38
Nsg39
g172
sg40
Nsg41
Nsg42
I00
sg43
S'/home/grogan/Chaste/cell_based/src/population/division_rules/AbstractVertexBasedDivisionRule.hpp'
p469
sg45
I00
sba(iwrapper_utilities.class_info
CppClassInfo
p470
(dp471
g4
Nsg5
(dp472
g7
g8
sg9
g10
sg11
g12
sg13
g14
sg15
g16
sg17
g18
sg19
g20
sS'*'
g21
sg22
g23
sg24
g23
sg25
g26
sg27
g23
ssg28
S'AbstractCaUpdateRule'
p473
sg30
I00
sg31
I00
sg32
Nsg33
g238
sg35
I01
sg36
I01
sg37
I00
sg38
Nsg39
g172
sg40
Nsg41
Nsg42
I00
sg43
S'/home/grogan/Chaste/cell_based/src/population/update_rules/AbstractCaUpdateRule.hpp'
p474
sg45
I00
sba(iwrapper_utilities.class_info
CppClassInfo
p475
(dp476
g4
Nsg5
(dp477
g7
g8
sg9
g10
sg11
g12
sg13
g14
sg15
g16
sg17
g18
sg19
g20
sS'*'
g21
sg22
g23
sg24
g23
sg25
g26
sg27
g23
ssg28
S'AbstractUpdateRule'
p478
sg30
I00
sg31
I00
sg32
Nsg33
g238
sg35
I01
sg36
I01
sg37
I00
sg38
Nsg39
g172
sg40
Nsg41
Nsg42
I01
sg43
S'/home/grogan/Chaste/cell_based/src/population/update_rules/AbstractUpdateRule.hpp'
p479
sg45
I00
sba(iwrapper_utilities.class_info
CppClassInfo
p480
(dp481
g4
Nsg5
(dp482
g7
g8
sg9
g10
sg11
g12
sg13
g14
sg15
g16
sg17
g18
sg19
g20
sS'*'
g21
sg22
g23
sg24
g23
sg25
g26
sg27
g23
ssg28
S'DiffusionCaUpdateRule'
p483
sg30
I00
sg31
I00
sg32
Nsg33
g238
sg35
I01
sg36
I01
sg37
I00
sg38
Nsg39
g172
sg40
Nsg41
Nsg42
I00
sg43
S'/home/grogan/Chaste/cell_based/src/population/update_rules/DiffusionCaUpdateRule.hpp'
p484
sg45
I00
sba(iwrapper_utilities.class_info
CppClassInfo
p485
(dp486
g4
Nsg5
(dp487
g7
g8
sg9
g10
sg11
g12
sg13
g14
sg15
g16
sg17
g18
sg19
g20
sS'*'
g21
sg22
g23
sg24
g23
sg25
g26
sg27
g23
ssg28
S'AbstractPottsUpdateRule'
p488
sg30
I00
sg31
I00
sg32
Nsg33
g238
sg35
I01
sg36
I01
sg37
I00
sg38
Nsg39
g172
sg40
Nsg41
Nsg42
I00
sg43
S'/home/grogan/Chaste/cell_based/src/population/update_rules/AbstractPottsUpdateRule.hpp'
p489
sg45
I00
sba(iwrapper_utilities.class_info
CppClassInfo
p490
(dp491
g4
Nsg5
(dp492
g7
g8
sg9
g10
sg11
g12
sg13
g14
sg15
g16
sg17
g18
sg19
g20
sS'*'
g21
sg22
g23
sg24
g23
sg25
g26
sg27
g23
ssg28
S'VolumeConstraintPottsUpdateRule'
p493
sg30
I00
sg31
I00
sg32
Nsg33
g238
sg35
I01
sg36
I01
sg37
I00
sg38
Nsg39
g172
sg40
Nsg41
Nsg42
I00
sg43
S'/home/grogan/Chaste/cell_based/src/population/update_rules/VolumeConstraintPottsUpdateRule.hpp'
p494
sg45
I00
sba(iwrapper_utilities.class_info
CppClassInfo
p495
(dp496
g4
Nsg5
(dp497
g7
g8
sg9
g10
sg11
g12
sg13
g14
sg15
g16
sg17
g18
sg19
g20
sS'*'
g21
sg22
g23
sg24
g23
sg25
g26
sg27
g23
ssg28
S'SurfaceAreaConstraintPottsUpdateRule'
p498
sg30
I00
sg31
I00
sg32
Nsg33
g238
sg35
I01
sg36
I01
sg37
I00
sg38
Nsg39
g172
sg40
Nsg41
Nsg42
I00
sg43
S'/home/grogan/Chaste/cell_based/src/population/update_rules/SurfaceAreaConstraintPottsUpdateRule.hpp'
p499
sg45
I00
sba(iwrapper_utilities.class_info
CppClassInfo
p500
(dp501
g4
Nsg5
(dp502
g7
g8
sg9
g10
sg11
g12
sg13
g14
sg15
g16
sg17
g18
sg19
g20
sS'*'
g21
sg22
g23
sg24
g23
sg25
g26
sg27
g23
ssg28
S'DifferentialAdhesionPottsUpdateRule'
p503
sg30
I00
sg31
I00
sg32
Nsg33
g238
sg35
I01
sg36
I01
sg37
I00
sg38
Nsg39
g172
sg40
Nsg41
Nsg42
I00
sg43
S'/home/grogan/Chaste/cell_based/src/population/update_rules/DifferentialAdhesionPottsUpdateRule.hpp'
p504
sg45
I00
sba(iwrapper_utilities.class_info
CppClassInfo
p505
(dp506
g4
Nsg5
(dp507
g7
g8
sg9
g10
sg11
g12
sg13
g14
sg15
g16
sg17
g18
sg19
g20
sS'*'
g21
sg22
g23
sg24
g23
sg25
g26
sg27
g23
ssg28
S'AdhesionPottsUpdateRule'
p508
sg30
I00
sg31
I00
sg32
Nsg33
g238
sg35
I01
sg36
I01
sg37
I00
sg38
Nsg39
g172
sg40
Nsg41
Nsg42
I00
sg43
S'/home/grogan/Chaste/cell_based/src/population/update_rules/AdhesionPottsUpdateRule.hpp'
p509
sg45
I00
sba(iwrapper_utilities.class_info
CppClassInfo
p510
(dp511
g4
Nsg5
(dp512
g7
g8
sg9
g10
sg11
g12
sg13
g14
sg15
g16
sg17
g18
sg19
g20
sS'*'
g21
sg22
g23
sg24
g23
sg25
g26
sg27
g23
ssg28
g158
sg30
I00
sg31
I00
sg32
Nsg33
g238
sg35
I00
sg36
I00
sg37
I00
sg38
Nsg39
g215
sg40
Nsg41
Nsg42
I00
sg43
S'/home/grogan/Chaste/pde/src/problem/AbstractLinearPde.hpp'
p513
sg45
I00
sba(iwrapper_utilities.class_info
CppClassInfo
p514
(dp515
g4
Nsg5
(dp516
g7
g8
sg9
g10
sg11
g12
sg13
g14
sg15
g16
sg17
g18
sg19
g20
sS'*'
g21
sg22
g23
sg24
g23
sg25
g26
sg27
g23
ssg28
g162
sg30
I00
sg31
I00
sg32
Nsg33
g238
sg35
I00
sg36
I00
sg37
I00
sg38
Nsg39
g215
sg40
Nsg41
Nsg42
I00
sg43
S'/home/grogan/Chaste/pde/src/problem/AbstractLinearParabolicPde.hpp'
p517
sg45
I00
sba(iwrapper_utilities.class_info
CppClassInfo
p518
(dp519
g4
Nsg5
(dp520
g7
g8
sg9
g10
sg11
g12
sg13
g14
sg15
g16
sg17
g18
sg19
g20
sS'*'
g21
sg22
g23
sg24
g23
sg25
g26
sg27
g23
ssg28
g166
sg30
I00
sg31
I00
sg32
Nsg33
g238
sg35
I00
sg36
I00
sg37
I00
sg38
Nsg39
g215
sg40
Nsg41
Nsg42
I00
sg43
S'/home/grogan/Chaste/pde/src/problem/AbstractLinearEllipticPde.hpp'
p521
sg45
I00
sba(iwrapper_utilities.class_info
CppClassInfo
p522
(dp523
g4
Nsg5
(dp524
g7
g8
sg9
g10
sg11
g12
sg13
g14
sg15
g16
sg17
g18
sg19
g20
sS'*'
g21
sg22
g23
sg24
g23
sg25
g26
sg27
g23
ssg28
S'CellwiseSourceEllipticPde'
p525
sg30
I00
sg31
I00
sg32
Nsg33
g238
sg35
I01
sg36
I01
sg37
I00
sg38
Nsg39
g172
sg40
Nsg41
Nsg42
I00
sg43
S'/home/grogan/Chaste/cell_based/src/cell_based_pde/pdes/CellwiseSourceEllipticPde.hpp'
p526
sg45
I00
sba(iwrapper_utilities.class_info
CppClassInfo
p527
(dp528
g4
Nsg5
(dp529
g7
g8
sg9
g10
sg11
g12
sg13
g14
sg15
g16
sg17
g18
sg19
g20
sS'*'
g21
sg22
g23
sg24
g23
sg25
g26
sg27
g23
ssg28
S'AveragedSourceEllipticPde'
p530
sg30
I00
sg31
I00
sg32
Nsg33
g238
sg35
I01
sg36
I01
sg37
I00
sg38
Nsg39
g172
sg40
Nsg41
Nsg42
I00
sg43
S'/home/grogan/Chaste/cell_based/src/cell_based_pde/pdes/AveragedSourceEllipticPde.hpp'
p531
sg45
I00
sba(iwrapper_utilities.class_info
CppClassInfo
p532
(dp533
g4
Nsg5
(dp534
g7
g8
sg9
g10
sg11
g12
sg13
g14
sg15
g16
sg17
g18
sg19
g20
sS'*'
g21
sg22
g23
sg24
g23
sg25
g26
sg27
g23
ssg28
S'AveragedSourceParabolicPde'
p535
sg30
I00
sg31
I00
sg32
Nsg33
g238
sg35
I01
sg36
I01
sg37
I00
sg38
Nsg39
g172
sg40
Nsg41
Nsg42
I00
sg43
S'/home/grogan/Chaste/cell_based/src/cell_based_pde/pdes/AveragedSourceParabolicPde.hpp'
p536
sg45
I00
sba(iwrapper_utilities.class_info
CppClassInfo
p537
(dp538
g4
Nsg5
(dp539
g7
g8
sg9
g10
sg11
g12
sg13
g14
sg15
g16
sg17
g18
sg19
g20
sS'*'
g21
sg22
g23
sg24
g23
sg25
g26
sg27
g23
ssg28
S'CellwiseSourceParabolicPde'
p540
sg30
I00
sg31
I00
sg32
Nsg33
g238
sg35
I01
sg36
I01
sg37
I00
sg38
Nsg39
g172
sg40
Nsg41
Nsg42
I00
sg43
S'/home/grogan/Chaste/cell_based/src/cell_based_pde/pdes/CellwiseSourceParabolicPde.hpp'
p541
sg45
I00
sba(iwrapper_utilities.class_info
CppClassInfo
p542
(dp543
g4
Nsg5
(dp544
g7
g8
sg9
g10
sg11
g12
sg13
g14
sg15
g16
sg17
g18
sg19
g20
sS'*'
g21
sg22
g23
sg24
g23
sg25
g26
sg27
g23
ssg28
S'AbstractPdeModifier'
p545
sg30
I00
sg31
I00
sg32
Nsg33
g238
sg35
I01
sg36
I01
sg37
I00
sg38
Nsg39
g172
sg40
(lp546
S'GetSolution, GetFeMesh'
p547
asg41
Nsg42
I00
sg43
S'/home/grogan/Chaste/cell_based/src/cell_based_pde/AbstractPdeModifier.hpp'
p548
sg45
I00
sba(iwrapper_utilities.class_info
CppClassInfo
p549
(dp550
g4
Nsg5
(dp551
g7
g8
sg9
g10
sg11
g12
sg13
g14
sg15
g16
sg17
g18
sg19
g20
sS'*'
g21
sg22
g23
sg24
g23
sg25
g26
sg27
g23
ssg28
S'AbstractGrowingDomainPdeModifier'
p552
sg30
I00
sg31
I00
sg32
Nsg33
g238
sg35
I01
sg36
I01
sg37
I00
sg38
Nsg39
g172
sg40
Nsg41
Nsg42
I00
sg43
S'/home/grogan/Chaste/cell_based/src/cell_based_pde/AbstractGrowingDomainPdeModifier.hpp'
p553
sg45
I00
sba(iwrapper_utilities.class_info
CppClassInfo
p554
(dp555
g4
Nsg5
(dp556
g7
g8
sg9
g10
sg11
g12
sg13
g14
sg15
g16
sg17
g18
sg19
g20
sS'*'
g21
sg22
g23
sg24
g23
sg25
g26
sg27
g23
ssg28
S'EllipticGrowingDomainPdeModifier'
p557
sg30
I00
sg31
I00
sg32
Nsg33
g238
sg35
I01
sg36
I01
sg37
I00
sg38
Nsg39
g172
sg40
(lp558
S'ConstructBoundaryConditionsContainer'
p559
asg41
Nsg42
I00
sg43
S'/home/grogan/Chaste/cell_based/src/cell_based_pde/EllipticGrowingDomainPdeModifier.hpp'
p560
sg45
I00
sba(iwrapper_utilities.class_info
CppClassInfo
p561
(dp562
g4
Nsg5
(dp563
g7
g8
sg9
g10
sg11
g12
sg13
g14
sg15
g16
sg17
g18
sg19
g20
sS'*'
g21
sg22
g23
sg24
g23
sg25
g26
sg27
g23
ssg28
S'Cell'
p564
sg30
I00
sg31
I00
sg32
Nsg33
g238
sg35
I01
sg36
I01
sg37
I00
sg38
Nsg39
Nsg40
(lp565
S'rGetCellPropertyCollection'
p566
aS'GetSrnModel'
p567
asg41
Nsg42
I01
sg43
S'/home/grogan/Chaste/cell_based/src/cell/Cell.hpp'
p568
sg45
I00
sba(iwrapper_utilities.class_info
CppClassInfo
p569
(dp570
g4
Nsg5
(dp571
g7
g8
sg9
g10
sg11
g12
sg13
g14
sg15
g16
sg17
g18
sg19
g20
sS'*'
g21
sg22
g23
sg24
g23
sg25
g26
sg27
g23
ssg28
S'CellsGenerator'
p572
sg30
I00
sg31
I00
sg32
Nsg33
g238
sg35
I01
sg36
I01
sg37
I00
sg38
Nsg39
(lp573
(lp574
S'UniformCellCycleModel'
p575
aI2
aa(lp576
g575
aI3
aa(lp577
S'SimpleOxygenBasedCellCycleModel'
p578
aI2
aa(lp579
g578
aI3
aa(lp580
S'UniformG1GenerationalCellCycleModel'
p581
aI2
aa(lp582
g581
aI3
aa(lp583
S'NoCellCycleModel'
p584
aI2
aa(lp585
g584
aI3
aasg40
Nsg41
Nsg42
I00
sg43
S'/home/grogan/Chaste/cell_based/src/cell/CellsGenerator.hpp'
p586
sg45
I00
sba(iwrapper_utilities.class_info
CppClassInfo
p587
(dp588
g4
Nsg5
(dp589
g7
g8
sg9
g10
sg11
g12
sg13
g14
sg15
g16
sg17
g18
sg19
g20
sS'*'
g21
sg22
g23
sg24
g23
sg25
g26
sg27
g23
ssg28
S'AbstractCellCycleModel'
p590
sg30
I00
sg31
I00
sg32
Nsg33
g238
sg35
I01
sg36
I01
sg37
I00
sg38
Nsg39
Nsg40
Nsg41
Nsg42
I00
sg43
S'/home/grogan/Chaste/cell_based/src/cell/cycle/AbstractCellCycleModel.hpp'
p591
sg45
I00
sba(iwrapper_utilities.class_info
CppClassInfo
p592
(dp593
g4
Nsg5
(dp594
g7
g8
sg9
g10
sg11
g12
sg13
g14
sg15
g16
sg17
g18
sg19
g20
sS'*'
g21
sg22
g23
sg24
g23
sg25
g26
sg27
g23
ssg28
S'AbstractPhaseBasedCellCycleModel'
p595
sg30
I00
sg31
I00
sg32
Nsg33
g238
sg35
I01
sg36
I01
sg37
I00
sg38
Nsg39
Nsg40
Nsg41
Nsg42
I00
sg43
S'/home/grogan/Chaste/cell_based/src/cell/cycle/AbstractPhaseBasedCellCycleModel.hpp'
p596
sg45
I00
sba(iwrapper_utilities.class_info
CppClassInfo
p597
(dp598
g4
Nsg5
(dp599
g7
g8
sg9
g10
sg11
g12
sg13
g14
sg15
g16
sg17
g18
sg19
g20
sS'*'
g21
sg22
g23
sg24
g23
sg25
g26
sg27
g23
ssg28
S'AbstractSimpleCellCycleModel'
p600
sg30
I00
sg31
I00
sg32
Nsg33
g238
sg35
I01
sg36
I01
sg37
I00
sg38
Nsg39
Nsg40
Nsg41
Nsg42
I00
sg43
S'/home/grogan/Chaste/cell_based/src/cell/cycle/AbstractSimpleCellCycleModel.hpp'
p601
sg45
I00
sba(iwrapper_utilities.class_info
CppClassInfo
p602
(dp603
g4
Nsg5
(dp604
g7
g8
sg9
g10
sg11
g12
sg13
g14
sg15
g16
sg17
g18
sg19
g20
sS'*'
g21
sg22
g23
sg24
g23
sg25
g26
sg27
g23
ssg28
S'AbstractSimplePhaseBasedCellCycleModel'
p605
sg30
I00
sg31
I00
sg32
Nsg33
g238
sg35
I01
sg36
I01
sg37
I00
sg38
Nsg39
Nsg40
Nsg41
Nsg42
I00
sg43
S'/home/grogan/Chaste/cell_based/src/cell/cycle/AbstractSimplePhaseBasedCellCycleModel.hpp'
p606
sg45
I00
sba(iwrapper_utilities.class_info
CppClassInfo
p607
(dp608
g4
Nsg5
(dp609
g7
g8
sg9
g10
sg11
g12
sg13
g14
sg15
g16
sg17
g18
sg19
g20
sS'*'
g21
sg22
g23
sg24
g23
sg25
g26
sg27
g23
ssg28
S'AbstractSimpleGenerationalCellCycleModel'
p610
sg30
I00
sg31
I00
sg32
Nsg33
g238
sg35
I01
sg36
I01
sg37
I00
sg38
Nsg39
Nsg40
Nsg41
Nsg42
I00
sg43
S'/home/grogan/Chaste/cell_based/src/cell/cycle/AbstractSimpleGenerationalCellCycleModel.hpp'
p611
sg45
I00
sba(iwrapper_utilities.class_info
CppClassInfo
p612
(dp613
g4
Nsg5
(dp614
g7
g8
sg9
g10
sg11
g12
sg13
g14
sg15
g16
sg17
g18
sg19
g20
sS'*'
g21
sg22
g23
sg24
g23
sg25
g26
sg27
g23
ssg28
g575
sg30
I00
sg31
I00
sg32
Nsg33
g238
sg35
I01
sg36
I01
sg37
I00
sg38
Nsg39
Nsg40
Nsg41
Nsg42
I00
sg43
S'/home/grogan/Chaste/cell_based/src/cell/cycle/UniformCellCycleModel.hpp'
p615
sg45
I00
sba(iwrapper_utilities.class_info
CppClassInfo
p616
(dp617
g4
Nsg5
(dp618
g7
g8
sg9
g10
sg11
g12
sg13
g14
sg15
g16
sg17
g18
sg19
g20
sS'*'
g21
sg22
g23
sg24
g23
sg25
g26
sg27
g23
ssg28
g578
sg30
I00
sg31
I00
sg32
Nsg33
g238
sg35
I01
sg36
I01
sg37
I00
sg38
Nsg39
Nsg40
Nsg41
Nsg42
I00
sg43
S'/home/grogan/Chaste/cell_based/src/cell/cycle/SimpleOxygenBasedCellCycleModel.hpp'
p619
sg45
I00
sba(iwrapper_utilities.class_info
CppClassInfo
p620
(dp621
g4
Nsg5
(dp622
g7
g8
sg9
g10
sg11
g12
sg13
g14
sg15
g16
sg17
g18
sg19
g20
sS'*'
g21
sg22
g23
sg24
g23
sg25
g26
sg27
g23
ssg28
g581
sg30
I00
sg31
I00
sg32
Nsg33
g238
sg35
I01
sg36
I01
sg37
I00
sg38
Nsg39
Nsg40
Nsg41
Nsg42
I00
sg43
S'/home/grogan/Chaste/cell_based/src/cell/cycle/UniformG1GenerationalCellCycleModel.hpp'
p623
sg45
I00
sba(iwrapper_utilities.class_info
CppClassInfo
p624
(dp625
g4
Nsg5
(dp626
g7
g8
sg9
g10
sg11
g12
sg13
g14
sg15
g16
sg17
g18
sg19
g20
sS'*'
g21
sg22
g23
sg24
g23
sg25
g26
sg27
g23
ssg28
g584
sg30
I00
sg31
I00
sg32
Nsg33
g238
sg35
I01
sg36
I01
sg37
I00
sg38
Nsg39
Nsg40
Nsg41
Nsg42
I00
sg43
S'/home/grogan/Chaste/cell_based/src/cell/cycle/NoCellCycleModel.hpp'
p627
sg45
I00
sba(iwrapper_utilities.class_info
CppClassInfo
p628
(dp629
g4
Nsg5
(dp630
g7
g8
sg9
g10
sg11
g12
sg13
g14
sg15
g16
sg17
g18
sg19
g20
sS'*'
g21
sg22
g23
sg24
g23
sg25
g26
sg27
g23
ssg28
S'AbstractCellProperty'
p631
sg30
I00
sg31
I00
sg32
Nsg33
g238
sg35
I01
sg36
I01
sg37
I00
sg38
Nsg39
Nsg40
(lp632
S'IsType'
p633
asg41
Nsg42
I01
sg43
S'/home/grogan/Chaste/cell_based/src/cell/properties/AbstractCellProperty.hpp'
p634
sg45
I00
sba(iwrapper_utilities.class_info
CppClassInfo
p635
(dp636
g4
Nsg5
(dp637
g7
g8
sg9
g10
sg11
g12
sg13
g14
sg15
g16
sg17
g18
sg19
g20
sS'*'
g21
sg22
g23
sg24
g23
sg25
g26
sg27
g23
ssg28
S'CellPropertyCollection'
p638
sg30
I00
sg31
I00
sg32
Nsg33
g238
sg35
I01
sg36
I01
sg37
I00
sg38
Nsg39
Nsg40
(lp639
S'GetCellPropertyRegistry'
p640
asg41
Nsg42
I00
sg43
S'/home/grogan/Chaste/cell_based/src/cell/properties/CellPropertyCollection.hpp'
p641
sg45
I00
sba(iwrapper_utilities.class_info
CppClassInfo
p642
(dp643
g4
Nsg5
(dp644
g7
g8
sg9
g10
sg11
g12
sg13
g14
sg15
g16
sg17
g18
sg19
g20
sS'*'
g21
sg22
g23
sg24
g23
sg25
g26
sg27
g23
ssg28
S'AbstractCellProliferativeType'
p645
sg30
I00
sg31
I00
sg32
Nsg33
g238
sg35
I01
sg36
I01
sg37
I00
sg38
Nsg39
Nsg40
Nsg41
Nsg42
I00
sg43
S'/home/grogan/Chaste/cell_based/src/cell/properties/proliferative_types/AbstractCellProliferativeType.hpp'
p646
sg45
I00
sba(iwrapper_utilities.class_info
CppClassInfo
p647
(dp648
g4
Nsg5
(dp649
g7
g8
sg9
g10
sg11
g12
sg13
g14
sg15
g16
sg17
g18
sg19
g20
sS'*'
g21
sg22
g23
sg24
g23
sg25
g26
sg27
g23
ssg28
S'StemCellProliferativeType'
p650
sg30
I00
sg31
I00
sg32
Nsg33
g238
sg35
I01
sg36
I01
sg37
I00
sg38
Nsg39
Nsg40
Nsg41
Nsg42
I00
sg43
S'/home/grogan/Chaste/cell_based/src/cell/properties/proliferative_types/StemCellProliferativeType.hpp'
p651
sg45
I00
sba(iwrapper_utilities.class_info
CppClassInfo
p652
(dp653
g4
Nsg5
(dp654
g7
g8
sg9
g10
sg11
g12
sg13
g14
sg15
g16
sg17
g18
sg19
g20
sS'*'
g21
sg22
g23
sg24
g23
sg25
g26
sg27
g23
ssg28
S'DefaultCellProliferativeType'
p655
sg30
I00
sg31
I00
sg32
Nsg33
g238
sg35
I01
sg36
I01
sg37
I00
sg38
Nsg39
Nsg40
Nsg41
Nsg42
I00
sg43
S'/home/grogan/Chaste/cell_based/src/cell/properties/proliferative_types/DefaultCellProliferativeType.hpp'
p656
sg45
I00
sba(iwrapper_utilities.class_info
CppClassInfo
p657
(dp658
g4
Nsg5
(dp659
g7
g8
sg9
g10
sg11
g12
sg13
g14
sg15
g16
sg17
g18
sg19
g20
sS'*'
g21
sg22
g23
sg24
g23
sg25
g26
sg27
g23
ssg28
S'TransitCellProliferativeType'
p660
sg30
I00
sg31
I00
sg32
Nsg33
g238
sg35
I01
sg36
I01
sg37
I00
sg38
Nsg39
Nsg40
Nsg41
Nsg42
I00
sg43
S'/home/grogan/Chaste/cell_based/src/cell/properties/proliferative_types/TransitCellProliferativeType.hpp'
p661
sg45
I00
sba(iwrapper_utilities.class_info
CppClassInfo
p662
(dp663
g4
Nsg5
(dp664
g7
g8
sg9
g10
sg11
g12
sg13
g14
sg15
g16
sg17
g18
sg19
g20
sS'*'
g21
sg22
g23
sg24
g23
sg25
g26
sg27
g23
ssg28
S'DifferentiatedCellProliferativeType'
p665
sg30
I00
sg31
I00
sg32
Nsg33
g238
sg35
I01
sg36
I01
sg37
I00
sg38
Nsg39
Nsg40
Nsg41
Nsg42
I00
sg43
S'/home/grogan/Chaste/cell_based/src/cell/properties/proliferative_types/DifferentiatedCellProliferativeType.hpp'
p666
sg45
I00
sba(iwrapper_utilities.class_info
CppClassInfo
p667
(dp668
g4
Nsg5
(dp669
g7
g8
sg9
g10
sg11
g12
sg13
g14
sg15
g16
sg17
g18
sg19
g20
sS'*'
g21
sg22
g23
sg24
g23
sg25
g26
sg27
g23
ssg28
S'AbstractCellMutationState'
p670
sg30
I00
sg31
I00
sg32
Nsg33
g238
sg35
I01
sg36
I01
sg37
I00
sg38
Nsg39
Nsg40
Nsg41
Nsg42
I00
sg43
S'/home/grogan/Chaste/cell_based/src/cell/properties/mutations/AbstractCellMutationState.hpp'
p671
sg45
I00
sba(iwrapper_utilities.class_info
CppClassInfo
p672
(dp673
g4
Nsg5
(dp674
g7
g8
sg9
g10
sg11
g12
sg13
g14
sg15
g16
sg17
g18
sg19
g20
sS'*'
g21
sg22
g23
sg24
g23
sg25
g26
sg27
g23
ssg28
S'ApcOneHitCellMutationState'
p675
sg30
I00
sg31
I00
sg32
Nsg33
g238
sg35
I01
sg36
I01
sg37
I00
sg38
Nsg39
Nsg40
Nsg41
Nsg42
I00
sg43
S'/home/grogan/Chaste/cell_based/src/cell/properties/mutations/ApcOneHitCellMutationState.hpp'
p676
sg45
I00
sba(iwrapper_utilities.class_info
CppClassInfo
p677
(dp678
g4
Nsg5
(dp679
g7
g8
sg9
g10
sg11
g12
sg13
g14
sg15
g16
sg17
g18
sg19
g20
sS'*'
g21
sg22
g23
sg24
g23
sg25
g26
sg27
g23
ssg28
S'ApcTwoHitCellMutationState'
p680
sg30
I00
sg31
I00
sg32
Nsg33
g238
sg35
I01
sg36
I01
sg37
I00
sg38
Nsg39
Nsg40
Nsg41
Nsg42
I00
sg43
S'/home/grogan/Chaste/cell_based/src/cell/properties/mutations/ApcTwoHitCellMutationState.hpp'
p681
sg45
I00
sba(iwrapper_utilities.class_info
CppClassInfo
p682
(dp683
g4
Nsg5
(dp684
g7
g8
sg9
g10
sg11
g12
sg13
g14
sg15
g16
sg17
g18
sg19
g20
sS'*'
g21
sg22
g23
sg24
g23
sg25
g26
sg27
g23
ssg28
S'BetaCateninOneHitCellMutationState'
p685
sg30
I00
sg31
I00
sg32
Nsg33
g238
sg35
I01
sg36
I01
sg37
I00
sg38
Nsg39
Nsg40
Nsg41
Nsg42
I00
sg43
S'/home/grogan/Chaste/cell_based/src/cell/properties/mutations/BetaCateninOneHitCellMutationState.hpp'
p686
sg45
I00
sba(iwrapper_utilities.class_info
CppClassInfo
p687
(dp688
g4
Nsg5
(dp689
g7
g8
sg9
g10
sg11
g12
sg13
g14
sg15
g16
sg17
g18
sg19
g20
sS'*'
g21
sg22
g23
sg24
g23
sg25
g26
sg27
g23
ssg28
S'WildTypeCellMutationState'
p690
sg30
I00
sg31
I00
sg32
Nsg33
g238
sg35
I01
sg36
I01
sg37
I00
sg38
Nsg39
Nsg40
Nsg41
Nsg42
I00
sg43
S'/home/grogan/Chaste/cell_based/src/cell/properties/mutations/WildTypeCellMutationState.hpp'
p691
sg45
I00
sba(iwrapper_utilities.class_info
CppClassInfo
p692
(dp693
g4
Nsg5
(dp694
g7
g8
sg9
g10
sg11
g12
sg13
g14
sg15
g16
sg17
g18
sg19
g20
sS'*'
g21
sg22
g23
sg24
g23
sg25
g26
sg27
g23
ssg28
S'ApoptoticCellProperty'
p695
sg30
I00
sg31
I00
sg32
Nsg33
g238
sg35
I01
sg36
I01
sg37
I00
sg38
Nsg39
Nsg40
Nsg41
Nsg42
I00
sg43
S'/home/grogan/Chaste/cell_based/src/cell/properties/ApoptoticCellProperty.hpp'
p696
sg45
I00
sba(iwrapper_utilities.class_info
CppClassInfo
p697
(dp698
g4
Nsg5
(dp699
g7
g8
sg9
g10
sg11
g12
sg13
g14
sg15
g16
sg17
g18
sg19
g20
sS'*'
g21
sg22
g23
sg24
g23
sg25
g26
sg27
g23
ssg28
S'CellData'
p700
sg30
I00
sg31
I00
sg32
Nsg33
g238
sg35
I01
sg36
I01
sg37
I00
sg38
Nsg39
Nsg40
Nsg41
Nsg42
I00
sg43
S'/home/grogan/Chaste/cell_based/src/cell/properties/CellData.hpp'
p701
sg45
I00
sba(iwrapper_utilities.class_info
CppClassInfo
p702
(dp703
g4
Nsg5
(dp704
g7
g8
sg9
g10
sg11
g12
sg13
g14
sg15
g16
sg17
g18
sg19
g20
sS'*'
g21
sg22
g23
sg24
g23
sg25
g26
sg27
g23
ssg28
S'CellLabel'
p705
sg30
I00
sg31
I00
sg32
Nsg33
g238
sg35
I01
sg36
I01
sg37
I00
sg38
Nsg39
Nsg40
Nsg41
Nsg42
I00
sg43
S'/home/grogan/Chaste/cell_based/src/cell/properties/CellLabel.hpp'
p706
sg45
I00
sba(iwrapper_utilities.class_info
CppClassInfo
p707
(dp708
g4
Nsg5
(dp709
g7
g8
sg9
g10
sg11
g12
sg13
g14
sg15
g16
sg17
g18
sg19
g20
sS'*'
g21
sg22
g23
sg24
g23
sg25
g26
sg27
g23
ssg28
S'CellAncestor'
p710
sg30
I00
sg31
I00
sg32
Nsg33
g238
sg35
I01
sg36
I01
sg37
I00
sg38
Nsg39
Nsg40
Nsg41
Nsg42
I00
sg43
S'/home/grogan/Chaste/cell_based/src/cell/properties/CellAncestor.hpp'
p711
sg45
I00
sba(iwrapper_utilities.class_info
CppClassInfo
p712
(dp713
g4
Nsg5
(dp714
g7
g8
sg9
g10
sg11
g12
sg13
g14
sg15
g16
sg17
g18
sg19
g20
sS'*'
g21
sg22
g23
sg24
g23
sg25
g26
sg27
g23
ssg28
S'CellId'
p715
sg30
I00
sg31
I00
sg32
Nsg33
g238
sg35
I01
sg36
I01
sg37
I00
sg38
Nsg39
Nsg40
Nsg41
Nsg42
I00
sg43
S'/home/grogan/Chaste/cell_based/src/cell/properties/CellId.hpp'
p716
sg45
I00
sba(iwrapper_utilities.class_info
CppClassInfo
p717
(dp718
g4
Nsg5
(dp719
g7
g8
sg9
g10
sg11
g12
sg13
g14
sg15
g16
sg17
g18
sg19
g20
sS'*'
g21
sg22
g23
sg24
g23
sg25
g26
sg27
g23
ssg28
S'CellPropertyRegistry'
p720
sg30
I00
sg31
I00
sg32
Nsg33
g238
sg35
I01
sg36
I01
sg37
I00
sg38
Nsg39
Nsg40
(lp721
S'rGetAllCellProperties'
p722
aS'TakeOwnership'
p723
aS'Get'
p724
asg41
Nsg42
I00
sg43
S'/home/grogan/Chaste/cell_based/src/cell/properties/CellPropertyRegistry.hpp'
p725
sg45
I00
sba(iwrapper_utilities.class_info
CppClassInfo
p726
(dp727
g4
Nsg5
(dp728
g7
g8
sg9
g10
sg11
g12
sg13
g14
sg15
g16
sg17
g18
sg19
g20
sS'*'
g21
sg22
g23
sg24
g23
sg25
g26
sg27
g23
ssg28
S'AbstractSrnModel'
p729
sg30
I00
sg31
I00
sg32
Nsg33
g238
sg35
I01
sg36
I01
sg37
I00
sg38
Nsg39
Nsg40
Nsg41
Nsg42
I00
sg43
S'/home/grogan/Chaste/cell_based/src/cell/srn/AbstractSrnModel.hpp'
p730
sg45
I00
sba(iwrapper_utilities.class_info
CppClassInfo
p731
(dp732
g4
(lp733
(lp734
S'CreateSrnModel'
p735
aS'reference_existing_object'
p736
aasg5
(dp737
g7
g8
sg9
g10
sg11
g12
sg13
g14
sg15
g16
sg17
g18
sg19
g20
sS'*'
g21
sg22
g23
sg24
g23
sg25
g26
sg27
g23
ssg28
S'NullSrnModel'
p738
sg30
I00
sg31
I00
sg32
Nsg33
g238
sg35
I01
sg36
I01
sg37
I00
sg38
Nsg39
Nsg40
Nsg41
Nsg42
I00
sg43
S'/home/grogan/Chaste/cell_based/src/cell/srn/NullSrnModel.hpp'
p739
sg45
I00
sba(iwrapper_utilities.class_info
CppClassInfo
p740
(dp741
g4
Nsg5
(dp742
g7
g8
sg9
g10
sg11
g12
sg13
g14
sg15
g16
sg17
g18
sg19
g20
sS'*'
g21
sg22
g23
sg24
g23
sg25
g26
sg27
g23
ssg28
S'AbstractTargetAreaModifier'
p743
sg30
I00
sg31
I00
sg32
Nsg33
g238
sg35
I01
sg36
I01
sg37
I00
sg38
Nsg39
g172
sg40
Nsg41
Nsg42
I00
sg43
S'/home/grogan/Chaste/cell_based/src/simulation/modifiers/AbstractTargetAreaModifier.hpp'
p744
sg45
I00
sba(iwrapper_utilities.class_info
CppClassInfo
p745
(dp746
g4
Nsg5
(dp747
g7
g8
sg9
g10
sg11
g12
sg13
g14
sg15
g16
sg17
g18
sg19
g20
sS'*'
g21
sg22
g23
sg24
g23
sg25
g26
sg27
g23
ssg28
S'SimpleTargetAreaModifier'
p748
sg30
I00
sg31
I00
sg32
Nsg33
g238
sg35
I01
sg36
I01
sg37
I00
sg38
Nsg39
g172
sg40
Nsg41
Nsg42
I00
sg43
S'/home/grogan/Chaste/cell_based/src/simulation/modifiers/SimpleTargetAreaModifier.hpp'
p749
sg45
I00
sba(iwrapper_utilities.class_info
CppClassInfo
p750
(dp751
g4
Nsg5
(dp752
g7
g8
sg9
g10
sg11
g12
sg13
g14
sg15
g16
sg17
g18
sg19
g20
sS'*'
g21
sg22
g23
sg24
g23
sg25
g26
sg27
g23
ssg28
S'VtkSceneModifier'
p753
sg30
I00
sg31
I00
sg32
Nsg33
g238
sg35
I01
sg36
I01
sg37
I00
sg38
Nsg39
g172
sg40
Nsg41
Nsg42
I00
sg43
S'/home/grogan/Chaste/projects/PyChaste/src/cell_based/VtkSceneModifier.hpp'
p754
sg45
I00
sba(iwrapper_utilities.class_info
CppClassInfo
p755
(dp756
g4
Nsg5
(dp757
g7
g8
sg9
g10
sg11
g12
sg13
g14
sg15
g16
sg17
g18
sg19
g20
sS'*'
g21
sg22
g23
sg24
g23
sg25
g26
sg27
g23
ssg28
S'AbstractCellBasedSimulationModifier'
p758
sg30
I00
sg31
I00
sg32
Nsg33
g238
sg35
I01
sg36
I01
sg37
I00
sg38
Nsg39
g215
sg40
Nsg41
Nsg42
I00
sg43
S'/home/grogan/Chaste/cell_based/src/simulation/modifiers/AbstractCellBasedSimulationModifier.hpp'
p759
sg45
I00
sba.