(lp1
(iwrapper_utilities.class_data
CppClass
p2
(dp3
S'pointer_return_methods'
p4
NsS'name_replacements'
p5
(dp6
S'std::string'
p7
S'String'
p8
sS'c_vector'
p9
S'CVector'
p10
sS'std::set'
p11
S'Set'
p12
sS'std::pair'
p13
S'Pair'
p14
sS'std::map'
p15
S'Map'
p16
sS'boost::shared_ptr'
p17
S'SharedPtr'
p18
sS'std::vector'
p19
S'Vector'
p20
sS'*'
S'Ptr'
p21
sS'unsigned'
p22
S'Unsigned'
p23
sS'unsigned int'
p24
g23
sS'double'
p25
S'Double'
p26
sS'Unsigned int'
p27
g23
ssS'name'
p28
S'std::string'
p29
sS'include_ptr_self'
p30
I00
sS'include_raw_ptr_self'
p31
I00
sS'declaration_code'
p32
NsS'component'
p33
S'extra'
p34
sS'needs_include_file'
p35
I00
sS'needs_instantiation'
p36
I00
sS'skip_wrapping'
p37
I01
sS'excluded_variables'
p38
NsS'template_args'
p39
NsS'excluded_methods'
p40
NsS'name_override'
p41
NsS'include_vec_ptr_self'
p42
I00
sS'full_path'
p43
NsS'include_file_only'
p44
I00
sba(iwrapper_utilities.class_data
CppClass
p45
(dp46
g4
Nsg5
(dp47
g7
g8
sg9
g10
sg11
g12
sg13
g14
sg15
g16
sg17
g18
sg19
g20
sS'*'
g21
sg22
g23
sg24
g23
sg25
g26
sg27
g23
ssg28
S'std::map'
p48
sg30
I00
sg31
I00
sg32
Nsg33
g34
sg35
I00
sg36
I00
sg37
I01
sg38
Nsg39
(lp49
(lp50
g29
ag29
aasg40
Nsg41
Nsg42
I00
sg43
Nsg44
I00
sba(iwrapper_utilities.class_data
CppClass
p51
(dp52
g4
Nsg5
(dp53
g7
g8
sg9
g10
sg11
g12
sg13
g14
sg15
g16
sg17
g18
sg19
g20
sS'*'
g21
sg22
g23
sg24
g23
sg25
g26
sg27
g23
ssg28
S'std::set'
p54
sg30
I00
sg31
I00
sg32
Nsg33
g34
sg35
I00
sg36
I00
sg37
I01
sg38
Nsg39
(lp55
(lp56
g22
aasg40
Nsg41
Nsg42
I00
sg43
Nsg44
I00
sba(iwrapper_utilities.class_data
CppClass
p57
(dp58
g4
Nsg5
(dp59
g7
g8
sg9
g10
sg11
g12
sg13
g14
sg15
g16
sg17
g18
sg19
g20
sS'*'
g21
sg22
g23
sg24
g23
sg25
g26
sg27
g23
ssg28
S'std::vector'
p60
sg30
I00
sg31
I00
sg32
Nsg33
g34
sg35
I00
sg36
I00
sg37
I01
sg38
Nsg39
(lp61
(lp62
g25
aa(lp63
g22
aa(lp64
S'bool'
p65
aa(lp66
g29
aa(lp67
S'c_vector<double,3>'
p68
aa(lp69
S'c_vector<double,2>'
p70
aa(lp71
S'c_vector<unsigned,5>'
p72
aa(lp73
S'std::set<unsigned int>'
p74
aa(lp75
S'std::vector<unsigned int>'
p76
aasg40
Nsg41
Nsg42
I00
sg43
Nsg44
I00
sba(iwrapper_utilities.class_data
CppClass
p77
(dp78
g4
Nsg5
(dp79
g7
g8
sg9
g10
sg11
g12
sg13
g14
sg15
g16
sg17
g18
sg19
g20
sS'*'
g21
sg22
g23
sg24
g23
sg25
g26
sg27
g23
ssg28
g9
sg30
I00
sg31
I00
sg32
Nsg33
g34
sg35
I00
sg36
I00
sg37
I01
sg38
Nsg39
(lp80
(lp81
g25
aI2
aa(lp82
g25
aI3
aa(lp83
g22
aI5
aasg40
Nsg41
Nsg42
I00
sg43
Nsg44
I00
sba(iwrapper_utilities.class_data
CppClass
p84
(dp85
g4
Nsg5
(dp86
g7
g8
sg9
g10
sg11
g12
sg13
g14
sg15
g16
sg17
g18
sg19
g20
sS'*'
g21
sg22
g23
sg24
g23
sg25
g26
sg27
g23
ssg28
S'BoostFilesystem'
p87
sg30
I00
sg31
I00
sg32
Nsg33
S'core'
p88
sg35
I01
sg36
I01
sg37
I00
sg38
Nsg39
Nsg40
Nsg41
Nsg42
I00
sg43
S'/home/grogan/Chaste/global/src/BoostFilesystem.hpp'
p89
sg44
I01
sba(iwrapper_utilities.class_data
CppClass
p90
(dp91
g4
Nsg5
(dp92
g7
g8
sg9
g10
sg11
g12
sg13
g14
sg15
g16
sg17
g18
sg19
g20
sS'*'
g21
sg22
g23
sg24
g23
sg25
g26
sg27
g23
ssg28
S'RelativeTo'
p93
sg30
I00
sg31
I00
sg32
Nsg33
g88
sg35
I00
sg36
I01
sg37
I00
sg38
Nsg39
Nsg40
Nsg41
Nsg42
I00
sg43
Nsg44
I00
sba(iwrapper_utilities.class_data
CppClass
p94
(dp95
g4
Nsg5
(dp96
g7
g8
sg9
g10
sg11
g12
sg13
g14
sg15
g16
sg17
g18
sg19
g20
sS'*'
g21
sg22
g23
sg24
g23
sg25
g26
sg27
g23
ssg28
S'FileFinder'
p97
sg30
I00
sg31
I00
sg32
Nsg33
g88
sg35
I01
sg36
I01
sg37
I00
sg38
Nsg39
Nsg40
Nsg41
Nsg42
I00
sg43
S'/home/grogan/Chaste/global/src/FileFinder.hpp'
p98
sg44
I00
sba(iwrapper_utilities.class_data
CppClass
p99
(dp100
g4
Nsg5
(dp101
g7
g8
sg9
g10
sg11
g12
sg13
g14
sg15
g16
sg17
g18
sg19
g20
sS'*'
g21
sg22
g23
sg24
g23
sg25
g26
sg27
g23
ssg28
S'OutputFileHandler'
p102
sg30
I00
sg31
I00
sg32
Nsg33
g88
sg35
I01
sg36
I01
sg37
I00
sg38
Nsg39
Nsg40
(lp103
S'OpenOutputFile'
p104
asg41
Nsg42
I00
sg43
S'/home/grogan/Chaste/global/src/OutputFileHandler.hpp'
p105
sg44
I00
sba(iwrapper_utilities.class_data
CppClass
p106
(dp107
g4
Nsg5
(dp108
g7
g8
sg9
g10
sg11
g12
sg13
g14
sg15
g16
sg17
g18
sg19
g20
sS'*'
g21
sg22
g23
sg24
g23
sg25
g26
sg27
g23
ssg28
S'ProgressReporter'
p109
sg30
I00
sg31
I00
sg32
Nsg33
g88
sg35
I01
sg36
I01
sg37
I00
sg38
Nsg39
Nsg40
Nsg41
Nsg42
I00
sg43
S'/home/grogan/Chaste/global/src/ProgressReporter.hpp'
p110
sg44
I00
sba(iwrapper_utilities.class_data
CppClass
p111
(dp112
g4
Nsg5
(dp113
g7
g8
sg9
g10
sg11
g12
sg13
g14
sg15
g16
sg17
g18
sg19
g20
sS'*'
g21
sg22
g23
sg24
g23
sg25
g26
sg27
g23
ssg28
S'RandomNumberGenerator'
p114
sg30
I00
sg31
I00
sg32
Nsg33
g88
sg35
I01
sg36
I01
sg37
I00
sg38
Nsg39
Nsg40
Nsg41
Nsg42
I00
sg43
S'/home/grogan/Chaste/global/src/RandomNumberGenerator.hpp'
p115
sg44
I00
sba(iwrapper_utilities.class_data
CppClass
p116
(dp117
g4
Nsg5
(dp118
g7
g8
sg9
g10
sg11
g12
sg13
g14
sg15
g16
sg17
g18
sg19
g20
sS'*'
g21
sg22
g23
sg24
g23
sg25
g26
sg27
g23
ssg28
S'SmartPointers'
p119
sg30
I00
sg31
I00
sg32
Nsg33
g88
sg35
I01
sg36
I01
sg37
I00
sg38
Nsg39
Nsg40
Nsg41
Nsg42
I00
sg43
S'/home/grogan/Chaste/global/src/SmartPointers.hpp'
p120
sg44
I01
sba(iwrapper_utilities.class_data
CppClass
p121
(dp122
g4
Nsg5
(dp123
g7
g8
sg9
g10
sg11
g12
sg13
g14
sg15
g16
sg17
g18
sg19
g20
sS'*'
g21
sg22
g23
sg24
g23
sg25
g26
sg27
g23
ssg28
S'TimeStepper'
p124
sg30
I00
sg31
I00
sg32
Nsg33
g88
sg35
I01
sg36
I01
sg37
I00
sg38
Nsg39
Nsg40
Nsg41
Nsg42
I00
sg43
S'/home/grogan/Chaste/global/src/TimeStepper.hpp'
p125
sg44
I00
sba(iwrapper_utilities.class_data
CppClass
p126
(dp127
g4
Nsg5
(dp128
g7
g8
sg9
g10
sg11
g12
sg13
g14
sg15
g16
sg17
g18
sg19
g20
sS'*'
g21
sg22
g23
sg24
g23
sg25
g26
sg27
g23
ssg28
S'Version'
p129
sg30
I00
sg31
I00
sg32
Nsg33
g88
sg35
I01
sg36
I01
sg37
I00
sg38
Nsg39
Nsg40
Nsg41
Nsg42
I00
sg43
S'/home/grogan/Chaste/global/src/Version.hpp'
p130
sg44
I01
sba(iwrapper_utilities.class_data
CppClass
p131
(dp132
g4
Nsg5
(dp133
g7
g8
sg9
g10
sg11
g12
sg13
g14
sg15
g16
sg17
g18
sg19
g20
sS'*'
g21
sg22
g23
sg24
g23
sg25
g26
sg27
g23
ssg28
S'Identifiable'
p134
sg30
I00
sg31
I00
sg32
Nsg33
g88
sg35
I01
sg36
I01
sg37
I00
sg38
Nsg39
Nsg40
Nsg41
Nsg42
I00
sg43
S'/home/grogan/Chaste/global/src/checkpointing/Identifiable.hpp'
p135
sg44
I01
sba(iwrapper_utilities.class_data
CppClass
p136
(dp137
g4
Nsg5
(dp138
g7
g8
sg9
g10
sg11
g12
sg13
g14
sg15
g16
sg17
g18
sg19
g20
sS'*'
g21
sg22
g23
sg24
g23
sg25
g26
sg27
g23
ssg28
S'PetscTools'
p139
sg30
I00
sg31
I00
sg32
Nsg33
g88
sg35
I01
sg36
I01
sg37
I00
sg38
(lp140
S'MASTER_RANK'
p141
asg39
Nsg40
(lp142
S'GetWorld'
p143
asg41
Nsg42
I00
sg43
S'/home/grogan/Chaste/global/src/parallel/PetscTools.hpp'
p144
sg44
I00
sba(iwrapper_utilities.class_data
CppClass
p145
(dp146
g4
Nsg5
(dp147
g7
g8
sg9
g10
sg11
g12
sg13
g14
sg15
g16
sg17
g18
sg19
g20
sS'*'
g21
sg22
g23
sg24
g23
sg25
g26
sg27
g23
ssg28
S'ReplicatableVector'
p148
sg30
I00
sg31
I00
sg32
Nsg33
g88
sg35
I01
sg36
I01
sg37
I00
sg38
Nsg39
Nsg40
Nsg41
Nsg42
I00
sg43
S'/home/grogan/Chaste/global/src/parallel/ReplicatableVector.hpp'
p149
sg44
I00
sba(iwrapper_utilities.class_data
CppClass
p150
(dp151
g4
Nsg5
(dp152
g7
g8
sg9
g10
sg11
g12
sg13
g14
sg15
g16
sg17
g18
sg19
g20
sS'*'
g21
sg22
g23
sg24
g23
sg25
g26
sg27
g23
ssg28
S'Timer'
p153
sg30
I00
sg31
I00
sg32
Nsg33
g88
sg35
I01
sg36
I01
sg37
I00
sg38
Nsg39
Nsg40
Nsg41
Nsg42
I00
sg43
S'/home/grogan/Chaste/global/src/timing/Timer.hpp'
p154
sg44
I00
sba(iwrapper_utilities.class_data
CppClass
p155
(dp156
g4
Nsg5
(dp157
g7
g8
sg9
g10
sg11
g12
sg13
g14
sg15
g16
sg17
g18
sg19
g20
sS'*'
g21
sg22
g23
sg24
g23
sg25
g26
sg27
g23
ssg28
S'UblasIncludes'
p158
sg30
I00
sg31
I00
sg32
Nsg33
g88
sg35
I01
sg36
I01
sg37
I00
sg38
Nsg39
Nsg40
Nsg41
Nsg42
I00
sg43
S'/home/grogan/Chaste/linalg/src/UblasIncludes.hpp'
p159
sg44
I01
sba(iwrapper_utilities.class_data
CppClass
p160
(dp161
g4
Nsg5
(dp162
g7
g8
sg9
g10
sg11
g12
sg13
g14
sg15
g16
sg17
g18
sg19
g20
sS'*'
g21
sg22
g23
sg24
g23
sg25
g26
sg27
g23
ssg28
S'AbstractOdeSystemInformation'
p163
sg30
I00
sg31
I00
sg32
Nsg33
S'ode'
p164
sg35
I01
sg36
I01
sg37
I00
sg38
Nsg39
Nsg40
Nsg41
Nsg42
I00
sg43
S'/home/grogan/Chaste/ode/src/common/AbstractOdeSystemInformation.hpp'
p165
sg44
I00
sba(iwrapper_utilities.class_data
CppClass
p166
(dp167
g4
Nsg5
(dp168
g7
g8
sg9
g10
sg11
g12
sg13
g14
sg15
g16
sg17
g18
sg19
g20
sS'*'
g21
sg22
g23
sg24
g23
sg25
g26
sg27
g23
ssg28
S'AbstractPythonOdeSystemInformation'
p169
sg30
I00
sg31
I00
sg32
Nsg33
g164
sg35
I01
sg36
I01
sg37
I00
sg38
Nsg39
Nsg40
Nsg41
Nsg42
I00
sg43
S'/home/grogan/Chaste/projects/PyChaste/src/ode/AbstractPythonOdeSystemInformation.hpp'
p170
sg44
I00
sba(iwrapper_utilities.class_data
CppClass
p171
(dp172
g4
Nsg5
(dp173
g7
g8
sg9
g10
sg11
g12
sg13
g14
sg15
g16
sg17
g18
sg19
g20
sS'*'
g21
sg22
g23
sg24
g23
sg25
g26
sg27
g23
ssg28
S'AbstractOdeSystem'
p174
sg30
I00
sg31
I00
sg32
Nsg33
g164
sg35
I01
sg36
I01
sg37
I00
sg38
Nsg39
Nsg40
Nsg41
Nsg42
I00
sg43
S'/home/grogan/Chaste/ode/src/common/AbstractOdeSystem.hpp'
p175
sg44
I00
sba(iwrapper_utilities.class_data
CppClass
p176
(dp177
g4
Nsg5
(dp178
g7
g8
sg9
g10
sg11
g12
sg13
g14
sg15
g16
sg17
g18
sg19
g20
sS'*'
g21
sg22
g23
sg24
g23
sg25
g26
sg27
g23
ssg28
S'AbstractLinearPde'
p179
sg30
I00
sg31
I00
sg32
Nsg33
S'pde'
p180
sg35
I01
sg36
I01
sg37
I00
sg38
Nsg39
(lp181
(lp182
I2
aI2
aa(lp183
I3
aI3
aasg40
Nsg41
Nsg42
I00
sg43
S'/home/grogan/Chaste/pde/src/problem/AbstractLinearPde.hpp'
p184
sg44
I00
sba(iwrapper_utilities.class_data
CppClass
p185
(dp186
g4
Nsg5
(dp187
g7
g8
sg9
g10
sg11
g12
sg13
g14
sg15
g16
sg17
g18
sg19
g20
sS'*'
g21
sg22
g23
sg24
g23
sg25
g26
sg27
g23
ssg28
S'AbstractLinearParabolicPde'
p188
sg30
I00
sg31
I00
sg32
Nsg33
g180
sg35
I01
sg36
I01
sg37
I00
sg38
Nsg39
g181
sg40
Nsg41
Nsg42
I00
sg43
S'/home/grogan/Chaste/pde/src/problem/AbstractLinearParabolicPde.hpp'
p189
sg44
I00
sba(iwrapper_utilities.class_data
CppClass
p190
(dp191
g4
Nsg5
(dp192
g7
g8
sg9
g10
sg11
g12
sg13
g14
sg15
g16
sg17
g18
sg19
g20
sS'*'
g21
sg22
g23
sg24
g23
sg25
g26
sg27
g23
ssg28
S'AbstractLinearEllipticPde'
p193
sg30
I00
sg31
I00
sg32
Nsg33
g180
sg35
I01
sg36
I01
sg37
I00
sg38
Nsg39
g181
sg40
Nsg41
Nsg42
I00
sg43
S'/home/grogan/Chaste/pde/src/problem/AbstractLinearEllipticPde.hpp'
p194
sg44
I00
sba(iwrapper_utilities.class_data
CppClass
p195
(dp196
g4
Nsg5
(dp197
g7
g8
sg9
g10
sg11
g12
sg13
g14
sg15
g16
sg17
g18
sg19
g20
sS'*'
g21
sg22
g23
sg24
g23
sg25
g26
sg27
g23
ssg28
S'AbstractNonlinearEllipticPde'
p198
sg30
I00
sg31
I00
sg32
Nsg33
g180
sg35
I01
sg36
I01
sg37
I00
sg38
Nsg39
(lp199
(lp200
I2
aa(lp201
I3
aasg40
Nsg41
Nsg42
I00
sg43
S'/home/grogan/Chaste/pde/src/problem/AbstractNonlinearEllipticPde.hpp'
p202
sg44
I00
sba(iwrapper_utilities.class_data
CppClass
p203
(dp204
g4
Nsg5
(dp205
g7
g8
sg9
g10
sg11
g12
sg13
g14
sg15
g16
sg17
g18
sg19
g20
sS'*'
g21
sg22
g23
sg24
g23
sg25
g26
sg27
g23
ssg28
S'AbstractBoundaryCondition'
p206
sg30
I00
sg31
I00
sg32
Nsg33
g180
sg35
I01
sg36
I01
sg37
I00
sg38
Nsg39
g199
sg40
Nsg41
Nsg42
I00
sg43
S'/home/grogan/Chaste/pde/src/common/AbstractBoundaryCondition.hpp'
p207
sg44
I00
sba(iwrapper_utilities.class_data
CppClass
p208
(dp209
g4
Nsg5
(dp210
g7
g8
sg9
g10
sg11
g12
sg13
g14
sg15
g16
sg17
g18
sg19
g20
sS'*'
g21
sg22
g23
sg24
g23
sg25
g26
sg27
g23
ssg28
S'ConstBoundaryCondition'
p211
sg30
I00
sg31
I00
sg32
Nsg33
g180
sg35
I01
sg36
I01
sg37
I00
sg38
Nsg39
g199
sg40
Nsg41
Nsg42
I00
sg43
S'/home/grogan/Chaste/pde/src/common/ConstBoundaryCondition.hpp'
p212
sg44
I00
sba(iwrapper_utilities.class_data
CppClass
p213
(dp214
g4
Nsg5
(dp215
g7
g8
sg9
g10
sg11
g12
sg13
g14
sg15
g16
sg17
g18
sg19
g20
sS'*'
g21
sg22
g23
sg24
g23
sg25
g26
sg27
g23
ssg28
S'PdeSimulationTime'
p216
sg30
I00
sg31
I00
sg32
Nsg33
g180
sg35
I01
sg36
I01
sg37
I00
sg38
Nsg39
Nsg40
Nsg41
Nsg42
I00
sg43
S'/home/grogan/Chaste/pde/src/common/PdeSimulationTime.hpp'
p217
sg44
I00
sba(iwrapper_utilities.class_data
CppClass
p218
(dp219
g4
Nsg5
(dp220
g7
g8
sg9
g10
sg11
g12
sg13
g14
sg15
g16
sg17
g18
sg19
g20
sS'*'
g21
sg22
g23
sg24
g23
sg25
g26
sg27
g23
ssg28
S'ChastePoint'
p221
sg30
I00
sg31
I00
sg32
Nsg33
S'mesh'
p222
sg35
I01
sg36
I01
sg37
I00
sg38
Nsg39
g199
sg40
Nsg41
Nsg42
I00
sg43
S'/home/grogan/Chaste/mesh/src/common/ChastePoint.hpp'
p223
sg44
I00
sba(iwrapper_utilities.class_data
CppClass
p224
(dp225
g4
Nsg5
(dp226
g7
g8
sg9
g10
sg11
g12
sg13
g14
sg15
g16
sg17
g18
sg19
g20
sS'*'
g21
sg22
g23
sg24
g23
sg25
g26
sg27
g23
ssg28
S'NodeAttributes'
p227
sg30
I00
sg31
I00
sg32
Nsg33
g222
sg35
I01
sg36
I01
sg37
I00
sg38
Nsg39
g199
sg40
Nsg41
Nsg42
I00
sg43
S'/home/grogan/Chaste/mesh/src/common/NodeAttributes.hpp'
p228
sg44
I00
sba(iwrapper_utilities.class_data
CppClass
p229
(dp230
g4
Nsg5
(dp231
g7
g8
sg9
g10
sg11
g12
sg13
g14
sg15
g16
sg17
g18
sg19
g20
sS'*'
g21
sg22
g23
sg24
g23
sg25
g26
sg27
g23
ssg28
S'Node'
p232
sg30
I00
sg31
I00
sg32
Nsg33
g222
sg35
I01
sg36
I01
sg37
I00
sg38
Nsg39
g199
sg40
Nsg41
Nsg42
I01
sg43
S'/home/grogan/Chaste/mesh/src/common/Node.hpp'
p233
sg44
I00
sba(iwrapper_utilities.class_data
CppClass
p234
(dp235
g4
Nsg5
(dp236
g7
g8
sg9
g10
sg11
g12
sg13
g14
sg15
g16
sg17
g18
sg19
g20
sS'*'
g21
sg22
g23
sg24
g23
sg25
g26
sg27
g23
ssg28
S'Element'
p237
sg30
I00
sg31
I00
sg32
Nsg33
g222
sg35
I01
sg36
I01
sg37
I00
sg38
Nsg39
g181
sg40
(lp238
S'CalculateCircumsphereVolume'
p239
asg41
Nsg42
I01
sg43
S'/home/grogan/Chaste/mesh/src/common/Element.hpp'
p240
sg44
I00
sba(iwrapper_utilities.class_data
CppClass
p241
(dp242
g4
Nsg5
(dp243
g7
g8
sg9
g10
sg11
g12
sg13
g14
sg15
g16
sg17
g18
sg19
g20
sS'*'
g21
sg22
g23
sg24
g23
sg25
g26
sg27
g23
ssg28
S'NodesOnlyMesh'
p244
sg30
I00
sg31
I00
sg32
Nsg33
g222
sg35
I01
sg36
I01
sg37
I00
sg38
Nsg39
g199
sg40
Nsg41
Nsg42
I00
sg43
S'/home/grogan/Chaste/mesh/src/common/NodesOnlyMesh.hpp'
p245
sg44
I00
sba(iwrapper_utilities.class_data
CppClass
p246
(dp247
g4
Nsg5
(dp248
g7
g8
sg9
g10
sg11
g12
sg13
g14
sg15
g16
sg17
g18
sg19
g20
sS'*'
g21
sg22
g23
sg24
g23
sg25
g26
sg27
g23
ssg28
S'MutableMesh'
p249
sg30
I00
sg31
I00
sg32
Nsg33
g222
sg35
I01
sg36
I01
sg37
I00
sg38
Nsg39
g181
sg40
(lp250
S'SplitLongEdges'
p251
aS'RescaleMeshFromBoundaryNode'
p252
asg41
Nsg42
I00
sg43
S'/home/grogan/Chaste/mesh/src/common/MutableMesh.hpp'
p253
sg44
I00
sba(iwrapper_utilities.class_data
CppClass
p254
(dp255
g4
Nsg5
(dp256
g7
g8
sg9
g10
sg11
g12
sg13
g14
sg15
g16
sg17
g18
sg19
g20
sS'*'
g21
sg22
g23
sg24
g23
sg25
g26
sg27
g23
ssg28
S'PottsMesh'
p257
sg30
I00
sg31
I00
sg32
Nsg33
g222
sg35
I01
sg36
I01
sg37
I00
sg38
Nsg39
g199
sg40
Nsg41
Nsg42
I00
sg43
S'/home/grogan/Chaste/cell_based/src/mesh/PottsMesh.hpp'
p258
sg44
I00
sba(iwrapper_utilities.class_data
CppClass
p259
(dp260
g4
Nsg5
(dp261
g7
g8
sg9
g10
sg11
g12
sg13
g14
sg15
g16
sg17
g18
sg19
g20
sS'*'
g21
sg22
g23
sg24
g23
sg25
g26
sg27
g23
ssg28
S'SharedPottsMeshGenerator'
p262
sg30
I00
sg31
I00
sg32
Nsg33
g222
sg35
I01
sg36
I01
sg37
I00
sg38
Nsg39
g199
sg40
Nsg41
S'PottsMeshGenerator'
p263
sg42
I00
sg43
S'/home/grogan/Chaste/projects/PyChaste/src/mesh/SharedPottsMeshGenerator.hpp'
p264
sg44
I00
sba(iwrapper_utilities.class_data
CppClass
p265
(dp266
g4
Nsg5
(dp267
g7
g8
sg9
g10
sg11
g12
sg13
g14
sg15
g16
sg17
g18
sg19
g20
sS'*'
g21
sg22
g23
sg24
g23
sg25
g26
sg27
g23
ssg28
S'PottsElement'
p268
sg30
I00
sg31
I00
sg32
Nsg33
g222
sg35
I01
sg36
I01
sg37
I00
sg38
Nsg39
g199
sg40
Nsg41
Nsg42
I01
sg43
S'/home/grogan/Chaste/cell_based/src/mesh/PottsElement.hpp'
p269
sg44
I00
sba(iwrapper_utilities.class_data
CppClass
p270
(dp271
g4
Nsg5
(dp272
g7
g8
sg9
g10
sg11
g12
sg13
g14
sg15
g16
sg17
g18
sg19
g20
sS'*'
g21
sg22
g23
sg24
g23
sg25
g26
sg27
g23
ssg28
S'TetrahedralMesh'
p273
sg30
I00
sg31
I00
sg32
Nsg33
g222
sg35
I01
sg36
I01
sg37
I00
sg38
Nsg39
g181
sg40
(lp274
S'FreeTriangulateIo'
p275
aS'InitialiseTriangulateIo'
p276
asg41
Nsg42
I00
sg43
S'/home/grogan/Chaste/mesh/src/common/TetrahedralMesh.hpp'
p277
sg44
I00
sba(iwrapper_utilities.class_data
CppClass
p278
(dp279
g4
Nsg5
(dp280
g7
g8
sg9
g10
sg11
g12
sg13
g14
sg15
g16
sg17
g18
sg19
g20
sS'*'
g21
sg22
g23
sg24
g23
sg25
g26
sg27
g23
ssg28
S'AbstractTetrahedralMesh'
p281
sg30
I00
sg31
I00
sg32
Nsg33
g222
sg35
I01
sg36
I01
sg37
I00
sg38
Nsg39
g181
sg40
Nsg41
Nsg42
I00
sg43
S'/home/grogan/Chaste/mesh/src/common/AbstractTetrahedralMesh.hpp'
p282
sg44
I00
sba(iwrapper_utilities.class_data
CppClass
p283
(dp284
g4
Nsg5
(dp285
g7
g8
sg9
g10
sg11
g12
sg13
g14
sg15
g16
sg17
g18
sg19
g20
sS'*'
g21
sg22
g23
sg24
g23
sg25
g26
sg27
g23
ssg28
S'AbstractMesh'
p286
sg30
I00
sg31
I00
sg32
Nsg33
g222
sg35
I01
sg36
I01
sg37
I00
sg38
Nsg39
g181
sg40
Nsg41
Nsg42
I00
sg43
S'/home/grogan/Chaste/mesh/src/common/AbstractMesh.hpp'
p287
sg44
I00
sba(iwrapper_utilities.class_data
CppClass
p288
(dp289
g4
Nsg5
(dp290
g7
g8
sg9
g10
sg11
g12
sg13
g14
sg15
g16
sg17
g18
sg19
g20
sS'*'
g21
sg22
g23
sg24
g23
sg25
g26
sg27
g23
ssg28
S'VertexMesh'
p291
sg30
I00
sg31
I00
sg32
Nsg33
g222
sg35
I01
sg36
I01
sg37
I00
sg38
Nsg39
g181
sg40
(lp292
S'GetFace'
p293
asg41
Nsg42
I00
sg43
S'/home/grogan/Chaste/mesh/src/vertex/VertexMesh.hpp'
p294
sg44
I00
sba(iwrapper_utilities.class_data
CppClass
p295
(dp296
g4
Nsg5
(dp297
g7
g8
sg9
g10
sg11
g12
sg13
g14
sg15
g16
sg17
g18
sg19
g20
sS'*'
g21
sg22
g23
sg24
g23
sg25
g26
sg27
g23
ssg28
S'MutableVertexMesh'
p298
sg30
I00
sg31
I00
sg32
Nsg33
g222
sg35
I01
sg36
I01
sg37
I00
sg38
Nsg39
g181
sg40
Nsg41
Nsg42
I00
sg43
S'/home/grogan/Chaste/mesh/src/vertex/MutableVertexMesh.hpp'
p299
sg44
I00
sba(iwrapper_utilities.class_data
CppClass
p300
(dp301
g4
Nsg5
(dp302
g7
g8
sg9
g10
sg11
g12
sg13
g14
sg15
g16
sg17
g18
sg19
g20
sS'*'
g21
sg22
g23
sg24
g23
sg25
g26
sg27
g23
ssg28
S'Cylindrical2dVertexMesh'
p303
sg30
I00
sg31
I00
sg32
Nsg33
g222
sg35
I01
sg36
I01
sg37
I00
sg38
Nsg39
Nsg40
Nsg41
Nsg42
I00
sg43
S'/home/grogan/Chaste/mesh/src/vertex/Cylindrical2dVertexMesh.hpp'
p304
sg44
I00
sba(iwrapper_utilities.class_data
CppClass
p305
(dp306
g4
Nsg5
(dp307
g7
g8
sg9
g10
sg11
g12
sg13
g14
sg15
g16
sg17
g18
sg19
g20
sS'*'
g21
sg22
g23
sg24
g23
sg25
g26
sg27
g23
ssg28
S'SharedHoneycombMeshGenerator'
p308
sg30
I00
sg31
I00
sg32
Nsg33
g222
sg35
I01
sg36
I01
sg37
I00
sg38
Nsg39
Nsg40
Nsg41
S'HoneycombMeshGenerator'
p309
sg42
I00
sg43
S'/home/grogan/Chaste/projects/PyChaste/src/mesh/SharedHoneycombMeshGenerator.hpp'
p310
sg44
I00
sba(iwrapper_utilities.class_data
CppClass
p311
(dp312
g4
Nsg5
(dp313
g7
g8
sg9
g10
sg11
g12
sg13
g14
sg15
g16
sg17
g18
sg19
g20
sS'*'
g21
sg22
g23
sg24
g23
sg25
g26
sg27
g23
ssg28
S'SharedHoneycombVertexMeshGenerator'
p314
sg30
I00
sg31
I00
sg32
Nsg33
g222
sg35
I01
sg36
I01
sg37
I00
sg38
Nsg39
Nsg40
Nsg41
S'HoneycombVertexMeshGenerator'
p315
sg42
I00
sg43
S'/home/grogan/Chaste/projects/PyChaste/src/mesh/SharedHoneycombVertexMeshGenerator.hpp'
p316
sg44
I00
sba(iwrapper_utilities.class_data
CppClass
p317
(dp318
g4
Nsg5
(dp319
g7
g8
sg9
g10
sg11
g12
sg13
g14
sg15
g16
sg17
g18
sg19
g20
sS'*'
g21
sg22
g23
sg24
g23
sg25
g26
sg27
g23
ssg28
S'SharedCylindricalHoneycombVertexMeshGenerator'
p320
sg30
I00
sg31
I00
sg32
Nsg33
g222
sg35
I01
sg36
I01
sg37
I00
sg38
Nsg39
Nsg40
Nsg41
S'CylindricalHoneycombVertexMeshGenerator'
p321
sg42
I00
sg43
S'/home/grogan/Chaste/projects/PyChaste/src/mesh/SharedCylindricalHoneycombVertexMeshGenerator.hpp'
p322
sg44
I00
sba(iwrapper_utilities.class_data
CppClass
p323
(dp324
g4
Nsg5
(dp325
g7
g8
sg9
g10
sg11
g12
sg13
g14
sg15
g16
sg17
g18
sg19
g20
sS'*'
g21
sg22
g23
sg24
g23
sg25
g26
sg27
g23
ssg28
S'std::pair'
p326
sg30
I00
sg31
I00
sg32
Nsg33
Nsg35
I00
sg36
I00
sg37
I01
sg38
Nsg39
(lp327
(lp328
S'Node3Ptr, Node3Ptr'
p329
aa(lp330
S'Node2Ptr, Node2Ptr'
p331
aasg40
Nsg41
Nsg42
I00
sg43
Nsg44
I00
sba(iwrapper_utilities.class_data
CppClass
p332
(dp333
g4
Nsg5
(dp334
g7
g8
sg9
g10
sg11
g12
sg13
g14
sg15
g16
sg17
g18
sg19
g20
sS'*'
g21
sg22
g23
sg24
g23
sg25
g26
sg27
g23
ssg28
g60
sg30
I00
sg31
I00
sg32
Nsg33
Nsg35
I00
sg36
I00
sg37
I01
sg38
Nsg39
(lp335
(lp336
S'PairNode3PtrNode3Ptr'
p337
aa(lp338
S'PairNode2PtrNode2Ptr'
p339
aa(lp340
S'VertexElement<1,2>*'
p341
aa(lp342
S'VertexElement<2,2>*'
p343
aa(lp344
S'VertexElement<2,3>*'
p345
aa(lp346
S'VertexElement<3,3>*'
p347
aasg40
Nsg41
Nsg42
I00
sg43
Nsg44
I00
sba(iwrapper_utilities.class_data
CppClass
p348
(dp349
g4
Nsg5
(dp350
g7
g8
sg9
g10
sg11
g12
sg13
g14
sg15
g16
sg17
g18
sg19
g20
sS'*'
g21
sg22
g23
sg24
g23
sg25
g26
sg27
g23
ssg28
g54
sg30
I00
sg31
I00
sg32
Nsg33
S'cell_based'
p351
sg35
I00
sg36
I00
sg37
I01
sg38
Nsg39
(lp352
(lp353
S'CellPtr'
p354
aasg40
Nsg41
Nsg42
I00
sg43
Nsg44
I00
sba(iwrapper_utilities.class_data
CppClass
p355
(dp356
g4
Nsg5
(dp357
g7
g8
sg9
g10
sg11
g12
sg13
g14
sg15
g16
sg17
g18
sg19
g20
sS'*'
g21
sg22
g23
sg24
g23
sg25
g26
sg27
g23
ssg28
g48
sg30
I00
sg31
I00
sg32
Nsg33
g351
sg35
I00
sg36
I00
sg37
I01
sg38
Nsg39
(lp358
(lp359
S'Node2Ptr, c_vector<double, 2> '
p360
aa(lp361
S'Node3Ptr, c_vector<double, 3> '
p362
aa(lp363
S'CellPtr, unsigned'
p364
aasg40
Nsg41
Nsg42
I00
sg43
Nsg44
I00
sba(iwrapper_utilities.class_data
CppClass
p365
(dp366
g4
Nsg5
(dp367
g7
g8
sg9
g10
sg11
g12
sg13
g14
sg15
g16
sg17
g18
sg19
g20
sS'*'
g21
sg22
g23
sg24
g23
sg25
g26
sg27
g23
ssg28
S'AbstractCellBasedSimulation'
p368
sg30
I00
sg31
I00
sg32
Nsg33
g351
sg35
I01
sg36
I01
sg37
I00
sg38
Nsg39
g181
sg40
(lp369
S'GetSimulationModifiers'
p370
asg41
Nsg42
I00
sg43
S'/home/grogan/Chaste/cell_based/src/simulation/AbstractCellBasedSimulation.hpp'
p371
sg44
I00
sba(iwrapper_utilities.class_data
CppClass
p372
(dp373
g4
Nsg5
(dp374
g7
g8
sg9
g10
sg11
g12
sg13
g14
sg15
g16
sg17
g18
sg19
g20
sS'*'
g21
sg22
g23
sg24
g23
sg25
g26
sg27
g23
ssg28
S'SimulationTime'
p375
sg30
I00
sg31
I00
sg32
Nsg33
g351
sg35
I01
sg36
I01
sg37
I00
sg38
Nsg39
Nsg40
Nsg41
Nsg42
I00
sg43
S'/home/grogan/Chaste/cell_based/src/common/SimulationTime.hpp'
p376
sg44
I00
sba(iwrapper_utilities.class_data
CppClass
p377
(dp378
g4
Nsg5
(dp379
g7
g8
sg9
g10
sg11
g12
sg13
g14
sg15
g16
sg17
g18
sg19
g20
sS'*'
g21
sg22
g23
sg24
g23
sg25
g26
sg27
g23
ssg28
S'OnLatticeSimulation'
p380
sg30
I00
sg31
I00
sg32
Nsg33
g351
sg35
I01
sg36
I01
sg37
I00
sg38
Nsg39
g199
sg40
Nsg41
Nsg42
I00
sg43
S'/home/grogan/Chaste/cell_based/src/simulation/OnLatticeSimulation.hpp'
p381
sg44
I00
sba(iwrapper_utilities.class_data
CppClass
p382
(dp383
g4
Nsg5
(dp384
g7
g8
sg9
g10
sg11
g12
sg13
g14
sg15
g16
sg17
g18
sg19
g20
sS'*'
g21
sg22
g23
sg24
g23
sg25
g26
sg27
g23
ssg28
S'OffLatticeSimulation'
p385
sg30
I00
sg31
I00
sg32
Nsg33
g351
sg35
I01
sg36
I01
sg37
I00
sg38
Nsg39
g181
sg40
Nsg41
Nsg42
I00
sg43
S'/home/grogan/Chaste/cell_based/src/simulation/OffLatticeSimulation.hpp'
p386
sg44
I00
sba(iwrapper_utilities.class_data
CppClass
p387
(dp388
g4
Nsg5
(dp389
g7
g8
sg9
g10
sg11
g12
sg13
g14
sg15
g16
sg17
g18
sg19
g20
sS'*'
g21
sg22
g23
sg24
g23
sg25
g26
sg27
g23
ssg28
S'AbstractCellPopulation'
p390
sg30
I00
sg31
I00
sg32
Nsg33
g351
sg35
I01
sg36
I01
sg37
I00
sg38
Nsg39
g181
sg40
(lp391
S'rGetCells'
p392
asg41
Nsg42
I00
sg43
S'/home/grogan/Chaste/cell_based/src/population/AbstractCellPopulation.hpp'
p393
sg44
I00
sba(iwrapper_utilities.class_data
CppClass
p394
(dp395
g4
Nsg5
(dp396
g7
g8
sg9
g10
sg11
g12
sg13
g14
sg15
g16
sg17
g18
sg19
g20
sS'*'
g21
sg22
g23
sg24
g23
sg25
g26
sg27
g23
ssg28
S'AbstractOnLatticeCellPopulation'
p397
sg30
I00
sg31
I00
sg32
Nsg33
g351
sg35
I01
sg36
I01
sg37
I00
sg38
Nsg39
g199
sg40
Nsg41
Nsg42
I00
sg43
S'/home/grogan/Chaste/cell_based/src/population/AbstractOnLatticeCellPopulation.hpp'
p398
sg44
I00
sba(iwrapper_utilities.class_data
CppClass
p399
(dp400
g4
Nsg5
(dp401
g7
g8
sg9
g10
sg11
g12
sg13
g14
sg15
g16
sg17
g18
sg19
g20
sS'*'
g21
sg22
g23
sg24
g23
sg25
g26
sg27
g23
ssg28
S'AbstractCentreBasedCellPopulation'
p402
sg30
I00
sg31
I00
sg32
Nsg33
g351
sg35
I01
sg36
I01
sg37
I00
sg38
Nsg39
g181
sg40
(lp403
S'GetNodeCorrespondingToCell'
p404
asg41
Nsg42
I00
sg43
S'/home/grogan/Chaste/cell_based/src/population/AbstractCentreBasedCellPopulation.hpp'
p405
sg44
I00
sba(iwrapper_utilities.class_data
CppClass
p406
(dp407
g4
Nsg5
(dp408
g7
g8
sg9
g10
sg11
g12
sg13
g14
sg15
g16
sg17
g18
sg19
g20
sS'*'
g21
sg22
g23
sg24
g23
sg25
g26
sg27
g23
ssg28
S'AbstractOffLatticeCellPopulation'
p409
sg30
I00
sg31
I00
sg32
Nsg33
g351
sg35
I01
sg36
I01
sg37
I00
sg38
Nsg39
g181
sg40
Nsg41
Nsg42
I00
sg43
S'/home/grogan/Chaste/cell_based/src/population/AbstractOffLatticeCellPopulation.hpp'
p410
sg44
I00
sba(iwrapper_utilities.class_data
CppClass
p411
(dp412
g4
Nsg5
(dp413
g7
g8
sg9
g10
sg11
g12
sg13
g14
sg15
g16
sg17
g18
sg19
g20
sS'*'
g21
sg22
g23
sg24
g23
sg25
g26
sg27
g23
ssg28
S'CaBasedCellPopulation'
p414
sg30
I00
sg31
I00
sg32
Nsg33
g351
sg35
I01
sg36
I01
sg37
I00
sg38
Nsg39
g199
sg40
(lp415
S'rGetMesh'
p416
aS'GetTetrahedralMeshForPdeModifierGetNodeCorrespondingToCell'
p417
aS'rGetAvailableSpaces'
p418
asg41
Nsg42
I00
sg43
S'/home/grogan/Chaste/cell_based/src/population/CaBasedCellPopulation.hpp'
p419
sg44
I00
sba(iwrapper_utilities.class_data
CppClass
p420
(dp421
g4
Nsg5
(dp422
g7
g8
sg9
g10
sg11
g12
sg13
g14
sg15
g16
sg17
g18
sg19
g20
sS'*'
g21
sg22
g23
sg24
g23
sg25
g26
sg27
g23
ssg28
S'MeshBasedCellPopulation'
p423
sg30
I00
sg31
I00
sg32
Nsg33
g351
sg35
I01
sg36
I01
sg37
I00
sg38
Nsg39
g181
sg40
(lp424
S'GetVoronoiTessellation, rGetNodePairs, GetTetrahedralMeshForPdeModifier'
p425
ag416
asg41
Nsg42
I00
sg43
S'/home/grogan/Chaste/cell_based/src/population/MeshBasedCellPopulation.hpp'
p426
sg44
I00
sba(iwrapper_utilities.class_data
CppClass
p427
(dp428
g4
Nsg5
(dp429
g7
g8
sg9
g10
sg11
g12
sg13
g14
sg15
g16
sg17
g18
sg19
g20
sS'*'
g21
sg22
g23
sg24
g23
sg25
g26
sg27
g23
ssg28
S'MeshBasedCellPopulationWithGhostNodes'
p430
sg30
I00
sg31
I00
sg32
Nsg33
g351
sg35
I01
sg36
I01
sg37
I00
sg38
Nsg39
g199
sg40
Nsg41
Nsg42
I00
sg43
S'/home/grogan/Chaste/cell_based/src/population/MeshBasedCellPopulationWithGhostNodes.hpp'
p431
sg44
I00
sba(iwrapper_utilities.class_data
CppClass
p432
(dp433
g4
Nsg5
(dp434
g7
g8
sg9
g10
sg11
g12
sg13
g14
sg15
g16
sg17
g18
sg19
g20
sS'*'
g21
sg22
g23
sg24
g23
sg25
g26
sg27
g23
ssg28
S'VertexBasedCellPopulation'
p435
sg30
I00
sg31
I00
sg32
Nsg33
g351
sg35
I01
sg36
I01
sg37
I00
sg38
Nsg39
g199
sg40
(lp436
g416
aS'GetTetrahedralMeshForPdeModifier'
p437
aS'GetElement'
p438
aS'GetElementCorrespondingToCell'
p439
asg41
Nsg42
I00
sg43
S'/home/grogan/Chaste/cell_based/src/population/VertexBasedCellPopulation.hpp'
p440
sg44
I00
sba(iwrapper_utilities.class_data
CppClass
p441
(dp442
g4
Nsg5
(dp443
g7
g8
sg9
g10
sg11
g12
sg13
g14
sg15
g16
sg17
g18
sg19
g20
sS'*'
g21
sg22
g23
sg24
g23
sg25
g26
sg27
g23
ssg28
S'PottsBasedCellPopulation'
p444
sg30
I00
sg31
I00
sg32
Nsg33
g351
sg35
I01
sg36
I01
sg37
I00
sg38
Nsg39
g199
sg40
(lp445
g416
ag437
ag438
ag439
aS'GetElementTessellation'
p446
aS'GetMutableMesh'
p447
asg41
Nsg42
I00
sg43
S'/home/grogan/Chaste/cell_based/src/population/PottsBasedCellPopulation.hpp'
p448
sg44
I00
sba(iwrapper_utilities.class_data
CppClass
p449
(dp450
g4
Nsg5
(dp451
g7
g8
sg9
g10
sg11
g12
sg13
g14
sg15
g16
sg17
g18
sg19
g20
sS'*'
g21
sg22
g23
sg24
g23
sg25
g26
sg27
g23
ssg28
S'NodeBasedCellPopulation'
p452
sg30
I00
sg31
I00
sg32
Nsg33
g351
sg35
I01
sg36
I01
sg37
I00
sg38
Nsg39
g199
sg40
(lp453
g416
ag437
aS'rGetNodePairs'
p454
asg41
Nsg42
I00
sg43
S'/home/grogan/Chaste/cell_based/src/population/NodeBasedCellPopulation.hpp'
p455
sg44
I00
sba(iwrapper_utilities.class_data
CppClass
p456
(dp457
g4
Nsg5
(dp458
g7
g8
sg9
g10
sg11
g12
sg13
g14
sg15
g16
sg17
g18
sg19
g20
sS'*'
g21
sg22
g23
sg24
g23
sg25
g26
sg27
g23
ssg28
S'VoronoiDataWriter'
p459
sg30
I00
sg31
I00
sg32
Nsg33
g351
sg35
I01
sg36
I01
sg37
I00
sg38
Nsg39
g181
sg40
Nsg41
Nsg42
I00
sg43
S'/home/grogan/Chaste/cell_based/src/writers/population_writers/VoronoiDataWriter.hpp'
p460
sg44
I00
sba(iwrapper_utilities.class_data
CppClass
p461
(dp462
g4
Nsg5
(dp463
g7
g8
sg9
g10
sg11
g12
sg13
g14
sg15
g16
sg17
g18
sg19
g20
sS'*'
g21
sg22
g23
sg24
g23
sg25
g26
sg27
g23
ssg28
S'CellLabelWriter'
p464
sg30
I00
sg31
I00
sg32
Nsg33
g351
sg35
I01
sg36
I01
sg37
I00
sg38
Nsg39
g181
sg40
Nsg41
Nsg42
I00
sg43
S'/home/grogan/Chaste/cell_based/src/writers/cell_writers/CellLabelWriter.hpp'
p465
sg44
I00
sba(iwrapper_utilities.class_data
CppClass
p466
(dp467
g4
Nsg5
(dp468
g7
g8
sg9
g10
sg11
g12
sg13
g14
sg15
g16
sg17
g18
sg19
g20
sS'*'
g21
sg22
g23
sg24
g23
sg25
g26
sg27
g23
ssg28
S'AbstractCellPopulationBoundaryCondition'
p469
sg30
I00
sg31
I00
sg32
Nsg33
g351
sg35
I01
sg36
I01
sg37
I00
sg38
Nsg39
g181
sg40
Nsg41
Nsg42
I00
sg43
S'/home/grogan/Chaste/cell_based/src/population/boundary_conditions/AbstractCellPopulationBoundaryCondition.hpp'
p470
sg44
I00
sba(iwrapper_utilities.class_data
CppClass
p471
(dp472
g4
Nsg5
(dp473
g7
g8
sg9
g10
sg11
g12
sg13
g14
sg15
g16
sg17
g18
sg19
g20
sS'*'
g21
sg22
g23
sg24
g23
sg25
g26
sg27
g23
ssg28
S'PlaneBoundaryCondition'
p474
sg30
I00
sg31
I00
sg32
Nsg33
g351
sg35
I01
sg36
I01
sg37
I00
sg38
Nsg39
g181
sg40
Nsg41
Nsg42
I00
sg43
S'/home/grogan/Chaste/cell_based/src/population/boundary_conditions/PlaneBoundaryCondition.hpp'
p475
sg44
I00
sba(iwrapper_utilities.class_data
CppClass
p476
(dp477
g4
Nsg5
(dp478
g7
g8
sg9
g10
sg11
g12
sg13
g14
sg15
g16
sg17
g18
sg19
g20
sS'*'
g21
sg22
g23
sg24
g23
sg25
g26
sg27
g23
ssg28
S'AttractingPlaneBoundaryCondition'
p479
sg30
I00
sg31
I00
sg32
Nsg33
g351
sg35
I01
sg36
I01
sg37
I00
sg38
Nsg39
g181
sg40
Nsg41
Nsg42
I00
sg43
S'/home/grogan/Chaste/projects/PyChaste/src/cell_based/AttractingPlaneBoundaryCondition.hpp'
p480
sg44
I00
sba(iwrapper_utilities.class_data
CppClass
p481
(dp482
g4
Nsg5
(dp483
g7
g8
sg9
g10
sg11
g12
sg13
g14
sg15
g16
sg17
g18
sg19
g20
sS'*'
g21
sg22
g23
sg24
g23
sg25
g26
sg27
g23
ssg28
S'SphereGeometryBoundaryCondition'
p484
sg30
I00
sg31
I00
sg32
Nsg33
g351
sg35
I01
sg36
I01
sg37
I00
sg38
Nsg39
g199
sg40
Nsg41
Nsg42
I00
sg43
S'/home/grogan/Chaste/cell_based/src/population/boundary_conditions/SphereGeometryBoundaryCondition.hpp'
p485
sg44
I00
sba(iwrapper_utilities.class_data
CppClass
p486
(dp487
g4
Nsg5
(dp488
g7
g8
sg9
g10
sg11
g12
sg13
g14
sg15
g16
sg17
g18
sg19
g20
sS'*'
g21
sg22
g23
sg24
g23
sg25
g26
sg27
g23
ssg28
S'AbstractCellKiller'
p489
sg30
I00
sg31
I00
sg32
Nsg33
g351
sg35
I01
sg36
I01
sg37
I00
sg38
Nsg39
g199
sg40
Nsg41
Nsg42
I00
sg43
S'/home/grogan/Chaste/cell_based/src/population/killers/AbstractCellKiller.hpp'
p490
sg44
I00
sba(iwrapper_utilities.class_data
CppClass
p491
(dp492
g4
Nsg5
(dp493
g7
g8
sg9
g10
sg11
g12
sg13
g14
sg15
g16
sg17
g18
sg19
g20
sS'*'
g21
sg22
g23
sg24
g23
sg25
g26
sg27
g23
ssg28
S'PlaneBasedCellKiller'
p494
sg30
I00
sg31
I00
sg32
Nsg33
g351
sg35
I01
sg36
I01
sg37
I00
sg38
Nsg39
g199
sg40
Nsg41
Nsg42
I00
sg43
S'/home/grogan/Chaste/cell_based/src/population/killers/PlaneBasedCellKiller.hpp'
p495
sg44
I00
sba(iwrapper_utilities.class_data
CppClass
p496
(dp497
g4
Nsg5
(dp498
g7
g8
sg9
g10
sg11
g12
sg13
g14
sg15
g16
sg17
g18
sg19
g20
sS'*'
g21
sg22
g23
sg24
g23
sg25
g26
sg27
g23
ssg28
S'ApoptoticCellKiller'
p499
sg30
I00
sg31
I00
sg32
Nsg33
g351
sg35
I01
sg36
I01
sg37
I00
sg38
Nsg39
g199
sg40
Nsg41
Nsg42
I00
sg43
S'/home/grogan/Chaste/cell_based/src/population/killers/ApoptoticCellKiller.hpp'
p500
sg44
I00
sba(iwrapper_utilities.class_data
CppClass
p501
(dp502
g4
Nsg5
(dp503
g7
g8
sg9
g10
sg11
g12
sg13
g14
sg15
g16
sg17
g18
sg19
g20
sS'*'
g21
sg22
g23
sg24
g23
sg25
g26
sg27
g23
ssg28
S'AbstractForce'
p504
sg30
I00
sg31
I00
sg32
Nsg33
g351
sg35
I01
sg36
I01
sg37
I00
sg38
Nsg39
g181
sg40
Nsg41
Nsg42
I01
sg43
S'/home/grogan/Chaste/cell_based/src/population/forces/AbstractForce.hpp'
p505
sg44
I00
sba(iwrapper_utilities.class_data
CppClass
p506
(dp507
g4
Nsg5
(dp508
g7
g8
sg9
g10
sg11
g12
sg13
g14
sg15
g16
sg17
g18
sg19
g20
sS'*'
g21
sg22
g23
sg24
g23
sg25
g26
sg27
g23
ssg28
S'AbstractTwoBodyInteractionForce'
p509
sg30
I00
sg31
I00
sg32
Nsg33
g351
sg35
I01
sg36
I01
sg37
I00
sg38
Nsg39
g181
sg40
Nsg41
Nsg42
I00
sg43
S'/home/grogan/Chaste/cell_based/src/population/forces/AbstractTwoBodyInteractionForce.hpp'
p510
sg44
I00
sba(iwrapper_utilities.class_data
CppClass
p511
(dp512
g4
Nsg5
(dp513
g7
g8
sg9
g10
sg11
g12
sg13
g14
sg15
g16
sg17
g18
sg19
g20
sS'*'
g21
sg22
g23
sg24
g23
sg25
g26
sg27
g23
ssg28
S'GeneralisedLinearSpringForce'
p514
sg30
I00
sg31
I00
sg32
Nsg33
g351
sg35
I01
sg36
I01
sg37
I00
sg38
Nsg39
g181
sg40
Nsg41
Nsg42
I00
sg43
S'/home/grogan/Chaste/cell_based/src/population/forces/GeneralisedLinearSpringForce.hpp'
p515
sg44
I00
sba(iwrapper_utilities.class_data
CppClass
p516
(dp517
g4
Nsg5
(dp518
g7
g8
sg9
g10
sg11
g12
sg13
g14
sg15
g16
sg17
g18
sg19
g20
sS'*'
g21
sg22
g23
sg24
g23
sg25
g26
sg27
g23
ssg28
S'NagaiHondaForce'
p519
sg30
I00
sg31
I00
sg32
Nsg33
g351
sg35
I01
sg36
I01
sg37
I00
sg38
Nsg39
g199
sg40
Nsg41
Nsg42
I00
sg43
S'/home/grogan/Chaste/cell_based/src/population/forces/NagaiHondaForce.hpp'
p520
sg44
I00
sba(iwrapper_utilities.class_data
CppClass
p521
(dp522
g4
Nsg5
(dp523
g7
g8
sg9
g10
sg11
g12
sg13
g14
sg15
g16
sg17
g18
sg19
g20
sS'*'
g21
sg22
g23
sg24
g23
sg25
g26
sg27
g23
ssg28
S'AbstractVertexBasedDivisionRule'
p524
sg30
I00
sg31
I00
sg32
Nsg33
g351
sg35
I01
sg36
I01
sg37
I00
sg38
Nsg39
g199
sg40
Nsg41
Nsg42
I00
sg43
S'/home/grogan/Chaste/cell_based/src/population/division_rules/AbstractVertexBasedDivisionRule.hpp'
p525
sg44
I00
sba(iwrapper_utilities.class_data
CppClass
p526
(dp527
g4
Nsg5
(dp528
g7
g8
sg9
g10
sg11
g12
sg13
g14
sg15
g16
sg17
g18
sg19
g20
sS'*'
g21
sg22
g23
sg24
g23
sg25
g26
sg27
g23
ssg28
S'AbstractCaUpdateRule'
p529
sg30
I00
sg31
I00
sg32
Nsg33
g351
sg35
I01
sg36
I01
sg37
I00
sg38
Nsg39
g199
sg40
Nsg41
Nsg42
I00
sg43
S'/home/grogan/Chaste/cell_based/src/population/update_rules/AbstractCaUpdateRule.hpp'
p530
sg44
I00
sba(iwrapper_utilities.class_data
CppClass
p531
(dp532
g4
Nsg5
(dp533
g7
g8
sg9
g10
sg11
g12
sg13
g14
sg15
g16
sg17
g18
sg19
g20
sS'*'
g21
sg22
g23
sg24
g23
sg25
g26
sg27
g23
ssg28
S'AbstractUpdateRule'
p534
sg30
I00
sg31
I00
sg32
Nsg33
g351
sg35
I01
sg36
I01
sg37
I00
sg38
Nsg39
g199
sg40
Nsg41
Nsg42
I01
sg43
S'/home/grogan/Chaste/cell_based/src/population/update_rules/AbstractUpdateRule.hpp'
p535
sg44
I00
sba(iwrapper_utilities.class_data
CppClass
p536
(dp537
g4
Nsg5
(dp538
g7
g8
sg9
g10
sg11
g12
sg13
g14
sg15
g16
sg17
g18
sg19
g20
sS'*'
g21
sg22
g23
sg24
g23
sg25
g26
sg27
g23
ssg28
S'DiffusionCaUpdateRule'
p539
sg30
I00
sg31
I00
sg32
Nsg33
g351
sg35
I01
sg36
I01
sg37
I00
sg38
Nsg39
g199
sg40
Nsg41
Nsg42
I00
sg43
S'/home/grogan/Chaste/cell_based/src/population/update_rules/DiffusionCaUpdateRule.hpp'
p540
sg44
I00
sba(iwrapper_utilities.class_data
CppClass
p541
(dp542
g4
Nsg5
(dp543
g7
g8
sg9
g10
sg11
g12
sg13
g14
sg15
g16
sg17
g18
sg19
g20
sS'*'
g21
sg22
g23
sg24
g23
sg25
g26
sg27
g23
ssg28
S'AbstractPottsUpdateRule'
p544
sg30
I00
sg31
I00
sg32
Nsg33
g351
sg35
I01
sg36
I01
sg37
I00
sg38
Nsg39
g199
sg40
Nsg41
Nsg42
I00
sg43
S'/home/grogan/Chaste/cell_based/src/population/update_rules/AbstractPottsUpdateRule.hpp'
p545
sg44
I00
sba(iwrapper_utilities.class_data
CppClass
p546
(dp547
g4
Nsg5
(dp548
g7
g8
sg9
g10
sg11
g12
sg13
g14
sg15
g16
sg17
g18
sg19
g20
sS'*'
g21
sg22
g23
sg24
g23
sg25
g26
sg27
g23
ssg28
S'VolumeConstraintPottsUpdateRule'
p549
sg30
I00
sg31
I00
sg32
Nsg33
g351
sg35
I01
sg36
I01
sg37
I00
sg38
Nsg39
g199
sg40
Nsg41
Nsg42
I00
sg43
S'/home/grogan/Chaste/cell_based/src/population/update_rules/VolumeConstraintPottsUpdateRule.hpp'
p550
sg44
I00
sba(iwrapper_utilities.class_data
CppClass
p551
(dp552
g4
Nsg5
(dp553
g7
g8
sg9
g10
sg11
g12
sg13
g14
sg15
g16
sg17
g18
sg19
g20
sS'*'
g21
sg22
g23
sg24
g23
sg25
g26
sg27
g23
ssg28
S'SurfaceAreaConstraintPottsUpdateRule'
p554
sg30
I00
sg31
I00
sg32
Nsg33
g351
sg35
I01
sg36
I01
sg37
I00
sg38
Nsg39
g199
sg40
Nsg41
Nsg42
I00
sg43
S'/home/grogan/Chaste/cell_based/src/population/update_rules/SurfaceAreaConstraintPottsUpdateRule.hpp'
p555
sg44
I00
sba(iwrapper_utilities.class_data
CppClass
p556
(dp557
g4
Nsg5
(dp558
g7
g8
sg9
g10
sg11
g12
sg13
g14
sg15
g16
sg17
g18
sg19
g20
sS'*'
g21
sg22
g23
sg24
g23
sg25
g26
sg27
g23
ssg28
S'DifferentialAdhesionPottsUpdateRule'
p559
sg30
I00
sg31
I00
sg32
Nsg33
g351
sg35
I01
sg36
I01
sg37
I00
sg38
Nsg39
g199
sg40
Nsg41
Nsg42
I00
sg43
S'/home/grogan/Chaste/cell_based/src/population/update_rules/DifferentialAdhesionPottsUpdateRule.hpp'
p560
sg44
I00
sba(iwrapper_utilities.class_data
CppClass
p561
(dp562
g4
Nsg5
(dp563
g7
g8
sg9
g10
sg11
g12
sg13
g14
sg15
g16
sg17
g18
sg19
g20
sS'*'
g21
sg22
g23
sg24
g23
sg25
g26
sg27
g23
ssg28
S'AdhesionPottsUpdateRule'
p564
sg30
I00
sg31
I00
sg32
Nsg33
g351
sg35
I01
sg36
I01
sg37
I00
sg38
Nsg39
g199
sg40
Nsg41
Nsg42
I00
sg43
S'/home/grogan/Chaste/cell_based/src/population/update_rules/AdhesionPottsUpdateRule.hpp'
p565
sg44
I00
sba(iwrapper_utilities.class_data
CppClass
p566
(dp567
g4
Nsg5
(dp568
g7
g8
sg9
g10
sg11
g12
sg13
g14
sg15
g16
sg17
g18
sg19
g20
sS'*'
g21
sg22
g23
sg24
g23
sg25
g26
sg27
g23
ssg28
S'CellwiseSourceEllipticPde'
p569
sg30
I00
sg31
I00
sg32
Nsg33
g351
sg35
I01
sg36
I01
sg37
I00
sg38
Nsg39
g199
sg40
Nsg41
Nsg42
I00
sg43
S'/home/grogan/Chaste/cell_based/src/cell_based_pde/pdes/CellwiseSourceEllipticPde.hpp'
p570
sg44
I00
sba(iwrapper_utilities.class_data
CppClass
p571
(dp572
g4
Nsg5
(dp573
g7
g8
sg9
g10
sg11
g12
sg13
g14
sg15
g16
sg17
g18
sg19
g20
sS'*'
g21
sg22
g23
sg24
g23
sg25
g26
sg27
g23
ssg28
S'AveragedSourceEllipticPde'
p574
sg30
I00
sg31
I00
sg32
Nsg33
g351
sg35
I01
sg36
I01
sg37
I00
sg38
Nsg39
g199
sg40
Nsg41
Nsg42
I00
sg43
S'/home/grogan/Chaste/cell_based/src/cell_based_pde/pdes/AveragedSourceEllipticPde.hpp'
p575
sg44
I00
sba(iwrapper_utilities.class_data
CppClass
p576
(dp577
g4
Nsg5
(dp578
g7
g8
sg9
g10
sg11
g12
sg13
g14
sg15
g16
sg17
g18
sg19
g20
sS'*'
g21
sg22
g23
sg24
g23
sg25
g26
sg27
g23
ssg28
S'AveragedSourceParabolicPde'
p579
sg30
I00
sg31
I00
sg32
Nsg33
g351
sg35
I01
sg36
I01
sg37
I00
sg38
Nsg39
g199
sg40
Nsg41
Nsg42
I00
sg43
S'/home/grogan/Chaste/cell_based/src/cell_based_pde/pdes/AveragedSourceParabolicPde.hpp'
p580
sg44
I00
sba(iwrapper_utilities.class_data
CppClass
p581
(dp582
g4
Nsg5
(dp583
g7
g8
sg9
g10
sg11
g12
sg13
g14
sg15
g16
sg17
g18
sg19
g20
sS'*'
g21
sg22
g23
sg24
g23
sg25
g26
sg27
g23
ssg28
S'CellwiseSourceParabolicPde'
p584
sg30
I00
sg31
I00
sg32
Nsg33
g351
sg35
I01
sg36
I01
sg37
I00
sg38
Nsg39
g199
sg40
Nsg41
Nsg42
I00
sg43
S'/home/grogan/Chaste/cell_based/src/cell_based_pde/pdes/CellwiseSourceParabolicPde.hpp'
p585
sg44
I00
sba(iwrapper_utilities.class_data
CppClass
p586
(dp587
g4
Nsg5
(dp588
g7
g8
sg9
g10
sg11
g12
sg13
g14
sg15
g16
sg17
g18
sg19
g20
sS'*'
g21
sg22
g23
sg24
g23
sg25
g26
sg27
g23
ssg28
S'AbstractPdeModifier'
p589
sg30
I00
sg31
I00
sg32
Nsg33
g351
sg35
I01
sg36
I01
sg37
I00
sg38
Nsg39
g199
sg40
(lp590
S'GetSolution, GetFeMesh'
p591
asg41
Nsg42
I00
sg43
S'/home/grogan/Chaste/cell_based/src/cell_based_pde/AbstractPdeModifier.hpp'
p592
sg44
I00
sba(iwrapper_utilities.class_data
CppClass
p593
(dp594
g4
Nsg5
(dp595
g7
g8
sg9
g10
sg11
g12
sg13
g14
sg15
g16
sg17
g18
sg19
g20
sS'*'
g21
sg22
g23
sg24
g23
sg25
g26
sg27
g23
ssg28
S'AbstractGrowingDomainPdeModifier'
p596
sg30
I00
sg31
I00
sg32
Nsg33
g351
sg35
I01
sg36
I01
sg37
I00
sg38
Nsg39
g199
sg40
Nsg41
Nsg42
I00
sg43
S'/home/grogan/Chaste/cell_based/src/cell_based_pde/AbstractGrowingDomainPdeModifier.hpp'
p597
sg44
I00
sba(iwrapper_utilities.class_data
CppClass
p598
(dp599
g4
Nsg5
(dp600
g7
g8
sg9
g10
sg11
g12
sg13
g14
sg15
g16
sg17
g18
sg19
g20
sS'*'
g21
sg22
g23
sg24
g23
sg25
g26
sg27
g23
ssg28
S'EllipticGrowingDomainPdeModifier'
p601
sg30
I00
sg31
I00
sg32
Nsg33
g351
sg35
I01
sg36
I01
sg37
I00
sg38
Nsg39
g199
sg40
(lp602
S'ConstructBoundaryConditionsContainer'
p603
asg41
Nsg42
I00
sg43
S'/home/grogan/Chaste/cell_based/src/cell_based_pde/EllipticGrowingDomainPdeModifier.hpp'
p604
sg44
I00
sba(iwrapper_utilities.class_data
CppClass
p605
(dp606
g4
Nsg5
(dp607
g7
g8
sg9
g10
sg11
g12
sg13
g14
sg15
g16
sg17
g18
sg19
g20
sS'*'
g21
sg22
g23
sg24
g23
sg25
g26
sg27
g23
ssg28
S'Cell'
p608
sg30
I00
sg31
I00
sg32
Nsg33
g351
sg35
I01
sg36
I01
sg37
I00
sg38
Nsg39
Nsg40
(lp609
S'rGetCellPropertyCollection'
p610
aS'GetSrnModel'
p611
asg41
Nsg42
I01
sg43
S'/home/grogan/Chaste/cell_based/src/cell/Cell.hpp'
p612
sg44
I00
sba(iwrapper_utilities.class_data
CppClass
p613
(dp614
g4
Nsg5
(dp615
g7
g8
sg9
g10
sg11
g12
sg13
g14
sg15
g16
sg17
g18
sg19
g20
sS'*'
g21
sg22
g23
sg24
g23
sg25
g26
sg27
g23
ssg28
S'CellsGenerator'
p616
sg30
I00
sg31
I00
sg32
Nsg33
g351
sg35
I01
sg36
I01
sg37
I00
sg38
Nsg39
(lp617
(lp618
S'UniformCellCycleModel'
p619
aI2
aa(lp620
g619
aI3
aa(lp621
S'SimpleOxygenBasedCellCycleModel'
p622
aI2
aa(lp623
g622
aI3
aa(lp624
S'UniformG1GenerationalCellCycleModel'
p625
aI2
aa(lp626
g625
aI3
aa(lp627
S'NoCellCycleModel'
p628
aI2
aa(lp629
g628
aI3
aasg40
Nsg41
Nsg42
I00
sg43
S'/home/grogan/Chaste/cell_based/src/cell/CellsGenerator.hpp'
p630
sg44
I00
sba(iwrapper_utilities.class_data
CppClass
p631
(dp632
g4
Nsg5
(dp633
g7
g8
sg9
g10
sg11
g12
sg13
g14
sg15
g16
sg17
g18
sg19
g20
sS'*'
g21
sg22
g23
sg24
g23
sg25
g26
sg27
g23
ssg28
S'AbstractCellCycleModel'
p634
sg30
I00
sg31
I00
sg32
Nsg33
g351
sg35
I01
sg36
I01
sg37
I00
sg38
Nsg39
Nsg40
Nsg41
Nsg42
I00
sg43
S'/home/grogan/Chaste/cell_based/src/cell/cycle/AbstractCellCycleModel.hpp'
p635
sg44
I00
sba(iwrapper_utilities.class_data
CppClass
p636
(dp637
g4
Nsg5
(dp638
g7
g8
sg9
g10
sg11
g12
sg13
g14
sg15
g16
sg17
g18
sg19
g20
sS'*'
g21
sg22
g23
sg24
g23
sg25
g26
sg27
g23
ssg28
S'AbstractPhaseBasedCellCycleModel'
p639
sg30
I00
sg31
I00
sg32
Nsg33
g351
sg35
I01
sg36
I01
sg37
I00
sg38
Nsg39
Nsg40
Nsg41
Nsg42
I00
sg43
S'/home/grogan/Chaste/cell_based/src/cell/cycle/AbstractPhaseBasedCellCycleModel.hpp'
p640
sg44
I00
sba(iwrapper_utilities.class_data
CppClass
p641
(dp642
g4
Nsg5
(dp643
g7
g8
sg9
g10
sg11
g12
sg13
g14
sg15
g16
sg17
g18
sg19
g20
sS'*'
g21
sg22
g23
sg24
g23
sg25
g26
sg27
g23
ssg28
S'AbstractSimpleCellCycleModel'
p644
sg30
I00
sg31
I00
sg32
Nsg33
g351
sg35
I01
sg36
I01
sg37
I00
sg38
Nsg39
Nsg40
Nsg41
Nsg42
I00
sg43
S'/home/grogan/Chaste/cell_based/src/cell/cycle/AbstractSimpleCellCycleModel.hpp'
p645
sg44
I00
sba(iwrapper_utilities.class_data
CppClass
p646
(dp647
g4
Nsg5
(dp648
g7
g8
sg9
g10
sg11
g12
sg13
g14
sg15
g16
sg17
g18
sg19
g20
sS'*'
g21
sg22
g23
sg24
g23
sg25
g26
sg27
g23
ssg28
S'AbstractSimplePhaseBasedCellCycleModel'
p649
sg30
I00
sg31
I00
sg32
Nsg33
g351
sg35
I01
sg36
I01
sg37
I00
sg38
Nsg39
Nsg40
Nsg41
Nsg42
I00
sg43
S'/home/grogan/Chaste/cell_based/src/cell/cycle/AbstractSimplePhaseBasedCellCycleModel.hpp'
p650
sg44
I00
sba(iwrapper_utilities.class_data
CppClass
p651
(dp652
g4
Nsg5
(dp653
g7
g8
sg9
g10
sg11
g12
sg13
g14
sg15
g16
sg17
g18
sg19
g20
sS'*'
g21
sg22
g23
sg24
g23
sg25
g26
sg27
g23
ssg28
S'AbstractSimpleGenerationalCellCycleModel'
p654
sg30
I00
sg31
I00
sg32
Nsg33
g351
sg35
I01
sg36
I01
sg37
I00
sg38
Nsg39
Nsg40
Nsg41
Nsg42
I00
sg43
S'/home/grogan/Chaste/cell_based/src/cell/cycle/AbstractSimpleGenerationalCellCycleModel.hpp'
p655
sg44
I00
sba(iwrapper_utilities.class_data
CppClass
p656
(dp657
g4
Nsg5
(dp658
g7
g8
sg9
g10
sg11
g12
sg13
g14
sg15
g16
sg17
g18
sg19
g20
sS'*'
g21
sg22
g23
sg24
g23
sg25
g26
sg27
g23
ssg28
g619
sg30
I00
sg31
I00
sg32
Nsg33
g351
sg35
I01
sg36
I01
sg37
I00
sg38
Nsg39
Nsg40
Nsg41
Nsg42
I00
sg43
S'/home/grogan/Chaste/cell_based/src/cell/cycle/UniformCellCycleModel.hpp'
p659
sg44
I00
sba(iwrapper_utilities.class_data
CppClass
p660
(dp661
g4
Nsg5
(dp662
g7
g8
sg9
g10
sg11
g12
sg13
g14
sg15
g16
sg17
g18
sg19
g20
sS'*'
g21
sg22
g23
sg24
g23
sg25
g26
sg27
g23
ssg28
g622
sg30
I00
sg31
I00
sg32
Nsg33
g351
sg35
I01
sg36
I01
sg37
I00
sg38
Nsg39
Nsg40
Nsg41
Nsg42
I00
sg43
S'/home/grogan/Chaste/cell_based/src/cell/cycle/SimpleOxygenBasedCellCycleModel.hpp'
p663
sg44
I00
sba(iwrapper_utilities.class_data
CppClass
p664
(dp665
g4
Nsg5
(dp666
g7
g8
sg9
g10
sg11
g12
sg13
g14
sg15
g16
sg17
g18
sg19
g20
sS'*'
g21
sg22
g23
sg24
g23
sg25
g26
sg27
g23
ssg28
g625
sg30
I00
sg31
I00
sg32
Nsg33
g351
sg35
I01
sg36
I01
sg37
I00
sg38
Nsg39
Nsg40
Nsg41
Nsg42
I00
sg43
S'/home/grogan/Chaste/cell_based/src/cell/cycle/UniformG1GenerationalCellCycleModel.hpp'
p667
sg44
I00
sba(iwrapper_utilities.class_data
CppClass
p668
(dp669
g4
Nsg5
(dp670
g7
g8
sg9
g10
sg11
g12
sg13
g14
sg15
g16
sg17
g18
sg19
g20
sS'*'
g21
sg22
g23
sg24
g23
sg25
g26
sg27
g23
ssg28
g628
sg30
I00
sg31
I00
sg32
Nsg33
g351
sg35
I01
sg36
I01
sg37
I00
sg38
Nsg39
Nsg40
Nsg41
Nsg42
I00
sg43
S'/home/grogan/Chaste/cell_based/src/cell/cycle/NoCellCycleModel.hpp'
p671
sg44
I00
sba(iwrapper_utilities.class_data
CppClass
p672
(dp673
g4
Nsg5
(dp674
g7
g8
sg9
g10
sg11
g12
sg13
g14
sg15
g16
sg17
g18
sg19
g20
sS'*'
g21
sg22
g23
sg24
g23
sg25
g26
sg27
g23
ssg28
S'AbstractCellProperty'
p675
sg30
I00
sg31
I00
sg32
Nsg33
g351
sg35
I01
sg36
I01
sg37
I00
sg38
Nsg39
Nsg40
(lp676
S'IsType'
p677
asg41
Nsg42
I01
sg43
S'/home/grogan/Chaste/cell_based/src/cell/properties/AbstractCellProperty.hpp'
p678
sg44
I00
sba(iwrapper_utilities.class_data
CppClass
p679
(dp680
g4
Nsg5
(dp681
g7
g8
sg9
g10
sg11
g12
sg13
g14
sg15
g16
sg17
g18
sg19
g20
sS'*'
g21
sg22
g23
sg24
g23
sg25
g26
sg27
g23
ssg28
S'CellPropertyCollection'
p682
sg30
I00
sg31
I00
sg32
Nsg33
g351
sg35
I01
sg36
I01
sg37
I00
sg38
Nsg39
Nsg40
(lp683
S'GetCellPropertyRegistry'
p684
asg41
Nsg42
I00
sg43
S'/home/grogan/Chaste/cell_based/src/cell/properties/CellPropertyCollection.hpp'
p685
sg44
I00
sba(iwrapper_utilities.class_data
CppClass
p686
(dp687
g4
Nsg5
(dp688
g7
g8
sg9
g10
sg11
g12
sg13
g14
sg15
g16
sg17
g18
sg19
g20
sS'*'
g21
sg22
g23
sg24
g23
sg25
g26
sg27
g23
ssg28
S'AbstractCellProliferativeType'
p689
sg30
I00
sg31
I00
sg32
Nsg33
g351
sg35
I01
sg36
I01
sg37
I00
sg38
Nsg39
Nsg40
Nsg41
Nsg42
I00
sg43
S'/home/grogan/Chaste/cell_based/src/cell/properties/proliferative_types/AbstractCellProliferativeType.hpp'
p690
sg44
I00
sba(iwrapper_utilities.class_data
CppClass
p691
(dp692
g4
Nsg5
(dp693
g7
g8
sg9
g10
sg11
g12
sg13
g14
sg15
g16
sg17
g18
sg19
g20
sS'*'
g21
sg22
g23
sg24
g23
sg25
g26
sg27
g23
ssg28
S'StemCellProliferativeType'
p694
sg30
I00
sg31
I00
sg32
Nsg33
g351
sg35
I01
sg36
I01
sg37
I00
sg38
Nsg39
Nsg40
Nsg41
Nsg42
I00
sg43
S'/home/grogan/Chaste/cell_based/src/cell/properties/proliferative_types/StemCellProliferativeType.hpp'
p695
sg44
I00
sba(iwrapper_utilities.class_data
CppClass
p696
(dp697
g4
Nsg5
(dp698
g7
g8
sg9
g10
sg11
g12
sg13
g14
sg15
g16
sg17
g18
sg19
g20
sS'*'
g21
sg22
g23
sg24
g23
sg25
g26
sg27
g23
ssg28
S'DefaultCellProliferativeType'
p699
sg30
I00
sg31
I00
sg32
Nsg33
g351
sg35
I01
sg36
I01
sg37
I00
sg38
Nsg39
Nsg40
Nsg41
Nsg42
I00
sg43
S'/home/grogan/Chaste/cell_based/src/cell/properties/proliferative_types/DefaultCellProliferativeType.hpp'
p700
sg44
I00
sba(iwrapper_utilities.class_data
CppClass
p701
(dp702
g4
Nsg5
(dp703
g7
g8
sg9
g10
sg11
g12
sg13
g14
sg15
g16
sg17
g18
sg19
g20
sS'*'
g21
sg22
g23
sg24
g23
sg25
g26
sg27
g23
ssg28
S'TransitCellProliferativeType'
p704
sg30
I00
sg31
I00
sg32
Nsg33
g351
sg35
I01
sg36
I01
sg37
I00
sg38
Nsg39
Nsg40
Nsg41
Nsg42
I00
sg43
S'/home/grogan/Chaste/cell_based/src/cell/properties/proliferative_types/TransitCellProliferativeType.hpp'
p705
sg44
I00
sba(iwrapper_utilities.class_data
CppClass
p706
(dp707
g4
Nsg5
(dp708
g7
g8
sg9
g10
sg11
g12
sg13
g14
sg15
g16
sg17
g18
sg19
g20
sS'*'
g21
sg22
g23
sg24
g23
sg25
g26
sg27
g23
ssg28
S'DifferentiatedCellProliferativeType'
p709
sg30
I00
sg31
I00
sg32
Nsg33
g351
sg35
I01
sg36
I01
sg37
I00
sg38
Nsg39
Nsg40
Nsg41
Nsg42
I00
sg43
S'/home/grogan/Chaste/cell_based/src/cell/properties/proliferative_types/DifferentiatedCellProliferativeType.hpp'
p710
sg44
I00
sba(iwrapper_utilities.class_data
CppClass
p711
(dp712
g4
Nsg5
(dp713
g7
g8
sg9
g10
sg11
g12
sg13
g14
sg15
g16
sg17
g18
sg19
g20
sS'*'
g21
sg22
g23
sg24
g23
sg25
g26
sg27
g23
ssg28
S'AbstractCellMutationState'
p714
sg30
I00
sg31
I00
sg32
Nsg33
g351
sg35
I01
sg36
I01
sg37
I00
sg38
Nsg39
Nsg40
Nsg41
Nsg42
I00
sg43
S'/home/grogan/Chaste/cell_based/src/cell/properties/mutations/AbstractCellMutationState.hpp'
p715
sg44
I00
sba(iwrapper_utilities.class_data
CppClass
p716
(dp717
g4
Nsg5
(dp718
g7
g8
sg9
g10
sg11
g12
sg13
g14
sg15
g16
sg17
g18
sg19
g20
sS'*'
g21
sg22
g23
sg24
g23
sg25
g26
sg27
g23
ssg28
S'ApcOneHitCellMutationState'
p719
sg30
I00
sg31
I00
sg32
Nsg33
g351
sg35
I01
sg36
I01
sg37
I00
sg38
Nsg39
Nsg40
Nsg41
Nsg42
I00
sg43
S'/home/grogan/Chaste/cell_based/src/cell/properties/mutations/ApcOneHitCellMutationState.hpp'
p720
sg44
I00
sba(iwrapper_utilities.class_data
CppClass
p721
(dp722
g4
Nsg5
(dp723
g7
g8
sg9
g10
sg11
g12
sg13
g14
sg15
g16
sg17
g18
sg19
g20
sS'*'
g21
sg22
g23
sg24
g23
sg25
g26
sg27
g23
ssg28
S'ApcTwoHitCellMutationState'
p724
sg30
I00
sg31
I00
sg32
Nsg33
g351
sg35
I01
sg36
I01
sg37
I00
sg38
Nsg39
Nsg40
Nsg41
Nsg42
I00
sg43
S'/home/grogan/Chaste/cell_based/src/cell/properties/mutations/ApcTwoHitCellMutationState.hpp'
p725
sg44
I00
sba(iwrapper_utilities.class_data
CppClass
p726
(dp727
g4
Nsg5
(dp728
g7
g8
sg9
g10
sg11
g12
sg13
g14
sg15
g16
sg17
g18
sg19
g20
sS'*'
g21
sg22
g23
sg24
g23
sg25
g26
sg27
g23
ssg28
S'BetaCateninOneHitCellMutationState'
p729
sg30
I00
sg31
I00
sg32
Nsg33
g351
sg35
I01
sg36
I01
sg37
I00
sg38
Nsg39
Nsg40
Nsg41
Nsg42
I00
sg43
S'/home/grogan/Chaste/cell_based/src/cell/properties/mutations/BetaCateninOneHitCellMutationState.hpp'
p730
sg44
I00
sba(iwrapper_utilities.class_data
CppClass
p731
(dp732
g4
Nsg5
(dp733
g7
g8
sg9
g10
sg11
g12
sg13
g14
sg15
g16
sg17
g18
sg19
g20
sS'*'
g21
sg22
g23
sg24
g23
sg25
g26
sg27
g23
ssg28
S'WildTypeCellMutationState'
p734
sg30
I00
sg31
I00
sg32
Nsg33
g351
sg35
I01
sg36
I01
sg37
I00
sg38
Nsg39
Nsg40
Nsg41
Nsg42
I00
sg43
S'/home/grogan/Chaste/cell_based/src/cell/properties/mutations/WildTypeCellMutationState.hpp'
p735
sg44
I00
sba(iwrapper_utilities.class_data
CppClass
p736
(dp737
g4
Nsg5
(dp738
g7
g8
sg9
g10
sg11
g12
sg13
g14
sg15
g16
sg17
g18
sg19
g20
sS'*'
g21
sg22
g23
sg24
g23
sg25
g26
sg27
g23
ssg28
S'ApoptoticCellProperty'
p739
sg30
I00
sg31
I00
sg32
Nsg33
g351
sg35
I01
sg36
I01
sg37
I00
sg38
Nsg39
Nsg40
Nsg41
Nsg42
I00
sg43
S'/home/grogan/Chaste/cell_based/src/cell/properties/ApoptoticCellProperty.hpp'
p740
sg44
I00
sba(iwrapper_utilities.class_data
CppClass
p741
(dp742
g4
Nsg5
(dp743
g7
g8
sg9
g10
sg11
g12
sg13
g14
sg15
g16
sg17
g18
sg19
g20
sS'*'
g21
sg22
g23
sg24
g23
sg25
g26
sg27
g23
ssg28
S'CellData'
p744
sg30
I00
sg31
I00
sg32
Nsg33
g351
sg35
I01
sg36
I01
sg37
I00
sg38
Nsg39
Nsg40
Nsg41
Nsg42
I00
sg43
S'/home/grogan/Chaste/cell_based/src/cell/properties/CellData.hpp'
p745
sg44
I00
sba(iwrapper_utilities.class_data
CppClass
p746
(dp747
g4
Nsg5
(dp748
g7
g8
sg9
g10
sg11
g12
sg13
g14
sg15
g16
sg17
g18
sg19
g20
sS'*'
g21
sg22
g23
sg24
g23
sg25
g26
sg27
g23
ssg28
S'CellLabel'
p749
sg30
I00
sg31
I00
sg32
Nsg33
g351
sg35
I01
sg36
I01
sg37
I00
sg38
Nsg39
Nsg40
Nsg41
Nsg42
I00
sg43
S'/home/grogan/Chaste/cell_based/src/cell/properties/CellLabel.hpp'
p750
sg44
I00
sba(iwrapper_utilities.class_data
CppClass
p751
(dp752
g4
Nsg5
(dp753
g7
g8
sg9
g10
sg11
g12
sg13
g14
sg15
g16
sg17
g18
sg19
g20
sS'*'
g21
sg22
g23
sg24
g23
sg25
g26
sg27
g23
ssg28
S'CellAncestor'
p754
sg30
I00
sg31
I00
sg32
Nsg33
g351
sg35
I01
sg36
I01
sg37
I00
sg38
Nsg39
Nsg40
Nsg41
Nsg42
I00
sg43
S'/home/grogan/Chaste/cell_based/src/cell/properties/CellAncestor.hpp'
p755
sg44
I00
sba(iwrapper_utilities.class_data
CppClass
p756
(dp757
g4
Nsg5
(dp758
g7
g8
sg9
g10
sg11
g12
sg13
g14
sg15
g16
sg17
g18
sg19
g20
sS'*'
g21
sg22
g23
sg24
g23
sg25
g26
sg27
g23
ssg28
S'CellId'
p759
sg30
I00
sg31
I00
sg32
Nsg33
g351
sg35
I01
sg36
I01
sg37
I00
sg38
Nsg39
Nsg40
Nsg41
Nsg42
I00
sg43
S'/home/grogan/Chaste/cell_based/src/cell/properties/CellId.hpp'
p760
sg44
I00
sba(iwrapper_utilities.class_data
CppClass
p761
(dp762
g4
Nsg5
(dp763
g7
g8
sg9
g10
sg11
g12
sg13
g14
sg15
g16
sg17
g18
sg19
g20
sS'*'
g21
sg22
g23
sg24
g23
sg25
g26
sg27
g23
ssg28
S'CellPropertyRegistry'
p764
sg30
I00
sg31
I00
sg32
Nsg33
g351
sg35
I01
sg36
I01
sg37
I00
sg38
Nsg39
Nsg40
(lp765
S'rGetAllCellProperties'
p766
aS'TakeOwnership'
p767
aS'Get'
p768
asg41
Nsg42
I00
sg43
S'/home/grogan/Chaste/cell_based/src/cell/properties/CellPropertyRegistry.hpp'
p769
sg44
I00
sba(iwrapper_utilities.class_data
CppClass
p770
(dp771
g4
Nsg5
(dp772
g7
g8
sg9
g10
sg11
g12
sg13
g14
sg15
g16
sg17
g18
sg19
g20
sS'*'
g21
sg22
g23
sg24
g23
sg25
g26
sg27
g23
ssg28
S'AbstractSrnModel'
p773
sg30
I00
sg31
I00
sg32
Nsg33
g351
sg35
I01
sg36
I01
sg37
I00
sg38
Nsg39
Nsg40
Nsg41
Nsg42
I00
sg43
S'/home/grogan/Chaste/cell_based/src/cell/srn/AbstractSrnModel.hpp'
p774
sg44
I00
sba(iwrapper_utilities.class_data
CppClass
p775
(dp776
g4
Nsg5
(dp777
g7
g8
sg9
g10
sg11
g12
sg13
g14
sg15
g16
sg17
g18
sg19
g20
sS'*'
g21
sg22
g23
sg24
g23
sg25
g26
sg27
g23
ssg28
S'NullSrnModel'
p778
sg30
I00
sg31
I00
sg32
Nsg33
g351
sg35
I01
sg36
I01
sg37
I00
sg38
Nsg39
Nsg40
Nsg41
Nsg42
I00
sg43
S'/home/grogan/Chaste/cell_based/src/cell/srn/NullSrnModel.hpp'
p779
sg44
I00
sba(iwrapper_utilities.class_data
CppClass
p780
(dp781
g4
Nsg5
(dp782
g7
g8
sg9
g10
sg11
g12
sg13
g14
sg15
g16
sg17
g18
sg19
g20
sS'*'
g21
sg22
g23
sg24
g23
sg25
g26
sg27
g23
ssg28
S'Hello'
p783
sg30
I00
sg31
I00
sg32
Nsg33
S'tutorial'
p784
sg35
I01
sg36
I01
sg37
I00
sg38
Nsg39
Nsg40
Nsg41
Nsg42
I00
sg43
S'/home/grogan/Chaste/projects/PyChaste/src/tutorial/Hello.hpp'
p785
sg44
I00
sba(iwrapper_utilities.class_data
CppClass
p786
(dp787
g4
Nsg5
(dp788
g7
g8
sg9
g10
sg11
g12
sg13
g14
sg15
g16
sg17
g18
sg19
g20
sS'*'
g21
sg22
g23
sg24
g23
sg25
g26
sg27
g23
ssg28
S'VtkScene'
p789
sg30
I00
sg31
I00
sg32
Nsg33
S'visualization'
p790
sg35
I01
sg36
I01
sg37
I00
sg38
Nsg39
g199
sg40
Nsg41
Nsg42
I00
sg43
S'/home/grogan/Chaste/projects/PyChaste/src/visualization/VtkScene.hpp'
p791
sg44
I00
sba(iwrapper_utilities.class_data
CppClass
p792
(dp793
g4
Nsg5
(dp794
g7
g8
sg9
g10
sg11
g12
sg13
g14
sg15
g16
sg17
g18
sg19
g20
sS'*'
g21
sg22
g23
sg24
g23
sg25
g26
sg27
g23
ssg28
S'AbstractPyChasteActorGenerator'
p795
sg30
I00
sg31
I00
sg32
Nsg33
g790
sg35
I01
sg36
I01
sg37
I00
sg38
Nsg39
g199
sg40
Nsg41
Nsg42
I00
sg43
S'/home/grogan/Chaste/projects/PyChaste/src/visualization/AbstractPyChasteActorGenerator.hpp'
p796
sg44
I00
sba(iwrapper_utilities.class_data
CppClass
p797
(dp798
g4
Nsg5
(dp799
g7
g8
sg9
g10
sg11
g12
sg13
g14
sg15
g16
sg17
g18
sg19
g20
sS'*'
g21
sg22
g23
sg24
g23
sg25
g26
sg27
g23
ssg28
S'CellPopulationPyChasteActorGenerator'
p800
sg30
I00
sg31
I00
sg32
Nsg33
g790
sg35
I01
sg36
I01
sg37
I00
sg38
Nsg39
g199
sg40
Nsg41
Nsg42
I00
sg43
S'/home/grogan/Chaste/projects/PyChaste/src/visualization/CellPopulationPyChasteActorGenerator.hpp'
p801
sg44
I00
sba.